Archive member included because of file (symbol)

/home/ashwin/pcn_compiler_lkvm/x86_64/lib/libc.a(sysconf.o)
                              builtin-run.o (sysconf)
/home/ashwin/pcn_compiler_lkvm/x86_64/lib/libc.a(closedir.o)
                              kvm-ipc.o (closedir)
/home/ashwin/pcn_compiler_lkvm/x86_64/lib/libc.a(dirfd.o)
                              virtio/9p.o (dirfd)
/home/ashwin/pcn_compiler_lkvm/x86_64/lib/libc.a(opendir.o)
                              builtin-list.o (opendir)
/home/ashwin/pcn_compiler_lkvm/x86_64/lib/libc.a(readdir.o)
                              builtin-list.o (readdir)
/home/ashwin/pcn_compiler_lkvm/x86_64/lib/libc.a(readdir_r.o)
                              kvm-ipc.o (readdir_r)
/home/ashwin/pcn_compiler_lkvm/x86_64/lib/libc.a(seekdir.o)
                              virtio/9p.o (seekdir)
/home/ashwin/pcn_compiler_lkvm/x86_64/lib/libc.a(__libc_start_main.o)
                              /home/ashwin/pcn_compiler_lkvm/x86_64/lib/crt1.o (__libc_start_main)
/home/ashwin/pcn_compiler_lkvm/x86_64/lib/libc.a(getenv.o)
                              main.o (getenv)
/home/ashwin/pcn_compiler_lkvm/x86_64/lib/libc.a(__errno_location.o)
                              builtin-run.o (__errno_location)
/home/ashwin/pcn_compiler_lkvm/x86_64/lib/libc.a(strerror.o)
                              builtin-run.o (strerror)
/home/ashwin/pcn_compiler_lkvm/x86_64/lib/libc.a(atexit.o)
                              term.o (atexit)
/home/ashwin/pcn_compiler_lkvm/x86_64/lib/libc.a(exit.o)
                              util/parse-options.o (exit)
/home/ashwin/pcn_compiler_lkvm/x86_64/lib/libc.a(fcntl.o)
                              net/uip/udp.o (fcntl)
/home/ashwin/pcn_compiler_lkvm/x86_64/lib/libc.a(open.o)
                              builtin-run.o (open)
/home/ashwin/pcn_compiler_lkvm/x86_64/lib/libc.a(libc.o)
                              /home/ashwin/pcn_compiler_lkvm/x86_64/lib/libc.a(__libc_start_main.o) (__hwcap)
/home/ashwin/pcn_compiler_lkvm/x86_64/lib/libc.a(syscall_ret.o)
                              /home/ashwin/pcn_compiler_lkvm/x86_64/lib/libc.a(fcntl.o) (__syscall_ret)
/home/ashwin/pcn_compiler_lkvm/x86_64/lib/libc.a(getpagesize.o)
                              util/util.o (getpagesize)
/home/ashwin/pcn_compiler_lkvm/x86_64/lib/libc.a(epoll.o)
                              ioeventfd.o (epoll_create)
/home/ashwin/pcn_compiler_lkvm/x86_64/lib/libc.a(eventfd.o)
                              kvm_common.o (eventfd)
/home/ashwin/pcn_compiler_lkvm/x86_64/lib/libc.a(prctl.o)
                              builtin-run.o (prctl)
/home/ashwin/pcn_compiler_lkvm/x86_64/lib/libc.a(sysinfo.o)
                              /home/ashwin/pcn_compiler_lkvm/x86_64/lib/libc.a(sysconf.o) (__lsysinfo)
/home/ashwin/pcn_compiler_lkvm/x86_64/lib/libc.a(__lctrans.o)
                              /home/ashwin/pcn_compiler_lkvm/x86_64/lib/libc.a(strerror.o) (__lctrans)
/home/ashwin/pcn_compiler_lkvm/x86_64/lib/libc.a(calloc.o)
                              disk/core.o (calloc)
/home/ashwin/pcn_compiler_lkvm/x86_64/lib/libc.a(lite_malloc.o)
                              /home/ashwin/pcn_compiler_lkvm/x86_64/lib/libc.a(calloc.o) (__malloc0)
/home/ashwin/pcn_compiler_lkvm/x86_64/lib/libc.a(malloc.o)
                              builtin-run.o (free)
/home/ashwin/pcn_compiler_lkvm/x86_64/lib/libc.a(popcorn_malloc.o)
                              /home/ashwin/pcn_compiler_lkvm/x86_64/lib/libc.a(calloc.o) (__popcorn_malloc0)
/home/ashwin/pcn_compiler_lkvm/x86_64/lib/libc.a(getrlimit.o)
                              /home/ashwin/pcn_compiler_lkvm/x86_64/lib/libc.a(sysconf.o) (getrlimit)
/home/ashwin/pcn_compiler_lkvm/x86_64/lib/libc.a(ioctl.o)
                              x86/kvm-cpu.o (ioctl)
/home/ashwin/pcn_compiler_lkvm/x86_64/lib/libc.a(mntent.o)
                              disk/blk.o (getmntent)
/home/ashwin/pcn_compiler_lkvm/x86_64/lib/libc.a(openpty.o)
                              term.o (openpty)
/home/ashwin/pcn_compiler_lkvm/x86_64/lib/libc.a(realpath.o)
                              builtin-run.o (realpath)
/home/ashwin/pcn_compiler_lkvm/x86_64/lib/libc.a(uname.o)
                              builtin-run.o (uname)
/home/ashwin/pcn_compiler_lkvm/x86_64/lib/libc.a(madvise.o)
                              /home/ashwin/pcn_compiler_lkvm/x86_64/lib/libc.a(malloc.o) (__madvise)
/home/ashwin/pcn_compiler_lkvm/x86_64/lib/libc.a(mmap.o)
                              /home/ashwin/pcn_compiler_lkvm/x86_64/lib/libc.a(malloc.o) (__mmap)
/home/ashwin/pcn_compiler_lkvm/x86_64/lib/libc.a(mprotect.o)
                              x86/kvm.o (mprotect)
/home/ashwin/pcn_compiler_lkvm/x86_64/lib/libc.a(mremap.o)
                              /home/ashwin/pcn_compiler_lkvm/x86_64/lib/libc.a(malloc.o) (__mremap)
/home/ashwin/pcn_compiler_lkvm/x86_64/lib/libc.a(munmap.o)
                              /home/ashwin/pcn_compiler_lkvm/x86_64/lib/libc.a(malloc.o) (__munmap)
/home/ashwin/pcn_compiler_lkvm/x86_64/lib/libc.a(shm_open.o)
                              hw/pci-shmem.o (shm_open)
/home/ashwin/pcn_compiler_lkvm/x86_64/lib/libc.a(accept.o)
                              kvm-ipc.o (accept)
/home/ashwin/pcn_compiler_lkvm/x86_64/lib/libc.a(bind.o)
                              kvm-ipc.o (bind)
/home/ashwin/pcn_compiler_lkvm/x86_64/lib/libc.a(connect.o)
                              net/uip/tcp.o (connect)
/home/ashwin/pcn_compiler_lkvm/x86_64/lib/libc.a(htonl.o)
                              net/uip/arp.o (htonl)
/home/ashwin/pcn_compiler_lkvm/x86_64/lib/libc.a(htons.o)
                              net/uip/arp.o (htons)
/home/ashwin/pcn_compiler_lkvm/x86_64/lib/libc.a(inet_addr.o)
                              virtio/net.o (inet_addr)
/home/ashwin/pcn_compiler_lkvm/x86_64/lib/libc.a(inet_aton.o)
                              /home/ashwin/pcn_compiler_lkvm/x86_64/lib/libc.a(inet_addr.o) (__inet_aton)
/home/ashwin/pcn_compiler_lkvm/x86_64/lib/libc.a(listen.o)
                              kvm-ipc.o (listen)
/home/ashwin/pcn_compiler_lkvm/x86_64/lib/libc.a(ntohl.o)
                              virtio/net.o (ntohl)
/home/ashwin/pcn_compiler_lkvm/x86_64/lib/libc.a(ntohs.o)
                              net/uip/core.o (ntohs)
/home/ashwin/pcn_compiler_lkvm/x86_64/lib/libc.a(recvfrom.o)
                              net/uip/udp.o (recvfrom)
/home/ashwin/pcn_compiler_lkvm/x86_64/lib/libc.a(sendto.o)
                              net/uip/udp.o (sendto)
/home/ashwin/pcn_compiler_lkvm/x86_64/lib/libc.a(shutdown.o)
                              net/uip/tcp.o (shutdown)
/home/ashwin/pcn_compiler_lkvm/x86_64/lib/libc.a(socket.o)
                              virtio/net.o (socket)
/home/ashwin/pcn_compiler_lkvm/x86_64/lib/libc.a(execl.o)
                              virtio/net.o (execl)
/home/ashwin/pcn_compiler_lkvm/x86_64/lib/libc.a(execv.o)
                              /home/ashwin/pcn_compiler_lkvm/x86_64/lib/libc.a(execl.o) (execv)
/home/ashwin/pcn_compiler_lkvm/x86_64/lib/libc.a(execve.o)
                              /home/ashwin/pcn_compiler_lkvm/x86_64/lib/libc.a(execv.o) (execve)
/home/ashwin/pcn_compiler_lkvm/x86_64/lib/libc.a(fork.o)
                              virtio/net.o (fork)
/home/ashwin/pcn_compiler_lkvm/x86_64/lib/libc.a(waitpid.o)
                              virtio/net.o (waitpid)
/home/ashwin/pcn_compiler_lkvm/x86_64/lib/libc.a(poll.o)
                              term.o (poll)
/home/ashwin/pcn_compiler_lkvm/x86_64/lib/libc.a(select.o)
                              builtin-stat.o (select)
/home/ashwin/pcn_compiler_lkvm/x86_64/lib/libc.a(block.o)
                              /home/ashwin/pcn_compiler_lkvm/x86_64/lib/libc.a(fork.o) (__block_all_sigs)
/home/ashwin/pcn_compiler_lkvm/x86_64/lib/libc.a(raise.o)
                              term.o (raise)
/home/ashwin/pcn_compiler_lkvm/x86_64/lib/libc.a(signal.o)
                              term.o (signal)
/home/ashwin/pcn_compiler_lkvm/x86_64/lib/libc.a(sigrtmin.o)
                              kvm_common.o (__libc_current_sigrtmin)
/home/ashwin/pcn_compiler_lkvm/x86_64/lib/libc.a(chmod.o)
                              virtio/9p.o (chmod)
/home/ashwin/pcn_compiler_lkvm/x86_64/lib/libc.a(fstat.o)
                              builtin-setup.o (fstat)
/home/ashwin/pcn_compiler_lkvm/x86_64/lib/libc.a(lstat.o)
                              virtio/9p.o (lstat)
/home/ashwin/pcn_compiler_lkvm/x86_64/lib/libc.a(mkdir.o)
                              builtin-setup.o (mkdir)
/home/ashwin/pcn_compiler_lkvm/x86_64/lib/libc.a(mknod.o)
                              virtio/9p.o (mknod)
/home/ashwin/pcn_compiler_lkvm/x86_64/lib/libc.a(stat.o)
                              builtin-run.o (stat)
/home/ashwin/pcn_compiler_lkvm/x86_64/lib/libc.a(statvfs.o)
                              util/util.o (statfs)
/home/ashwin/pcn_compiler_lkvm/x86_64/lib/libc.a(utimensat.o)
                              virtio/9p.o (utimensat)
/home/ashwin/pcn_compiler_lkvm/x86_64/lib/libc.a(dprintf.o)
                              x86/kvm-cpu.o (dprintf)
/home/ashwin/pcn_compiler_lkvm/x86_64/lib/libc.a(fclose.o)
                              builtin-setup.o (fclose)
/home/ashwin/pcn_compiler_lkvm/x86_64/lib/libc.a(feof.o)
                              net/uip/dhcp.o (feof)
/home/ashwin/pcn_compiler_lkvm/x86_64/lib/libc.a(ferror.o)
                              /home/ashwin/pcn_compiler_lkvm/x86_64/lib/libc.a(mntent.o) (ferror)
/home/ashwin/pcn_compiler_lkvm/x86_64/lib/libc.a(fflush.o)
                              kvm-ipc.o (fflush)
/home/ashwin/pcn_compiler_lkvm/x86_64/lib/libc.a(fgets.o)
                              /home/ashwin/pcn_compiler_lkvm/x86_64/lib/libc.a(mntent.o) (fgets)
/home/ashwin/pcn_compiler_lkvm/x86_64/lib/libc.a(fopen.o)
                              builtin-setup.o (fopen)
/home/ashwin/pcn_compiler_lkvm/x86_64/lib/libc.a(fprintf.o)
                              builtin-run.o (fprintf)
/home/ashwin/pcn_compiler_lkvm/x86_64/lib/libc.a(fputc.o)
                              util/parse-options.o (fputc)
/home/ashwin/pcn_compiler_lkvm/x86_64/lib/libc.a(fscanf.o)
                              net/uip/dhcp.o (fscanf)
/home/ashwin/pcn_compiler_lkvm/x86_64/lib/libc.a(fseek.o)
                              /home/ashwin/pcn_compiler_lkvm/x86_64/lib/libc.a(mntent.o) (fseek)
/home/ashwin/pcn_compiler_lkvm/x86_64/lib/libc.a(getline.o)
                              /home/ashwin/pcn_compiler_lkvm/x86_64/lib/libc.a(mntent.o) (getline)
/home/ashwin/pcn_compiler_lkvm/x86_64/lib/libc.a(ofl.o)
                              /home/ashwin/pcn_compiler_lkvm/x86_64/lib/libc.a(fclose.o) (__ofl_lock)
/home/ashwin/pcn_compiler_lkvm/x86_64/lib/libc.a(perror.o)
                              builtin-list.o (perror)
/home/ashwin/pcn_compiler_lkvm/x86_64/lib/libc.a(printf.o)
                              builtin-debug.o (printf)
/home/ashwin/pcn_compiler_lkvm/x86_64/lib/libc.a(putchar.o)
                              x86/ioport.o (putchar)
/home/ashwin/pcn_compiler_lkvm/x86_64/lib/libc.a(puts.o)
                              builtin-help.o (puts)
/home/ashwin/pcn_compiler_lkvm/x86_64/lib/libc.a(remove.o)
                              builtin-run.o (remove)
/home/ashwin/pcn_compiler_lkvm/x86_64/lib/libc.a(rename.o)
                              virtio/9p.o (rename)
/home/ashwin/pcn_compiler_lkvm/x86_64/lib/libc.a(snprintf.o)
                              builtin-run.o (snprintf)
/home/ashwin/pcn_compiler_lkvm/x86_64/lib/libc.a(sprintf.o)
                              builtin-run.o (sprintf)
/home/ashwin/pcn_compiler_lkvm/x86_64/lib/libc.a(sscanf.o)
                              virtio/net.o (sscanf)
/home/ashwin/pcn_compiler_lkvm/x86_64/lib/libc.a(stderr.o)
                              builtin-run.o (stderr)
/home/ashwin/pcn_compiler_lkvm/x86_64/lib/libc.a(stdout.o)
                              kvm-ipc.o (stdout)
/home/ashwin/pcn_compiler_lkvm/x86_64/lib/libc.a(vdprintf.o)
                              /home/ashwin/pcn_compiler_lkvm/x86_64/lib/libc.a(dprintf.o) (vdprintf)
/home/ashwin/pcn_compiler_lkvm/x86_64/lib/libc.a(vfprintf.o)
                              /home/ashwin/pcn_compiler_lkvm/x86_64/lib/libc.a(fprintf.o) (vfprintf)
/home/ashwin/pcn_compiler_lkvm/x86_64/lib/libc.a(vfscanf.o)
                              /home/ashwin/pcn_compiler_lkvm/x86_64/lib/libc.a(fscanf.o) (vfscanf)
/home/ashwin/pcn_compiler_lkvm/x86_64/lib/libc.a(vsnprintf.o)
                              kvm_common.o (vsnprintf)
/home/ashwin/pcn_compiler_lkvm/x86_64/lib/libc.a(vsprintf.o)
                              /home/ashwin/pcn_compiler_lkvm/x86_64/lib/libc.a(sprintf.o) (vsprintf)
/home/ashwin/pcn_compiler_lkvm/x86_64/lib/libc.a(vsscanf.o)
                              /home/ashwin/pcn_compiler_lkvm/x86_64/lib/libc.a(sscanf.o) (vsscanf)
/home/ashwin/pcn_compiler_lkvm/x86_64/lib/libc.a(atoi.o)
                              term.o (atoi)
/home/ashwin/pcn_compiler_lkvm/x86_64/lib/libc.a(strtol.o)
                              virtio/scsi.o (strtol)
/home/ashwin/pcn_compiler_lkvm/x86_64/lib/libc.a(memchr.o)
                              /home/ashwin/pcn_compiler_lkvm/x86_64/lib/libc.a(fgets.o) (memchr)
/home/ashwin/pcn_compiler_lkvm/x86_64/lib/libc.a(memcmp.o)
                              kvm_common.o (memcmp)
/home/ashwin/pcn_compiler_lkvm/x86_64/lib/libc.a(strcasestr.o)
                              hw/pci-shmem.o (strcasestr)
/home/ashwin/pcn_compiler_lkvm/x86_64/lib/libc.a(strcat.o)
                              builtin-run.o (strcat)
/home/ashwin/pcn_compiler_lkvm/x86_64/lib/libc.a(strchr.o)
                              util/parse-options.o (strchr)
/home/ashwin/pcn_compiler_lkvm/x86_64/lib/libc.a(strchrnul.o)
                              /home/ashwin/pcn_compiler_lkvm/x86_64/lib/libc.a(getenv.o) (__strchrnul)
/home/ashwin/pcn_compiler_lkvm/x86_64/lib/libc.a(strcmp.o)
                              builtin-list.o (strcmp)
/home/ashwin/pcn_compiler_lkvm/x86_64/lib/libc.a(strcpy.o)
                              hw/pci-shmem.o (strcpy)
/home/ashwin/pcn_compiler_lkvm/x86_64/lib/libc.a(strdup.o)
                              guest_compat.o (strdup)
/home/ashwin/pcn_compiler_lkvm/x86_64/lib/libc.a(strlen.o)
                              builtin-help.o (strlen)
/home/ashwin/pcn_compiler_lkvm/x86_64/lib/libc.a(strncasecmp.o)
                              /home/ashwin/pcn_compiler_lkvm/x86_64/lib/libc.a(strcasestr.o) (strncasecmp)
/home/ashwin/pcn_compiler_lkvm/x86_64/lib/libc.a(strncmp.o)
                              builtin-run.o (strncmp)
/home/ashwin/pcn_compiler_lkvm/x86_64/lib/libc.a(strncpy.o)
                              builtin-run.o (strncpy)
/home/ashwin/pcn_compiler_lkvm/x86_64/lib/libc.a(strndup.o)
                              net/uip/dhcp.o (strndup)
/home/ashwin/pcn_compiler_lkvm/x86_64/lib/libc.a(strnlen.o)
                              /home/ashwin/pcn_compiler_lkvm/x86_64/lib/libc.a(vfprintf.o) (strnlen)
/home/ashwin/pcn_compiler_lkvm/x86_64/lib/libc.a(strspn.o)
                              hw/pci-shmem.o (strspn)
/home/ashwin/pcn_compiler_lkvm/x86_64/lib/libc.a(strstr.o)
                              builtin-run.o (strstr)
/home/ashwin/pcn_compiler_lkvm/x86_64/lib/libc.a(strtok.o)
                              virtio/net.o (strtok)
/home/ashwin/pcn_compiler_lkvm/x86_64/lib/libc.a(memcpy.o)
                              builtin-setup.o (memcpy)
/home/ashwin/pcn_compiler_lkvm/x86_64/lib/libc.a(memmove.o)
                              util/parse-options.o (memmove)
/home/ashwin/pcn_compiler_lkvm/x86_64/lib/libc.a(memset.o)
                              builtin-debug.o (memset)
/home/ashwin/pcn_compiler_lkvm/x86_64/lib/libc.a(mkstemp.o)
                              util/util.o (mkstemp)
/home/ashwin/pcn_compiler_lkvm/x86_64/lib/libc.a(tcgetattr.o)
                              term.o (tcgetattr)
/home/ashwin/pcn_compiler_lkvm/x86_64/lib/libc.a(tcsetattr.o)
                              term.o (tcsetattr)
/home/ashwin/pcn_compiler_lkvm/x86_64/lib/libc.a(__lock.o)
                              /home/ashwin/pcn_compiler_lkvm/x86_64/lib/libc.a(readdir_r.o) (__lock)
/home/ashwin/pcn_compiler_lkvm/x86_64/lib/libc.a(__syscall_cp.o)
                              /home/ashwin/pcn_compiler_lkvm/x86_64/lib/libc.a(fcntl.o) (__syscall_cp)
/home/ashwin/pcn_compiler_lkvm/x86_64/lib/libc.a(__wait.o)
                              /home/ashwin/pcn_compiler_lkvm/x86_64/lib/libc.a(malloc.o) (__wait)
/home/ashwin/pcn_compiler_lkvm/x86_64/lib/libc.a(pthread_cleanup_push.o)
                              util/threadpool.o (_pthread_cleanup_pop)
/home/ashwin/pcn_compiler_lkvm/x86_64/lib/libc.a(pthread_cond_init.o)
                              virtio/console.o (pthread_cond_init)
/home/ashwin/pcn_compiler_lkvm/x86_64/lib/libc.a(pthread_cond_signal.o)
                              virtio/console.o (pthread_cond_signal)
/home/ashwin/pcn_compiler_lkvm/x86_64/lib/libc.a(pthread_cond_timedwait.o)
                              /home/ashwin/pcn_compiler_lkvm/x86_64/lib/libc.a(pthread_cond_signal.o) (__private_cond_signal)
/home/ashwin/pcn_compiler_lkvm/x86_64/lib/libc.a(pthread_cond_wait.o)
                              virtio/console.o (pthread_cond_wait)
/home/ashwin/pcn_compiler_lkvm/x86_64/lib/libc.a(pthread_create.o)
                              builtin-run.o (pthread_create)
/home/ashwin/pcn_compiler_lkvm/x86_64/lib/libc.a(pthread_join.o)
                              builtin-run.o (pthread_join)
/home/ashwin/pcn_compiler_lkvm/x86_64/lib/libc.a(pthread_kill.o)
                              kvm_common.o (pthread_kill)
/home/ashwin/pcn_compiler_lkvm/x86_64/lib/libc.a(pthread_mutex_init.o)
                              virtio/net.o (pthread_mutex_init)
/home/ashwin/pcn_compiler_lkvm/x86_64/lib/libc.a(pthread_mutex_lock.o)
                              guest_compat.o (pthread_mutex_lock)
/home/ashwin/pcn_compiler_lkvm/x86_64/lib/libc.a(pthread_mutex_timedlock.o)
                              /home/ashwin/pcn_compiler_lkvm/x86_64/lib/libc.a(pthread_mutex_lock.o) (__pthread_mutex_timedlock)
/home/ashwin/pcn_compiler_lkvm/x86_64/lib/libc.a(pthread_mutex_trylock.o)
                              /home/ashwin/pcn_compiler_lkvm/x86_64/lib/libc.a(pthread_mutex_timedlock.o) (pthread_mutex_trylock)
/home/ashwin/pcn_compiler_lkvm/x86_64/lib/libc.a(pthread_mutex_unlock.o)
                              /home/ashwin/pcn_compiler_lkvm/x86_64/lib/libc.a(pthread_cond_timedwait.o) (__pthread_mutex_unlock)
/home/ashwin/pcn_compiler_lkvm/x86_64/lib/libc.a(pthread_rwlock_rdlock.o)
                              kvm-ipc.o (pthread_rwlock_rdlock)
/home/ashwin/pcn_compiler_lkvm/x86_64/lib/libc.a(pthread_rwlock_timedrdlock.o)
                              /home/ashwin/pcn_compiler_lkvm/x86_64/lib/libc.a(pthread_rwlock_rdlock.o) (pthread_rwlock_timedrdlock)
/home/ashwin/pcn_compiler_lkvm/x86_64/lib/libc.a(pthread_rwlock_tryrdlock.o)
                              /home/ashwin/pcn_compiler_lkvm/x86_64/lib/libc.a(pthread_rwlock_timedrdlock.o) (pthread_rwlock_tryrdlock)
/home/ashwin/pcn_compiler_lkvm/x86_64/lib/libc.a(pthread_rwlock_unlock.o)
                              kvm-ipc.o (pthread_rwlock_unlock)
/home/ashwin/pcn_compiler_lkvm/x86_64/lib/libc.a(pthread_rwlock_wrlock.o)
                              kvm-ipc.o (pthread_rwlock_wrlock)
/home/ashwin/pcn_compiler_lkvm/x86_64/lib/libc.a(pthread_setcancelstate.o)
                              /home/ashwin/pcn_compiler_lkvm/x86_64/lib/libc.a(pthread_cond_timedwait.o) (__pthread_setcancelstate)
/home/ashwin/pcn_compiler_lkvm/x86_64/lib/libc.a(pthread_testcancel.o)
                              /home/ashwin/pcn_compiler_lkvm/x86_64/lib/libc.a(pthread_cond_timedwait.o) (__pthread_testcancel)
/home/ashwin/pcn_compiler_lkvm/x86_64/lib/libc.a(vmlock.o)
                              /home/ashwin/pcn_compiler_lkvm/x86_64/lib/libc.a(pthread_create.o) (__vm_lock)
/home/ashwin/pcn_compiler_lkvm/x86_64/lib/libc.a(__cleartid_exit_nostack.o)
                              /home/ashwin/pcn_compiler_lkvm/x86_64/lib/libc.a(pthread_create.o) (__cleartid_exit_nostack)
/home/ashwin/pcn_compiler_lkvm/x86_64/lib/libc.a(__unmapself.o)
                              /home/ashwin/pcn_compiler_lkvm/x86_64/lib/libc.a(pthread_create.o) (__unmapself)
/home/ashwin/pcn_compiler_lkvm/x86_64/lib/libc.a(clone.o)
                              /home/ashwin/pcn_compiler_lkvm/x86_64/lib/libc.a(pthread_create.o) (__clone)
/home/ashwin/pcn_compiler_lkvm/x86_64/lib/libc.a(gmtime.o)
                              hw/rtc.o (gmtime)
/home/ashwin/pcn_compiler_lkvm/x86_64/lib/libc.a(gmtime_r.o)
                              /home/ashwin/pcn_compiler_lkvm/x86_64/lib/libc.a(gmtime.o) (__gmtime_r)
/home/ashwin/pcn_compiler_lkvm/x86_64/lib/libc.a(time.o)
                              hw/rtc.o (time)
/home/ashwin/pcn_compiler_lkvm/x86_64/lib/libc.a(_exit.o)
                              virtio/net.o (_exit)
/home/ashwin/pcn_compiler_lkvm/x86_64/lib/libc.a(access.o)
                              kvm-ipc.o (access)
/home/ashwin/pcn_compiler_lkvm/x86_64/lib/libc.a(close.o)
                              builtin-balloon.o (close)
/home/ashwin/pcn_compiler_lkvm/x86_64/lib/libc.a(fdatasync.o)
                              disk/qcow.o (fdatasync)
/home/ashwin/pcn_compiler_lkvm/x86_64/lib/libc.a(fsync.o)
                              builtin-setup.o (fsync)
/home/ashwin/pcn_compiler_lkvm/x86_64/lib/libc.a(ftruncate.o)
                              builtin-setup.o (ftruncate)
/home/ashwin/pcn_compiler_lkvm/x86_64/lib/libc.a(getpid.o)
                              builtin-run.o (getpid)
/home/ashwin/pcn_compiler_lkvm/x86_64/lib/libc.a(isatty.o)
                              term.o (isatty)
/home/ashwin/pcn_compiler_lkvm/x86_64/lib/libc.a(lchown.o)
                              virtio/9p.o (lchown)
/home/ashwin/pcn_compiler_lkvm/x86_64/lib/libc.a(link.o)
                              virtio/9p.o (link)
/home/ashwin/pcn_compiler_lkvm/x86_64/lib/libc.a(lseek.o)
                              kvm_common.o (lseek)
/home/ashwin/pcn_compiler_lkvm/x86_64/lib/libc.a(pread.o)
                              util/read-write.o (pread)
/home/ashwin/pcn_compiler_lkvm/x86_64/lib/libc.a(preadv.o)
                              util/read-write.o (preadv)
/home/ashwin/pcn_compiler_lkvm/x86_64/lib/libc.a(pwrite.o)
                              util/read-write.o (pwrite)
/home/ashwin/pcn_compiler_lkvm/x86_64/lib/libc.a(pwritev.o)
                              util/read-write.o (pwritev)
/home/ashwin/pcn_compiler_lkvm/x86_64/lib/libc.a(read.o)
                              builtin-list.o (read)
/home/ashwin/pcn_compiler_lkvm/x86_64/lib/libc.a(readlink.o)
                              virtio/9p.o (readlink)
/home/ashwin/pcn_compiler_lkvm/x86_64/lib/libc.a(readv.o)
                              virtio/net.o (readv)
/home/ashwin/pcn_compiler_lkvm/x86_64/lib/libc.a(sleep.o)
                              virtio/net.o (sleep)
/home/ashwin/pcn_compiler_lkvm/x86_64/lib/libc.a(symlink.o)
                              builtin-run.o (symlink)
/home/ashwin/pcn_compiler_lkvm/x86_64/lib/libc.a(truncate.o)
                              virtio/9p.o (truncate)
/home/ashwin/pcn_compiler_lkvm/x86_64/lib/libc.a(unlink.o)
                              kvm-ipc.o (unlink)
/home/ashwin/pcn_compiler_lkvm/x86_64/lib/libc.a(usleep.o)
                              disk/core.o (usleep)
/home/ashwin/pcn_compiler_lkvm/x86_64/lib/libc.a(write.o)
                              builtin-run.o (write)
/home/ashwin/pcn_compiler_lkvm/x86_64/lib/libc.a(writev.o)
                              term.o (writev)
/home/ashwin/pcn_compiler_lkvm/x86_64/lib/libc.a(tolower.o)
                              /home/ashwin/pcn_compiler_lkvm/x86_64/lib/libc.a(strncasecmp.o) (tolower)
/home/ashwin/pcn_compiler_lkvm/x86_64/lib/libc.a(__environ.o)
                              /home/ashwin/pcn_compiler_lkvm/x86_64/lib/libc.a(__libc_start_main.o) (__environ)
/home/ashwin/pcn_compiler_lkvm/x86_64/lib/libc.a(__init_tls.o)
                              /home/ashwin/pcn_compiler_lkvm/x86_64/lib/libc.a(pthread_create.o) (__copy_tls)
/home/ashwin/pcn_compiler_lkvm/x86_64/lib/libc.a(platform.o)
                              /home/ashwin/pcn_compiler_lkvm/x86_64/lib/libc.a(calloc.o) (popcorn_getnid)
/home/ashwin/pcn_compiler_lkvm/x86_64/lib/libc.a(_Exit.o)
                              /home/ashwin/pcn_compiler_lkvm/x86_64/lib/libc.a(exit.o) (_Exit)
/home/ashwin/pcn_compiler_lkvm/x86_64/lib/libc.a(floatscan.o)
                              /home/ashwin/pcn_compiler_lkvm/x86_64/lib/libc.a(vfscanf.o) (__floatscan)
/home/ashwin/pcn_compiler_lkvm/x86_64/lib/libc.a(intscan.o)
                              /home/ashwin/pcn_compiler_lkvm/x86_64/lib/libc.a(vfscanf.o) (__intscan)
/home/ashwin/pcn_compiler_lkvm/x86_64/lib/libc.a(procfdname.o)
                              /home/ashwin/pcn_compiler_lkvm/x86_64/lib/libc.a(realpath.o) (__procfdname)
/home/ashwin/pcn_compiler_lkvm/x86_64/lib/libc.a(shgetc.o)
                              /home/ashwin/pcn_compiler_lkvm/x86_64/lib/libc.a(vfscanf.o) (__shgetc)
/home/ashwin/pcn_compiler_lkvm/x86_64/lib/libc.a(syscall.o)
                              /home/ashwin/pcn_compiler_lkvm/x86_64/lib/libc.a(__syscall_cp.o) (__syscall)
/home/ashwin/pcn_compiler_lkvm/x86_64/lib/libc.a(expand_heap.o)
                              /home/ashwin/pcn_compiler_lkvm/x86_64/lib/libc.a(lite_malloc.o) (__expand_heap)
/home/ashwin/pcn_compiler_lkvm/x86_64/lib/libc.a(__fpclassifyl.o)
                              /home/ashwin/pcn_compiler_lkvm/x86_64/lib/libc.a(vfprintf.o) (__fpclassifyl)
/home/ashwin/pcn_compiler_lkvm/x86_64/lib/libc.a(__signbitl.o)
                              /home/ashwin/pcn_compiler_lkvm/x86_64/lib/libc.a(vfprintf.o) (__signbitl)
/home/ashwin/pcn_compiler_lkvm/x86_64/lib/libc.a(copysignl.o)
                              /home/ashwin/pcn_compiler_lkvm/x86_64/lib/libc.a(floatscan.o) (copysignl)
/home/ashwin/pcn_compiler_lkvm/x86_64/lib/libc.a(frexpl.o)
                              /home/ashwin/pcn_compiler_lkvm/x86_64/lib/libc.a(vfprintf.o) (frexpl)
/home/ashwin/pcn_compiler_lkvm/x86_64/lib/libc.a(scalbn.o)
                              /home/ashwin/pcn_compiler_lkvm/x86_64/lib/libc.a(floatscan.o) (scalbn)
/home/ashwin/pcn_compiler_lkvm/x86_64/lib/libc.a(scalbnl.o)
                              /home/ashwin/pcn_compiler_lkvm/x86_64/lib/libc.a(floatscan.o) (scalbnl)
/home/ashwin/pcn_compiler_lkvm/x86_64/lib/libc.a(fabs.o)
                              /home/ashwin/pcn_compiler_lkvm/x86_64/lib/libc.a(floatscan.o) (fabs)
/home/ashwin/pcn_compiler_lkvm/x86_64/lib/libc.a(fmodl.o)
                              /home/ashwin/pcn_compiler_lkvm/x86_64/lib/libc.a(floatscan.o) (fmodl)
/home/ashwin/pcn_compiler_lkvm/x86_64/lib/libc.a(mbrtowc.o)
                              /home/ashwin/pcn_compiler_lkvm/x86_64/lib/libc.a(vfscanf.o) (mbrtowc)
/home/ashwin/pcn_compiler_lkvm/x86_64/lib/libc.a(mbsinit.o)
                              /home/ashwin/pcn_compiler_lkvm/x86_64/lib/libc.a(vfscanf.o) (mbsinit)
/home/ashwin/pcn_compiler_lkvm/x86_64/lib/libc.a(wctomb.o)
                              /home/ashwin/pcn_compiler_lkvm/x86_64/lib/libc.a(vfprintf.o) (wctomb)
/home/ashwin/pcn_compiler_lkvm/x86_64/lib/libc.a(sigaction.o)
                              /home/ashwin/pcn_compiler_lkvm/x86_64/lib/libc.a(signal.o) (__sigaction)
/home/ashwin/pcn_compiler_lkvm/x86_64/lib/libc.a(restore.o)
                              /home/ashwin/pcn_compiler_lkvm/x86_64/lib/libc.a(sigaction.o) (__restore_rt)
/home/ashwin/pcn_compiler_lkvm/x86_64/lib/libc.a(__fdopen.o)
                              /home/ashwin/pcn_compiler_lkvm/x86_64/lib/libc.a(fopen.o) (__fdopen)
/home/ashwin/pcn_compiler_lkvm/x86_64/lib/libc.a(__fmodeflags.o)
                              /home/ashwin/pcn_compiler_lkvm/x86_64/lib/libc.a(fopen.o) (__fmodeflags)
/home/ashwin/pcn_compiler_lkvm/x86_64/lib/libc.a(__lockfile.o)
                              /home/ashwin/pcn_compiler_lkvm/x86_64/lib/libc.a(fclose.o) (__lockfile)
/home/ashwin/pcn_compiler_lkvm/x86_64/lib/libc.a(__overflow.o)
                              /home/ashwin/pcn_compiler_lkvm/x86_64/lib/libc.a(fputc.o) (__overflow)
/home/ashwin/pcn_compiler_lkvm/x86_64/lib/libc.a(__stdio_close.o)
                              /home/ashwin/pcn_compiler_lkvm/x86_64/lib/libc.a(stderr.o) (__stdio_close)
/home/ashwin/pcn_compiler_lkvm/x86_64/lib/libc.a(__stdio_read.o)
                              /home/ashwin/pcn_compiler_lkvm/x86_64/lib/libc.a(__fdopen.o) (__stdio_read)
/home/ashwin/pcn_compiler_lkvm/x86_64/lib/libc.a(__stdio_seek.o)
                              /home/ashwin/pcn_compiler_lkvm/x86_64/lib/libc.a(stderr.o) (__stdio_seek)
/home/ashwin/pcn_compiler_lkvm/x86_64/lib/libc.a(__stdio_write.o)
                              /home/ashwin/pcn_compiler_lkvm/x86_64/lib/libc.a(stderr.o) (__stdio_write)
/home/ashwin/pcn_compiler_lkvm/x86_64/lib/libc.a(__stdout_write.o)
                              /home/ashwin/pcn_compiler_lkvm/x86_64/lib/libc.a(stdout.o) (__stdout_write)
/home/ashwin/pcn_compiler_lkvm/x86_64/lib/libc.a(__string_read.o)
                              /home/ashwin/pcn_compiler_lkvm/x86_64/lib/libc.a(vsscanf.o) (__string_read)
/home/ashwin/pcn_compiler_lkvm/x86_64/lib/libc.a(__towrite.o)
                              /home/ashwin/pcn_compiler_lkvm/x86_64/lib/libc.a(__overflow.o) (__towrite)
/home/ashwin/pcn_compiler_lkvm/x86_64/lib/libc.a(__uflow.o)
                              /home/ashwin/pcn_compiler_lkvm/x86_64/lib/libc.a(fgets.o) (__uflow)
/home/ashwin/pcn_compiler_lkvm/x86_64/lib/libc.a(fputs.o)
                              /home/ashwin/pcn_compiler_lkvm/x86_64/lib/libc.a(puts.o) (fputs)
/home/ashwin/pcn_compiler_lkvm/x86_64/lib/libc.a(fwrite.o)
                              /home/ashwin/pcn_compiler_lkvm/x86_64/lib/libc.a(vfprintf.o) (__fwritex)
/home/ashwin/pcn_compiler_lkvm/x86_64/lib/libc.a(getdelim.o)
                              /home/ashwin/pcn_compiler_lkvm/x86_64/lib/libc.a(getline.o) (getdelim)
/home/ashwin/pcn_compiler_lkvm/x86_64/lib/libc.a(ofl_add.o)
                              /home/ashwin/pcn_compiler_lkvm/x86_64/lib/libc.a(__fdopen.o) (__ofl_add)
/home/ashwin/pcn_compiler_lkvm/x86_64/lib/libc.a(stpcpy.o)
                              /home/ashwin/pcn_compiler_lkvm/x86_64/lib/libc.a(strcpy.o) (__stpcpy)
/home/ashwin/pcn_compiler_lkvm/x86_64/lib/libc.a(stpncpy.o)
                              /home/ashwin/pcn_compiler_lkvm/x86_64/lib/libc.a(strncpy.o) (__stpncpy)
/home/ashwin/pcn_compiler_lkvm/x86_64/lib/libc.a(strcspn.o)
                              /home/ashwin/pcn_compiler_lkvm/x86_64/lib/libc.a(strtok.o) (strcspn)
/home/ashwin/pcn_compiler_lkvm/x86_64/lib/libc.a(mkostemps.o)
                              /home/ashwin/pcn_compiler_lkvm/x86_64/lib/libc.a(mkstemp.o) (__mkostemps)
/home/ashwin/pcn_compiler_lkvm/x86_64/lib/libc.a(__timedwait.o)
                              /home/ashwin/pcn_compiler_lkvm/x86_64/lib/libc.a(pthread_mutex_timedlock.o) (__timedwait)
/home/ashwin/pcn_compiler_lkvm/x86_64/lib/libc.a(pthread_rwlock_timedwrlock.o)
                              /home/ashwin/pcn_compiler_lkvm/x86_64/lib/libc.a(pthread_rwlock_wrlock.o) (pthread_rwlock_timedwrlock)
/home/ashwin/pcn_compiler_lkvm/x86_64/lib/libc.a(pthread_rwlock_trywrlock.o)
                              /home/ashwin/pcn_compiler_lkvm/x86_64/lib/libc.a(pthread_rwlock_timedwrlock.o) (pthread_rwlock_trywrlock)
/home/ashwin/pcn_compiler_lkvm/x86_64/lib/libc.a(__set_thread_area.o)
                              /home/ashwin/pcn_compiler_lkvm/x86_64/lib/libc.a(__init_tls.o) (__set_thread_area)
/home/ashwin/pcn_compiler_lkvm/x86_64/lib/libc.a(__secs_to_tm.o)
                              /home/ashwin/pcn_compiler_lkvm/x86_64/lib/libc.a(gmtime_r.o) (__secs_to_tm)
/home/ashwin/pcn_compiler_lkvm/x86_64/lib/libc.a(__tz.o)
                              /home/ashwin/pcn_compiler_lkvm/x86_64/lib/libc.a(gmtime_r.o) (__gmt)
/home/ashwin/pcn_compiler_lkvm/x86_64/lib/libc.a(__year_to_secs.o)
                              /home/ashwin/pcn_compiler_lkvm/x86_64/lib/libc.a(__tz.o) (__year_to_secs)
/home/ashwin/pcn_compiler_lkvm/x86_64/lib/libc.a(clock_gettime.o)
                              /home/ashwin/pcn_compiler_lkvm/x86_64/lib/libc.a(time.o) (__clock_gettime)
/home/ashwin/pcn_compiler_lkvm/x86_64/lib/libc.a(nanosleep.o)
                              /home/ashwin/pcn_compiler_lkvm/x86_64/lib/libc.a(sleep.o) (nanosleep)
/home/ashwin/pcn_compiler_lkvm/x86_64/lib/libc.a(internal.o)
                              /home/ashwin/pcn_compiler_lkvm/x86_64/lib/libc.a(mbrtowc.o) (__fsmu8)
/home/ashwin/pcn_compiler_lkvm/x86_64/lib/libc.a(wcrtomb.o)
                              /home/ashwin/pcn_compiler_lkvm/x86_64/lib/libc.a(wctomb.o) (wcrtomb)
/home/ashwin/pcn_compiler_lkvm/x86_64/lib/libc.a(__stdio_exit.o)
                              /home/ashwin/pcn_compiler_lkvm/x86_64/lib/libc.a(__towrite.o) (__stdio_exit_needed)
/home/ashwin/pcn_compiler_lkvm/x86_64/lib/libc.a(__toread.o)
                              /home/ashwin/pcn_compiler_lkvm/x86_64/lib/libc.a(__uflow.o) (__toread)
/home/ashwin/pcn_compiler_lkvm/x86_64/lib/libc.a(__randname.o)
                              /home/ashwin/pcn_compiler_lkvm/x86_64/lib/libc.a(mkostemps.o) (__randname)
/home/ashwin/pcn_compiler_lkvm/x86_64/lib/libc.a(__map_file.o)
                              /home/ashwin/pcn_compiler_lkvm/x86_64/lib/libc.a(__tz.o) (__map_file)
/home/ashwin/pcn_compiler_lkvm/x86_64/lib/libc.a(__month_to_secs.o)
                              /home/ashwin/pcn_compiler_lkvm/x86_64/lib/libc.a(__tz.o) (__month_to_secs)

Allocating common symbols
Common symbol       size              file

mal                 0x20000           /home/ashwin/pcn_compiler_lkvm/x86_64/lib/libc.a(popcorn_malloc.o)
__libc              0x70              /home/ashwin/pcn_compiler_lkvm/x86_64/lib/libc.a(libc.o)
term_fds            0x20              term.o
__hwcap             0x8               /home/ashwin/pcn_compiler_lkvm/x86_64/lib/libc.a(libc.o)
__sysinfo           0x8               /home/ashwin/pcn_compiler_lkvm/x86_64/lib/libc.a(libc.o)
irq_routing         0x8               x86/irq.o
debug_iodelay       0x4               disk/core.o

Discarded input sections

 .note.GNU-stack
                0x0000000000000000        0x0 0x1 builtin-balloon.o
 .note.GNU-stack
                0x0000000000000000        0x0 0x1 builtin-debug.o
 .note.GNU-stack
                0x0000000000000000        0x0 0x1 builtin-help.o
 .note.GNU-stack
                0x0000000000000000        0x0 0x1 builtin-list.o
 .note.GNU-stack
                0x0000000000000000        0x0 0x1 builtin-stat.o
 .note.GNU-stack
                0x0000000000000000        0x0 0x1 builtin-pause.o
 .note.GNU-stack
                0x0000000000000000        0x0 0x1 builtin-resume.o
 .note.GNU-stack
                0x0000000000000000        0x0 0x1 builtin-run.o
 .note.GNU-stack
                0x0000000000000000        0x0 0x1 builtin-setup.o
 .note.GNU-stack
                0x0000000000000000        0x0 0x1 builtin-stop.o
 .note.GNU-stack
                0x0000000000000000        0x0 0x1 builtin-version.o
 .note.GNU-stack
                0x0000000000000000        0x0 0x1 devices.o
 .note.GNU-stack
                0x0000000000000000        0x0 0x1 disk/core.o
 .note.GNU-stack
                0x0000000000000000        0x0 0x1 framebuffer.o
 .note.GNU-stack
                0x0000000000000000        0x0 0x1 guest_compat.o
 .note.GNU-stack
                0x0000000000000000        0x0 0x1 hw/rtc.o
 .note.GNU-stack
                0x0000000000000000        0x0 0x1 hw/serial.o
 .note.GNU-stack
                0x0000000000000000        0x0 0x1 x86/kvm-cpu.o
 .note.GNU-stack
                0x0000000000000000        0x0 0x1 kvm_common.o
 .note.GNU-stack
                0x0000000000000000        0x0 0x1 main.o
 .note.GNU-stack
                0x0000000000000000        0x0 0x1 pci_common.o
 .note.GNU-stack
                0x0000000000000000        0x0 0x1 term.o
 .note.GNU-stack
                0x0000000000000000        0x0 0x1 virtio/blk.o
 .note.GNU-stack
                0x0000000000000000        0x0 0x1 virtio/scsi.o
 .note.GNU-stack
                0x0000000000000000        0x0 0x1 virtio/console.o
 .note.GNU-stack
                0x0000000000000000        0x0 0x1 virtio/core.o
 .note.GNU-stack
                0x0000000000000000        0x0 0x1 virtio/net.o
 .note.GNU-stack
                0x0000000000000000        0x0 0x1 virtio/rng.o
 .note.GNU-stack
                0x0000000000000000        0x0 0x1 virtio/balloon.o
 .note.GNU-stack
                0x0000000000000000        0x0 0x1 virtio/pci.o
 .note.GNU-stack
                0x0000000000000000        0x0 0x1 disk/blk.o
 .note.GNU-stack
                0x0000000000000000        0x0 0x1 disk/qcow.o
 .note.GNU-stack
                0x0000000000000000        0x0 0x1 disk/raw.o
 .note.GNU-stack
                0x0000000000000000        0x0 0x1 ioeventfd.o
 .note.GNU-stack
                0x0000000000000000        0x0 0x1 net/uip/core.o
 .note.GNU-stack
                0x0000000000000000        0x0 0x1 net/uip/arp.o
 .note.GNU-stack
                0x0000000000000000        0x0 0x1 net/uip/icmp.o
 .note.GNU-stack
                0x0000000000000000        0x0 0x1 net/uip/ipv4.o
 .note.GNU-stack
                0x0000000000000000        0x0 0x1 net/uip/tcp.o
 .note.GNU-stack
                0x0000000000000000        0x0 0x1 net/uip/udp.o
 .note.GNU-stack
                0x0000000000000000        0x0 0x1 net/uip/buf.o
 .note.GNU-stack
                0x0000000000000000        0x0 0x1 net/uip/csum.o
 .note.GNU-stack
                0x0000000000000000        0x0 0x1 net/uip/dhcp.o
 .note.GNU-stack
                0x0000000000000000        0x0 0x1 kvm-cmd.o
 .note.GNU-stack
                0x0000000000000000        0x0 0x1 util/init.o
 .note.GNU-stack
                0x0000000000000000        0x0 0x1 util/iovec.o
 .note.GNU-stack
                0x0000000000000000        0x0 0x1 util/rbtree.o
 .note.GNU-stack
                0x0000000000000000        0x0 0x1 kvm-ipc.o
 .note.GNU-stack
                0x0000000000000000        0x0 0x1 util/read-write.o
 .note.GNU-stack
                0x0000000000000000        0x0 0x1 util/parse-options.o
 .note.GNU-stack
                0x0000000000000000        0x0 0x1 util/threadpool.o
 .note.GNU-stack
                0x0000000000000000        0x0 0x1 util/rbtree-interval.o
 .note.GNU-stack
                0x0000000000000000        0x0 0x1 util/strbuf.o
 .note.GNU-stack
                0x0000000000000000        0x0 0x1 util/util.o
 .note.GNU-stack
                0x0000000000000000        0x0 0x1 hw/pci-shmem.o
 .note.GNU-stack
                0x0000000000000000        0x0 0x1 hw/i8042.o
 .note.GNU-stack
                0x0000000000000000        0x0 0x1 virtio/9p.o
 .note.GNU-stack
                0x0000000000000000        0x0 0x1 builtin-sandbox.o
 .note.GNU-stack
                0x0000000000000000        0x0 0x1 virtio/mmio.o
 .note.GNU-stack
                0x0000000000000000        0x0 0x1 virtio/9p-pdu.o
 .note.GNU-stack
                0x0000000000000000        0x0 0x1 x86/kvm.o
 .note.GNU-stack
                0x0000000000000000        0x0 0x1 x86/boot.o
 .note.GNU-stack
                0x0000000000000000        0x0 0x1 x86/cpuid.o
 .note.GNU-stack
                0x0000000000000000        0x0 0x1 x86/interrupt.o
 .note.GNU-stack
                0x0000000000000000        0x0 0x1 x86/ioport.o
 .note.GNU-stack
                0x0000000000000000        0x0 0x1 x86/irq.o
 .note.GNU-stack
                0x0000000000000000        0x0 0x1 x86/kvm.o
 .note.GNU-stack
                0x0000000000000000        0x0 0x1 x86/mptable.o
 .note.GNU-stack
                0x0000000000000000        0x0 0x1 /home/ashwin/pcn_compiler_lkvm/x86_64/lib/crt1.o
 .note.GNU-stack
                0x0000000000000000        0x0 0x1 /home/ashwin/pcn_compiler_lkvm/x86_64/lib/libc.a(sysconf.o)
 .note.GNU-stack
                0x0000000000000000        0x0 0x1 /home/ashwin/pcn_compiler_lkvm/x86_64/lib/libc.a(closedir.o)
 .note.GNU-stack
                0x0000000000000000        0x0 0x1 /home/ashwin/pcn_compiler_lkvm/x86_64/lib/libc.a(dirfd.o)
 .note.GNU-stack
                0x0000000000000000        0x0 0x1 /home/ashwin/pcn_compiler_lkvm/x86_64/lib/libc.a(opendir.o)
 .note.GNU-stack
                0x0000000000000000        0x0 0x1 /home/ashwin/pcn_compiler_lkvm/x86_64/lib/libc.a(readdir.o)
 .note.GNU-stack
                0x0000000000000000        0x0 0x1 /home/ashwin/pcn_compiler_lkvm/x86_64/lib/libc.a(readdir_r.o)
 .note.GNU-stack
                0x0000000000000000        0x0 0x1 /home/ashwin/pcn_compiler_lkvm/x86_64/lib/libc.a(seekdir.o)
 .note.GNU-stack
                0x0000000000000000        0x0 0x1 /home/ashwin/pcn_compiler_lkvm/x86_64/lib/libc.a(__libc_start_main.o)
 .note.GNU-stack
                0x0000000000000000        0x0 0x1 /home/ashwin/pcn_compiler_lkvm/x86_64/lib/libc.a(getenv.o)
 .note.GNU-stack
                0x0000000000000000        0x0 0x1 /home/ashwin/pcn_compiler_lkvm/x86_64/lib/libc.a(__errno_location.o)
 .note.GNU-stack
                0x0000000000000000        0x0 0x1 /home/ashwin/pcn_compiler_lkvm/x86_64/lib/libc.a(strerror.o)
 .note.GNU-stack
                0x0000000000000000        0x0 0x1 /home/ashwin/pcn_compiler_lkvm/x86_64/lib/libc.a(atexit.o)
 .note.GNU-stack
                0x0000000000000000        0x0 0x1 /home/ashwin/pcn_compiler_lkvm/x86_64/lib/libc.a(exit.o)
 .note.GNU-stack
                0x0000000000000000        0x0 0x1 /home/ashwin/pcn_compiler_lkvm/x86_64/lib/libc.a(fcntl.o)
 .note.GNU-stack
                0x0000000000000000        0x0 0x1 /home/ashwin/pcn_compiler_lkvm/x86_64/lib/libc.a(open.o)
 .note.GNU-stack
                0x0000000000000000        0x0 0x1 /home/ashwin/pcn_compiler_lkvm/x86_64/lib/libc.a(libc.o)
 .note.GNU-stack
                0x0000000000000000        0x0 0x1 /home/ashwin/pcn_compiler_lkvm/x86_64/lib/libc.a(syscall_ret.o)
 .note.GNU-stack
                0x0000000000000000        0x0 0x1 /home/ashwin/pcn_compiler_lkvm/x86_64/lib/libc.a(getpagesize.o)
 .note.GNU-stack
                0x0000000000000000        0x0 0x1 /home/ashwin/pcn_compiler_lkvm/x86_64/lib/libc.a(epoll.o)
 .note.GNU-stack
                0x0000000000000000        0x0 0x1 /home/ashwin/pcn_compiler_lkvm/x86_64/lib/libc.a(eventfd.o)
 .note.GNU-stack
                0x0000000000000000        0x0 0x1 /home/ashwin/pcn_compiler_lkvm/x86_64/lib/libc.a(prctl.o)
 .note.GNU-stack
                0x0000000000000000        0x0 0x1 /home/ashwin/pcn_compiler_lkvm/x86_64/lib/libc.a(sysinfo.o)
 .note.GNU-stack
                0x0000000000000000        0x0 0x1 /home/ashwin/pcn_compiler_lkvm/x86_64/lib/libc.a(__lctrans.o)
 .note.GNU-stack
                0x0000000000000000        0x0 0x1 /home/ashwin/pcn_compiler_lkvm/x86_64/lib/libc.a(calloc.o)
 .note.GNU-stack
                0x0000000000000000        0x0 0x1 /home/ashwin/pcn_compiler_lkvm/x86_64/lib/libc.a(lite_malloc.o)
 .note.GNU-stack
                0x0000000000000000        0x0 0x1 /home/ashwin/pcn_compiler_lkvm/x86_64/lib/libc.a(malloc.o)
 .note.GNU-stack
                0x0000000000000000        0x0 0x1 /home/ashwin/pcn_compiler_lkvm/x86_64/lib/libc.a(popcorn_malloc.o)
 .note.GNU-stack
                0x0000000000000000        0x0 0x1 /home/ashwin/pcn_compiler_lkvm/x86_64/lib/libc.a(getrlimit.o)
 .note.GNU-stack
                0x0000000000000000        0x0 0x1 /home/ashwin/pcn_compiler_lkvm/x86_64/lib/libc.a(ioctl.o)
 .note.GNU-stack
                0x0000000000000000        0x0 0x1 /home/ashwin/pcn_compiler_lkvm/x86_64/lib/libc.a(mntent.o)
 .note.GNU-stack
                0x0000000000000000        0x0 0x1 /home/ashwin/pcn_compiler_lkvm/x86_64/lib/libc.a(openpty.o)
 .note.GNU-stack
                0x0000000000000000        0x0 0x1 /home/ashwin/pcn_compiler_lkvm/x86_64/lib/libc.a(realpath.o)
 .note.GNU-stack
                0x0000000000000000        0x0 0x1 /home/ashwin/pcn_compiler_lkvm/x86_64/lib/libc.a(uname.o)
 .note.GNU-stack
                0x0000000000000000        0x0 0x1 /home/ashwin/pcn_compiler_lkvm/x86_64/lib/libc.a(madvise.o)
 .note.GNU-stack
                0x0000000000000000        0x0 0x1 /home/ashwin/pcn_compiler_lkvm/x86_64/lib/libc.a(mmap.o)
 .note.GNU-stack
                0x0000000000000000        0x0 0x1 /home/ashwin/pcn_compiler_lkvm/x86_64/lib/libc.a(mprotect.o)
 .note.GNU-stack
                0x0000000000000000        0x0 0x1 /home/ashwin/pcn_compiler_lkvm/x86_64/lib/libc.a(mremap.o)
 .note.GNU-stack
                0x0000000000000000        0x0 0x1 /home/ashwin/pcn_compiler_lkvm/x86_64/lib/libc.a(munmap.o)
 .note.GNU-stack
                0x0000000000000000        0x0 0x1 /home/ashwin/pcn_compiler_lkvm/x86_64/lib/libc.a(shm_open.o)
 .note.GNU-stack
                0x0000000000000000        0x0 0x1 /home/ashwin/pcn_compiler_lkvm/x86_64/lib/libc.a(accept.o)
 .note.GNU-stack
                0x0000000000000000        0x0 0x1 /home/ashwin/pcn_compiler_lkvm/x86_64/lib/libc.a(bind.o)
 .note.GNU-stack
                0x0000000000000000        0x0 0x1 /home/ashwin/pcn_compiler_lkvm/x86_64/lib/libc.a(connect.o)
 .note.GNU-stack
                0x0000000000000000        0x0 0x1 /home/ashwin/pcn_compiler_lkvm/x86_64/lib/libc.a(htonl.o)
 .note.GNU-stack
                0x0000000000000000        0x0 0x1 /home/ashwin/pcn_compiler_lkvm/x86_64/lib/libc.a(htons.o)
 .note.GNU-stack
                0x0000000000000000        0x0 0x1 /home/ashwin/pcn_compiler_lkvm/x86_64/lib/libc.a(inet_addr.o)
 .note.GNU-stack
                0x0000000000000000        0x0 0x1 /home/ashwin/pcn_compiler_lkvm/x86_64/lib/libc.a(inet_aton.o)
 .note.GNU-stack
                0x0000000000000000        0x0 0x1 /home/ashwin/pcn_compiler_lkvm/x86_64/lib/libc.a(listen.o)
 .note.GNU-stack
                0x0000000000000000        0x0 0x1 /home/ashwin/pcn_compiler_lkvm/x86_64/lib/libc.a(ntohl.o)
 .note.GNU-stack
                0x0000000000000000        0x0 0x1 /home/ashwin/pcn_compiler_lkvm/x86_64/lib/libc.a(ntohs.o)
 .note.GNU-stack
                0x0000000000000000        0x0 0x1 /home/ashwin/pcn_compiler_lkvm/x86_64/lib/libc.a(recvfrom.o)
 .note.GNU-stack
                0x0000000000000000        0x0 0x1 /home/ashwin/pcn_compiler_lkvm/x86_64/lib/libc.a(sendto.o)
 .note.GNU-stack
                0x0000000000000000        0x0 0x1 /home/ashwin/pcn_compiler_lkvm/x86_64/lib/libc.a(shutdown.o)
 .note.GNU-stack
                0x0000000000000000        0x0 0x1 /home/ashwin/pcn_compiler_lkvm/x86_64/lib/libc.a(socket.o)
 .note.GNU-stack
                0x0000000000000000        0x0 0x1 /home/ashwin/pcn_compiler_lkvm/x86_64/lib/libc.a(execl.o)
 .note.GNU-stack
                0x0000000000000000        0x0 0x1 /home/ashwin/pcn_compiler_lkvm/x86_64/lib/libc.a(execv.o)
 .note.GNU-stack
                0x0000000000000000        0x0 0x1 /home/ashwin/pcn_compiler_lkvm/x86_64/lib/libc.a(execve.o)
 .note.GNU-stack
                0x0000000000000000        0x0 0x1 /home/ashwin/pcn_compiler_lkvm/x86_64/lib/libc.a(fork.o)
 .note.GNU-stack
                0x0000000000000000        0x0 0x1 /home/ashwin/pcn_compiler_lkvm/x86_64/lib/libc.a(waitpid.o)
 .note.GNU-stack
                0x0000000000000000        0x0 0x1 /home/ashwin/pcn_compiler_lkvm/x86_64/lib/libc.a(poll.o)
 .note.GNU-stack
                0x0000000000000000        0x0 0x1 /home/ashwin/pcn_compiler_lkvm/x86_64/lib/libc.a(select.o)
 .note.GNU-stack
                0x0000000000000000        0x0 0x1 /home/ashwin/pcn_compiler_lkvm/x86_64/lib/libc.a(block.o)
 .note.GNU-stack
                0x0000000000000000        0x0 0x1 /home/ashwin/pcn_compiler_lkvm/x86_64/lib/libc.a(raise.o)
 .note.GNU-stack
                0x0000000000000000        0x0 0x1 /home/ashwin/pcn_compiler_lkvm/x86_64/lib/libc.a(signal.o)
 .note.GNU-stack
                0x0000000000000000        0x0 0x1 /home/ashwin/pcn_compiler_lkvm/x86_64/lib/libc.a(sigrtmin.o)
 .note.GNU-stack
                0x0000000000000000        0x0 0x1 /home/ashwin/pcn_compiler_lkvm/x86_64/lib/libc.a(chmod.o)
 .note.GNU-stack
                0x0000000000000000        0x0 0x1 /home/ashwin/pcn_compiler_lkvm/x86_64/lib/libc.a(fstat.o)
 .note.GNU-stack
                0x0000000000000000        0x0 0x1 /home/ashwin/pcn_compiler_lkvm/x86_64/lib/libc.a(lstat.o)
 .note.GNU-stack
                0x0000000000000000        0x0 0x1 /home/ashwin/pcn_compiler_lkvm/x86_64/lib/libc.a(mkdir.o)
 .note.GNU-stack
                0x0000000000000000        0x0 0x1 /home/ashwin/pcn_compiler_lkvm/x86_64/lib/libc.a(mknod.o)
 .note.GNU-stack
                0x0000000000000000        0x0 0x1 /home/ashwin/pcn_compiler_lkvm/x86_64/lib/libc.a(stat.o)
 .note.GNU-stack
                0x0000000000000000        0x0 0x1 /home/ashwin/pcn_compiler_lkvm/x86_64/lib/libc.a(statvfs.o)
 .note.GNU-stack
                0x0000000000000000        0x0 0x1 /home/ashwin/pcn_compiler_lkvm/x86_64/lib/libc.a(utimensat.o)
 .note.GNU-stack
                0x0000000000000000        0x0 0x1 /home/ashwin/pcn_compiler_lkvm/x86_64/lib/libc.a(dprintf.o)
 .note.GNU-stack
                0x0000000000000000        0x0 0x1 /home/ashwin/pcn_compiler_lkvm/x86_64/lib/libc.a(fclose.o)
 .note.GNU-stack
                0x0000000000000000        0x0 0x1 /home/ashwin/pcn_compiler_lkvm/x86_64/lib/libc.a(feof.o)
 .note.GNU-stack
                0x0000000000000000        0x0 0x1 /home/ashwin/pcn_compiler_lkvm/x86_64/lib/libc.a(ferror.o)
 .note.GNU-stack
                0x0000000000000000        0x0 0x1 /home/ashwin/pcn_compiler_lkvm/x86_64/lib/libc.a(fflush.o)
 .note.GNU-stack
                0x0000000000000000        0x0 0x1 /home/ashwin/pcn_compiler_lkvm/x86_64/lib/libc.a(fgets.o)
 .note.GNU-stack
                0x0000000000000000        0x0 0x1 /home/ashwin/pcn_compiler_lkvm/x86_64/lib/libc.a(fopen.o)
 .note.GNU-stack
                0x0000000000000000        0x0 0x1 /home/ashwin/pcn_compiler_lkvm/x86_64/lib/libc.a(fprintf.o)
 .note.GNU-stack
                0x0000000000000000        0x0 0x1 /home/ashwin/pcn_compiler_lkvm/x86_64/lib/libc.a(fputc.o)
 .note.GNU-stack
                0x0000000000000000        0x0 0x1 /home/ashwin/pcn_compiler_lkvm/x86_64/lib/libc.a(fscanf.o)
 .note.GNU-stack
                0x0000000000000000        0x0 0x1 /home/ashwin/pcn_compiler_lkvm/x86_64/lib/libc.a(fseek.o)
 .note.GNU-stack
                0x0000000000000000        0x0 0x1 /home/ashwin/pcn_compiler_lkvm/x86_64/lib/libc.a(getline.o)
 .note.GNU-stack
                0x0000000000000000        0x0 0x1 /home/ashwin/pcn_compiler_lkvm/x86_64/lib/libc.a(ofl.o)
 .note.GNU-stack
                0x0000000000000000        0x0 0x1 /home/ashwin/pcn_compiler_lkvm/x86_64/lib/libc.a(perror.o)
 .note.GNU-stack
                0x0000000000000000        0x0 0x1 /home/ashwin/pcn_compiler_lkvm/x86_64/lib/libc.a(printf.o)
 .note.GNU-stack
                0x0000000000000000        0x0 0x1 /home/ashwin/pcn_compiler_lkvm/x86_64/lib/libc.a(putchar.o)
 .note.GNU-stack
                0x0000000000000000        0x0 0x1 /home/ashwin/pcn_compiler_lkvm/x86_64/lib/libc.a(puts.o)
 .note.GNU-stack
                0x0000000000000000        0x0 0x1 /home/ashwin/pcn_compiler_lkvm/x86_64/lib/libc.a(remove.o)
 .note.GNU-stack
                0x0000000000000000        0x0 0x1 /home/ashwin/pcn_compiler_lkvm/x86_64/lib/libc.a(rename.o)
 .note.GNU-stack
                0x0000000000000000        0x0 0x1 /home/ashwin/pcn_compiler_lkvm/x86_64/lib/libc.a(snprintf.o)
 .note.GNU-stack
                0x0000000000000000        0x0 0x1 /home/ashwin/pcn_compiler_lkvm/x86_64/lib/libc.a(sprintf.o)
 .note.GNU-stack
                0x0000000000000000        0x0 0x1 /home/ashwin/pcn_compiler_lkvm/x86_64/lib/libc.a(sscanf.o)
 .note.GNU-stack
                0x0000000000000000        0x0 0x1 /home/ashwin/pcn_compiler_lkvm/x86_64/lib/libc.a(stderr.o)
 .note.GNU-stack
                0x0000000000000000        0x0 0x1 /home/ashwin/pcn_compiler_lkvm/x86_64/lib/libc.a(stdout.o)
 .note.GNU-stack
                0x0000000000000000        0x0 0x1 /home/ashwin/pcn_compiler_lkvm/x86_64/lib/libc.a(vdprintf.o)
 .note.GNU-stack
                0x0000000000000000        0x0 0x1 /home/ashwin/pcn_compiler_lkvm/x86_64/lib/libc.a(vfprintf.o)
 .note.GNU-stack
                0x0000000000000000        0x0 0x1 /home/ashwin/pcn_compiler_lkvm/x86_64/lib/libc.a(vfscanf.o)
 .note.GNU-stack
                0x0000000000000000        0x0 0x1 /home/ashwin/pcn_compiler_lkvm/x86_64/lib/libc.a(vsnprintf.o)
 .note.GNU-stack
                0x0000000000000000        0x0 0x1 /home/ashwin/pcn_compiler_lkvm/x86_64/lib/libc.a(vsprintf.o)
 .note.GNU-stack
                0x0000000000000000        0x0 0x1 /home/ashwin/pcn_compiler_lkvm/x86_64/lib/libc.a(vsscanf.o)
 .note.GNU-stack
                0x0000000000000000        0x0 0x1 /home/ashwin/pcn_compiler_lkvm/x86_64/lib/libc.a(atoi.o)
 .note.GNU-stack
                0x0000000000000000        0x0 0x1 /home/ashwin/pcn_compiler_lkvm/x86_64/lib/libc.a(strtol.o)
 .note.GNU-stack
                0x0000000000000000        0x0 0x1 /home/ashwin/pcn_compiler_lkvm/x86_64/lib/libc.a(memchr.o)
 .note.GNU-stack
                0x0000000000000000        0x0 0x1 /home/ashwin/pcn_compiler_lkvm/x86_64/lib/libc.a(memcmp.o)
 .note.GNU-stack
                0x0000000000000000        0x0 0x1 /home/ashwin/pcn_compiler_lkvm/x86_64/lib/libc.a(strcasestr.o)
 .note.GNU-stack
                0x0000000000000000        0x0 0x1 /home/ashwin/pcn_compiler_lkvm/x86_64/lib/libc.a(strcat.o)
 .note.GNU-stack
                0x0000000000000000        0x0 0x1 /home/ashwin/pcn_compiler_lkvm/x86_64/lib/libc.a(strchr.o)
 .note.GNU-stack
                0x0000000000000000        0x0 0x1 /home/ashwin/pcn_compiler_lkvm/x86_64/lib/libc.a(strchrnul.o)
 .note.GNU-stack
                0x0000000000000000        0x0 0x1 /home/ashwin/pcn_compiler_lkvm/x86_64/lib/libc.a(strcmp.o)
 .note.GNU-stack
                0x0000000000000000        0x0 0x1 /home/ashwin/pcn_compiler_lkvm/x86_64/lib/libc.a(strcpy.o)
 .note.GNU-stack
                0x0000000000000000        0x0 0x1 /home/ashwin/pcn_compiler_lkvm/x86_64/lib/libc.a(strdup.o)
 .note.GNU-stack
                0x0000000000000000        0x0 0x1 /home/ashwin/pcn_compiler_lkvm/x86_64/lib/libc.a(strlen.o)
 .note.GNU-stack
                0x0000000000000000        0x0 0x1 /home/ashwin/pcn_compiler_lkvm/x86_64/lib/libc.a(strncasecmp.o)
 .note.GNU-stack
                0x0000000000000000        0x0 0x1 /home/ashwin/pcn_compiler_lkvm/x86_64/lib/libc.a(strncmp.o)
 .note.GNU-stack
                0x0000000000000000        0x0 0x1 /home/ashwin/pcn_compiler_lkvm/x86_64/lib/libc.a(strncpy.o)
 .note.GNU-stack
                0x0000000000000000        0x0 0x1 /home/ashwin/pcn_compiler_lkvm/x86_64/lib/libc.a(strndup.o)
 .note.GNU-stack
                0x0000000000000000        0x0 0x1 /home/ashwin/pcn_compiler_lkvm/x86_64/lib/libc.a(strnlen.o)
 .note.GNU-stack
                0x0000000000000000        0x0 0x1 /home/ashwin/pcn_compiler_lkvm/x86_64/lib/libc.a(strspn.o)
 .note.GNU-stack
                0x0000000000000000        0x0 0x1 /home/ashwin/pcn_compiler_lkvm/x86_64/lib/libc.a(strstr.o)
 .note.GNU-stack
                0x0000000000000000        0x0 0x1 /home/ashwin/pcn_compiler_lkvm/x86_64/lib/libc.a(strtok.o)
 .note.GNU-stack
                0x0000000000000000        0x0 0x1 /home/ashwin/pcn_compiler_lkvm/x86_64/lib/libc.a(memcpy.o)
 .note.GNU-stack
                0x0000000000000000        0x0 0x1 /home/ashwin/pcn_compiler_lkvm/x86_64/lib/libc.a(memmove.o)
 .note.GNU-stack
                0x0000000000000000        0x0 0x1 /home/ashwin/pcn_compiler_lkvm/x86_64/lib/libc.a(memset.o)
 .note.GNU-stack
                0x0000000000000000        0x0 0x1 /home/ashwin/pcn_compiler_lkvm/x86_64/lib/libc.a(mkstemp.o)
 .note.GNU-stack
                0x0000000000000000        0x0 0x1 /home/ashwin/pcn_compiler_lkvm/x86_64/lib/libc.a(tcgetattr.o)
 .note.GNU-stack
                0x0000000000000000        0x0 0x1 /home/ashwin/pcn_compiler_lkvm/x86_64/lib/libc.a(tcsetattr.o)
 .note.GNU-stack
                0x0000000000000000        0x0 0x1 /home/ashwin/pcn_compiler_lkvm/x86_64/lib/libc.a(__lock.o)
 .note.GNU-stack
                0x0000000000000000        0x0 0x1 /home/ashwin/pcn_compiler_lkvm/x86_64/lib/libc.a(__syscall_cp.o)
 .note.GNU-stack
                0x0000000000000000        0x0 0x1 /home/ashwin/pcn_compiler_lkvm/x86_64/lib/libc.a(__wait.o)
 .note.GNU-stack
                0x0000000000000000        0x0 0x1 /home/ashwin/pcn_compiler_lkvm/x86_64/lib/libc.a(pthread_cleanup_push.o)
 .note.GNU-stack
                0x0000000000000000        0x0 0x1 /home/ashwin/pcn_compiler_lkvm/x86_64/lib/libc.a(pthread_cond_init.o)
 .note.GNU-stack
                0x0000000000000000        0x0 0x1 /home/ashwin/pcn_compiler_lkvm/x86_64/lib/libc.a(pthread_cond_signal.o)
 .note.GNU-stack
                0x0000000000000000        0x0 0x1 /home/ashwin/pcn_compiler_lkvm/x86_64/lib/libc.a(pthread_cond_timedwait.o)
 .note.GNU-stack
                0x0000000000000000        0x0 0x1 /home/ashwin/pcn_compiler_lkvm/x86_64/lib/libc.a(pthread_cond_wait.o)
 .note.GNU-stack
                0x0000000000000000        0x0 0x1 /home/ashwin/pcn_compiler_lkvm/x86_64/lib/libc.a(pthread_create.o)
 .note.GNU-stack
                0x0000000000000000        0x0 0x1 /home/ashwin/pcn_compiler_lkvm/x86_64/lib/libc.a(pthread_join.o)
 .note.GNU-stack
                0x0000000000000000        0x0 0x1 /home/ashwin/pcn_compiler_lkvm/x86_64/lib/libc.a(pthread_kill.o)
 .note.GNU-stack
                0x0000000000000000        0x0 0x1 /home/ashwin/pcn_compiler_lkvm/x86_64/lib/libc.a(pthread_mutex_init.o)
 .note.GNU-stack
                0x0000000000000000        0x0 0x1 /home/ashwin/pcn_compiler_lkvm/x86_64/lib/libc.a(pthread_mutex_lock.o)
 .note.GNU-stack
                0x0000000000000000        0x0 0x1 /home/ashwin/pcn_compiler_lkvm/x86_64/lib/libc.a(pthread_mutex_timedlock.o)
 .note.GNU-stack
                0x0000000000000000        0x0 0x1 /home/ashwin/pcn_compiler_lkvm/x86_64/lib/libc.a(pthread_mutex_trylock.o)
 .note.GNU-stack
                0x0000000000000000        0x0 0x1 /home/ashwin/pcn_compiler_lkvm/x86_64/lib/libc.a(pthread_mutex_unlock.o)
 .note.GNU-stack
                0x0000000000000000        0x0 0x1 /home/ashwin/pcn_compiler_lkvm/x86_64/lib/libc.a(pthread_rwlock_rdlock.o)
 .note.GNU-stack
                0x0000000000000000        0x0 0x1 /home/ashwin/pcn_compiler_lkvm/x86_64/lib/libc.a(pthread_rwlock_timedrdlock.o)
 .note.GNU-stack
                0x0000000000000000        0x0 0x1 /home/ashwin/pcn_compiler_lkvm/x86_64/lib/libc.a(pthread_rwlock_tryrdlock.o)
 .note.GNU-stack
                0x0000000000000000        0x0 0x1 /home/ashwin/pcn_compiler_lkvm/x86_64/lib/libc.a(pthread_rwlock_unlock.o)
 .note.GNU-stack
                0x0000000000000000        0x0 0x1 /home/ashwin/pcn_compiler_lkvm/x86_64/lib/libc.a(pthread_rwlock_wrlock.o)
 .note.GNU-stack
                0x0000000000000000        0x0 0x1 /home/ashwin/pcn_compiler_lkvm/x86_64/lib/libc.a(pthread_setcancelstate.o)
 .note.GNU-stack
                0x0000000000000000        0x0 0x1 /home/ashwin/pcn_compiler_lkvm/x86_64/lib/libc.a(pthread_testcancel.o)
 .note.GNU-stack
                0x0000000000000000        0x0 0x1 /home/ashwin/pcn_compiler_lkvm/x86_64/lib/libc.a(vmlock.o)
 .note.GNU-stack
                0x0000000000000000        0x0 0x1 /home/ashwin/pcn_compiler_lkvm/x86_64/lib/libc.a(__cleartid_exit_nostack.o)
 .note.GNU-stack
                0x0000000000000000        0x0 0x1 /home/ashwin/pcn_compiler_lkvm/x86_64/lib/libc.a(__unmapself.o)
 .note.GNU-stack
                0x0000000000000000        0x0 0x1 /home/ashwin/pcn_compiler_lkvm/x86_64/lib/libc.a(clone.o)
 .note.GNU-stack
                0x0000000000000000        0x0 0x1 /home/ashwin/pcn_compiler_lkvm/x86_64/lib/libc.a(gmtime.o)
 .note.GNU-stack
                0x0000000000000000        0x0 0x1 /home/ashwin/pcn_compiler_lkvm/x86_64/lib/libc.a(gmtime_r.o)
 .note.GNU-stack
                0x0000000000000000        0x0 0x1 /home/ashwin/pcn_compiler_lkvm/x86_64/lib/libc.a(time.o)
 .note.GNU-stack
                0x0000000000000000        0x0 0x1 /home/ashwin/pcn_compiler_lkvm/x86_64/lib/libc.a(_exit.o)
 .note.GNU-stack
                0x0000000000000000        0x0 0x1 /home/ashwin/pcn_compiler_lkvm/x86_64/lib/libc.a(access.o)
 .note.GNU-stack
                0x0000000000000000        0x0 0x1 /home/ashwin/pcn_compiler_lkvm/x86_64/lib/libc.a(close.o)
 .note.GNU-stack
                0x0000000000000000        0x0 0x1 /home/ashwin/pcn_compiler_lkvm/x86_64/lib/libc.a(fdatasync.o)
 .note.GNU-stack
                0x0000000000000000        0x0 0x1 /home/ashwin/pcn_compiler_lkvm/x86_64/lib/libc.a(fsync.o)
 .note.GNU-stack
                0x0000000000000000        0x0 0x1 /home/ashwin/pcn_compiler_lkvm/x86_64/lib/libc.a(ftruncate.o)
 .note.GNU-stack
                0x0000000000000000        0x0 0x1 /home/ashwin/pcn_compiler_lkvm/x86_64/lib/libc.a(getpid.o)
 .note.GNU-stack
                0x0000000000000000        0x0 0x1 /home/ashwin/pcn_compiler_lkvm/x86_64/lib/libc.a(isatty.o)
 .note.GNU-stack
                0x0000000000000000        0x0 0x1 /home/ashwin/pcn_compiler_lkvm/x86_64/lib/libc.a(lchown.o)
 .note.GNU-stack
                0x0000000000000000        0x0 0x1 /home/ashwin/pcn_compiler_lkvm/x86_64/lib/libc.a(link.o)
 .note.GNU-stack
                0x0000000000000000        0x0 0x1 /home/ashwin/pcn_compiler_lkvm/x86_64/lib/libc.a(lseek.o)
 .note.GNU-stack
                0x0000000000000000        0x0 0x1 /home/ashwin/pcn_compiler_lkvm/x86_64/lib/libc.a(pread.o)
 .note.GNU-stack
                0x0000000000000000        0x0 0x1 /home/ashwin/pcn_compiler_lkvm/x86_64/lib/libc.a(preadv.o)
 .note.GNU-stack
                0x0000000000000000        0x0 0x1 /home/ashwin/pcn_compiler_lkvm/x86_64/lib/libc.a(pwrite.o)
 .note.GNU-stack
                0x0000000000000000        0x0 0x1 /home/ashwin/pcn_compiler_lkvm/x86_64/lib/libc.a(pwritev.o)
 .note.GNU-stack
                0x0000000000000000        0x0 0x1 /home/ashwin/pcn_compiler_lkvm/x86_64/lib/libc.a(read.o)
 .note.GNU-stack
                0x0000000000000000        0x0 0x1 /home/ashwin/pcn_compiler_lkvm/x86_64/lib/libc.a(readlink.o)
 .note.GNU-stack
                0x0000000000000000        0x0 0x1 /home/ashwin/pcn_compiler_lkvm/x86_64/lib/libc.a(readv.o)
 .note.GNU-stack
                0x0000000000000000        0x0 0x1 /home/ashwin/pcn_compiler_lkvm/x86_64/lib/libc.a(sleep.o)
 .note.GNU-stack
                0x0000000000000000        0x0 0x1 /home/ashwin/pcn_compiler_lkvm/x86_64/lib/libc.a(symlink.o)
 .note.GNU-stack
                0x0000000000000000        0x0 0x1 /home/ashwin/pcn_compiler_lkvm/x86_64/lib/libc.a(truncate.o)
 .note.GNU-stack
                0x0000000000000000        0x0 0x1 /home/ashwin/pcn_compiler_lkvm/x86_64/lib/libc.a(unlink.o)
 .note.GNU-stack
                0x0000000000000000        0x0 0x1 /home/ashwin/pcn_compiler_lkvm/x86_64/lib/libc.a(usleep.o)
 .note.GNU-stack
                0x0000000000000000        0x0 0x1 /home/ashwin/pcn_compiler_lkvm/x86_64/lib/libc.a(write.o)
 .note.GNU-stack
                0x0000000000000000        0x0 0x1 /home/ashwin/pcn_compiler_lkvm/x86_64/lib/libc.a(writev.o)
 .note.GNU-stack
                0x0000000000000000        0x0 0x1 /home/ashwin/pcn_compiler_lkvm/x86_64/lib/libc.a(tolower.o)
 .note.GNU-stack
                0x0000000000000000        0x0 0x1 /home/ashwin/pcn_compiler_lkvm/x86_64/lib/libc.a(__environ.o)
 .note.GNU-stack
                0x0000000000000000        0x0 0x1 /home/ashwin/pcn_compiler_lkvm/x86_64/lib/libc.a(__init_tls.o)
 .note.GNU-stack
                0x0000000000000000        0x0 0x1 /home/ashwin/pcn_compiler_lkvm/x86_64/lib/libc.a(platform.o)
 .note.GNU-stack
                0x0000000000000000        0x0 0x1 /home/ashwin/pcn_compiler_lkvm/x86_64/lib/libc.a(_Exit.o)
 .note.GNU-stack
                0x0000000000000000        0x0 0x1 /home/ashwin/pcn_compiler_lkvm/x86_64/lib/libc.a(floatscan.o)
 .note.GNU-stack
                0x0000000000000000        0x0 0x1 /home/ashwin/pcn_compiler_lkvm/x86_64/lib/libc.a(intscan.o)
 .note.GNU-stack
                0x0000000000000000        0x0 0x1 /home/ashwin/pcn_compiler_lkvm/x86_64/lib/libc.a(procfdname.o)
 .note.GNU-stack
                0x0000000000000000        0x0 0x1 /home/ashwin/pcn_compiler_lkvm/x86_64/lib/libc.a(shgetc.o)
 .note.GNU-stack
                0x0000000000000000        0x0 0x1 /home/ashwin/pcn_compiler_lkvm/x86_64/lib/libc.a(syscall.o)
 .note.GNU-stack
                0x0000000000000000        0x0 0x1 /home/ashwin/pcn_compiler_lkvm/x86_64/lib/libc.a(expand_heap.o)
 .note.GNU-stack
                0x0000000000000000        0x0 0x1 /home/ashwin/pcn_compiler_lkvm/x86_64/lib/libc.a(__fpclassifyl.o)
 .note.GNU-stack
                0x0000000000000000        0x0 0x1 /home/ashwin/pcn_compiler_lkvm/x86_64/lib/libc.a(__signbitl.o)
 .note.GNU-stack
                0x0000000000000000        0x0 0x1 /home/ashwin/pcn_compiler_lkvm/x86_64/lib/libc.a(copysignl.o)
 .note.GNU-stack
                0x0000000000000000        0x0 0x1 /home/ashwin/pcn_compiler_lkvm/x86_64/lib/libc.a(frexpl.o)
 .note.GNU-stack
                0x0000000000000000        0x0 0x1 /home/ashwin/pcn_compiler_lkvm/x86_64/lib/libc.a(scalbn.o)
 .note.GNU-stack
                0x0000000000000000        0x0 0x1 /home/ashwin/pcn_compiler_lkvm/x86_64/lib/libc.a(scalbnl.o)
 .note.GNU-stack
                0x0000000000000000        0x0 0x1 /home/ashwin/pcn_compiler_lkvm/x86_64/lib/libc.a(fabs.o)
 .note.GNU-stack
                0x0000000000000000        0x0 0x1 /home/ashwin/pcn_compiler_lkvm/x86_64/lib/libc.a(fmodl.o)
 .note.GNU-stack
                0x0000000000000000        0x0 0x1 /home/ashwin/pcn_compiler_lkvm/x86_64/lib/libc.a(mbrtowc.o)
 .note.GNU-stack
                0x0000000000000000        0x0 0x1 /home/ashwin/pcn_compiler_lkvm/x86_64/lib/libc.a(mbsinit.o)
 .note.GNU-stack
                0x0000000000000000        0x0 0x1 /home/ashwin/pcn_compiler_lkvm/x86_64/lib/libc.a(wctomb.o)
 .note.GNU-stack
                0x0000000000000000        0x0 0x1 /home/ashwin/pcn_compiler_lkvm/x86_64/lib/libc.a(sigaction.o)
 .note.GNU-stack
                0x0000000000000000        0x0 0x1 /home/ashwin/pcn_compiler_lkvm/x86_64/lib/libc.a(restore.o)
 .note.GNU-stack
                0x0000000000000000        0x0 0x1 /home/ashwin/pcn_compiler_lkvm/x86_64/lib/libc.a(__fdopen.o)
 .note.GNU-stack
                0x0000000000000000        0x0 0x1 /home/ashwin/pcn_compiler_lkvm/x86_64/lib/libc.a(__fmodeflags.o)
 .note.GNU-stack
                0x0000000000000000        0x0 0x1 /home/ashwin/pcn_compiler_lkvm/x86_64/lib/libc.a(__lockfile.o)
 .note.GNU-stack
                0x0000000000000000        0x0 0x1 /home/ashwin/pcn_compiler_lkvm/x86_64/lib/libc.a(__overflow.o)
 .note.GNU-stack
                0x0000000000000000        0x0 0x1 /home/ashwin/pcn_compiler_lkvm/x86_64/lib/libc.a(__stdio_close.o)
 .note.GNU-stack
                0x0000000000000000        0x0 0x1 /home/ashwin/pcn_compiler_lkvm/x86_64/lib/libc.a(__stdio_read.o)
 .note.GNU-stack
                0x0000000000000000        0x0 0x1 /home/ashwin/pcn_compiler_lkvm/x86_64/lib/libc.a(__stdio_seek.o)
 .note.GNU-stack
                0x0000000000000000        0x0 0x1 /home/ashwin/pcn_compiler_lkvm/x86_64/lib/libc.a(__stdio_write.o)
 .note.GNU-stack
                0x0000000000000000        0x0 0x1 /home/ashwin/pcn_compiler_lkvm/x86_64/lib/libc.a(__stdout_write.o)
 .note.GNU-stack
                0x0000000000000000        0x0 0x1 /home/ashwin/pcn_compiler_lkvm/x86_64/lib/libc.a(__string_read.o)
 .note.GNU-stack
                0x0000000000000000        0x0 0x1 /home/ashwin/pcn_compiler_lkvm/x86_64/lib/libc.a(__towrite.o)
 .note.GNU-stack
                0x0000000000000000        0x0 0x1 /home/ashwin/pcn_compiler_lkvm/x86_64/lib/libc.a(__uflow.o)
 .note.GNU-stack
                0x0000000000000000        0x0 0x1 /home/ashwin/pcn_compiler_lkvm/x86_64/lib/libc.a(fputs.o)
 .note.GNU-stack
                0x0000000000000000        0x0 0x1 /home/ashwin/pcn_compiler_lkvm/x86_64/lib/libc.a(fwrite.o)
 .note.GNU-stack
                0x0000000000000000        0x0 0x1 /home/ashwin/pcn_compiler_lkvm/x86_64/lib/libc.a(getdelim.o)
 .note.GNU-stack
                0x0000000000000000        0x0 0x1 /home/ashwin/pcn_compiler_lkvm/x86_64/lib/libc.a(ofl_add.o)
 .note.GNU-stack
                0x0000000000000000        0x0 0x1 /home/ashwin/pcn_compiler_lkvm/x86_64/lib/libc.a(stpcpy.o)
 .note.GNU-stack
                0x0000000000000000        0x0 0x1 /home/ashwin/pcn_compiler_lkvm/x86_64/lib/libc.a(stpncpy.o)
 .note.GNU-stack
                0x0000000000000000        0x0 0x1 /home/ashwin/pcn_compiler_lkvm/x86_64/lib/libc.a(strcspn.o)
 .note.GNU-stack
                0x0000000000000000        0x0 0x1 /home/ashwin/pcn_compiler_lkvm/x86_64/lib/libc.a(mkostemps.o)
 .note.GNU-stack
                0x0000000000000000        0x0 0x1 /home/ashwin/pcn_compiler_lkvm/x86_64/lib/libc.a(__timedwait.o)
 .note.GNU-stack
                0x0000000000000000        0x0 0x1 /home/ashwin/pcn_compiler_lkvm/x86_64/lib/libc.a(pthread_rwlock_timedwrlock.o)
 .note.GNU-stack
                0x0000000000000000        0x0 0x1 /home/ashwin/pcn_compiler_lkvm/x86_64/lib/libc.a(pthread_rwlock_trywrlock.o)
 .note.GNU-stack
                0x0000000000000000        0x0 0x1 /home/ashwin/pcn_compiler_lkvm/x86_64/lib/libc.a(__set_thread_area.o)
 .note.GNU-stack
                0x0000000000000000        0x0 0x1 /home/ashwin/pcn_compiler_lkvm/x86_64/lib/libc.a(__secs_to_tm.o)
 .note.GNU-stack
                0x0000000000000000        0x0 0x1 /home/ashwin/pcn_compiler_lkvm/x86_64/lib/libc.a(__tz.o)
 .note.GNU-stack
                0x0000000000000000        0x0 0x1 /home/ashwin/pcn_compiler_lkvm/x86_64/lib/libc.a(__year_to_secs.o)
 .note.GNU-stack
                0x0000000000000000        0x0 0x1 /home/ashwin/pcn_compiler_lkvm/x86_64/lib/libc.a(clock_gettime.o)
 .note.GNU-stack
                0x0000000000000000        0x0 0x1 /home/ashwin/pcn_compiler_lkvm/x86_64/lib/libc.a(nanosleep.o)
 .note.GNU-stack
                0x0000000000000000        0x0 0x1 /home/ashwin/pcn_compiler_lkvm/x86_64/lib/libc.a(internal.o)
 .note.GNU-stack
                0x0000000000000000        0x0 0x1 /home/ashwin/pcn_compiler_lkvm/x86_64/lib/libc.a(wcrtomb.o)
 .note.GNU-stack
                0x0000000000000000        0x0 0x1 /home/ashwin/pcn_compiler_lkvm/x86_64/lib/libc.a(__stdio_exit.o)
 .note.GNU-stack
                0x0000000000000000        0x0 0x1 /home/ashwin/pcn_compiler_lkvm/x86_64/lib/libc.a(__toread.o)
 .note.GNU-stack
                0x0000000000000000        0x0 0x1 /home/ashwin/pcn_compiler_lkvm/x86_64/lib/libc.a(__randname.o)
 .note.GNU-stack
                0x0000000000000000        0x0 0x1 /home/ashwin/pcn_compiler_lkvm/x86_64/lib/libc.a(__map_file.o)
 .note.GNU-stack
                0x0000000000000000        0x0 0x1 /home/ashwin/pcn_compiler_lkvm/x86_64/lib/libc.a(__month_to_secs.o)

Memory map

 ** file header
                0x0000000000400000       0x40
 ** segment headers
                0x0000000000400040      0x150

.note.gnu.build-id
                0x0000000000400190       0x24
 ** note header
                0x0000000000400190       0x10
 ** zero fill   0x00000000004001a0       0x14

.text           0x00000000004001c0    0x3e168
 .text.exit     0x00000000004001c0       0x1d 0x1 /home/ashwin/pcn_compiler_lkvm/x86_64/lib/libc.a(exit.o)
                0x00000000004001c0                exit
 .text          0x00000000004001e0      0x19c 0x10 builtin-balloon.o
                0x00000000004001e0                kvm_balloon_help
                0x0000000000400200                kvm_cmd_balloon
 ** fill        0x000000000040037c        0x4
 .text          0x0000000000400380      0x296 0x10 builtin-debug.o
                0x00000000004003a0                kvm_cmd_debug
                0x0000000000400380                kvm_debug_help
 ** fill        0x0000000000400616        0xa
 .text          0x0000000000400620      0x244 0x10 builtin-help.o
                0x0000000000400620                kvm_cmd_help
 ** fill        0x0000000000400864        0xc
 .text          0x0000000000400870      0x42b 0x10 builtin-list.o
                0x0000000000400890                get_vmstate
                0x0000000000400900                kvm_cmd_list
                0x0000000000400870                kvm_list_help
 ** fill        0x0000000000400c9b        0x5
 .text          0x0000000000400ca0      0x435 0x10 builtin-stat.o
                0x0000000000400cc0                kvm_cmd_stat
                0x0000000000400ca0                kvm_stat_help
 ** fill        0x00000000004010d5        0xb
 .text          0x00000000004010e0      0x1d4 0x10 builtin-pause.o
                0x0000000000401100                kvm_cmd_pause
                0x00000000004010e0                kvm_pause_help
 ** fill        0x00000000004012b4        0xc
 .text          0x00000000004012c0      0x1d4 0x10 builtin-resume.o
                0x00000000004012e0                kvm_cmd_resume
                0x00000000004012c0                kvm_resume_help
 ** fill        0x0000000000401494        0xc
 .text          0x00000000004014a0     0x3b12 0x10 builtin-run.o
                0x00000000004026d0                kvm_cmd_run
                0x00000000004014c0                kvm_run_help
                0x00000000004014a0                kvm_run_set_wrapper_sandbox
 ** fill        0x0000000000404fb2        0xe
 .text          0x0000000000404fc0      0x879 0x10 builtin-setup.o
                0x0000000000405340                kvm_cmd_setup
                0x0000000000405240                kvm_setup_create_new
                0x0000000000404fc0                kvm_setup_help
                0x0000000000405010                kvm_setup_resolv
 ** fill        0x0000000000405839        0x7
 .text          0x0000000000405840      0x152 0x10 builtin-stop.o
                0x0000000000405860                kvm_cmd_stop
                0x0000000000405840                kvm_stop_help
 ** fill        0x0000000000405992        0xe
 .text          0x00000000004059a0       0x3b 0x10 builtin-version.o
                0x00000000004059a0                kvm_cmd_version
 ** fill        0x00000000004059db        0x5
 .text          0x00000000004059e0      0x437 0x10 devices.o
                0x0000000000405c10                device__find_dev
                0x0000000000405d10                device__first_dev
                0x0000000000405db0                device__next_dev
                0x00000000004059e0                device__register
                0x0000000000405bc0                device__unregister
 ** fill        0x0000000000405e17        0x9
 .text          0x0000000000405e20      0xe01 0x10 disk/core.o
                0x00000000004068d0                disk_image__exit
                0x0000000000406200                disk_image__flush
                0x0000000000406450                disk_image__get_serial
                0x0000000000406510                disk_image__init
                0x00000000004060a0                disk_image__new
                0x0000000000406250                disk_image__read
                0x00000000004064f0                disk_image__set_callback
                0x0000000000406360                disk_image__write
                0x0000000000405e20                disk_img_name_parser
 ** fill        0x0000000000406c21        0xf
 .text          0x0000000000406c30      0x3c0 0x10 framebuffer.o
                0x0000000000406cd0                fb__attach
                0x0000000000406ea0                fb__exit
                0x0000000000406d30                fb__init
                0x0000000000406c30                fb__register
 .text          0x0000000000406ff0      0x4c5 0x10 guest_compat.o
                0x0000000000406ff0                compat__add_message
                0x0000000000407360                compat__print_all_messages
                0x00000000004071e0                compat__remove_message
 ** fill        0x00000000004074b5        0xb
 .text          0x00000000004074c0      0x4b0 0x10 hw/rtc.o
                0x00000000004075a0                rtc__exit
                0x00000000004074c0                rtc__init
 .text          0x0000000000407970      0xcb1 0x10 hw/serial.o
                0x0000000000407f30                serial8250__exit
                0x0000000000407db0                serial8250__init
                0x0000000000407d90                serial8250__inject_sysrq
                0x0000000000407970                serial8250__update_consoles
 ** fill        0x0000000000408621        0xf
 .text          0x0000000000408630     0x1ab1 0x10 x86/kvm-cpu.o
                0x00000000004086b0                kvm_cpu__arch_init
                0x0000000000409fc0                kvm_cpu__arch_nmi
                0x0000000000408660                kvm_cpu__delete
                0x0000000000408650                kvm_cpu__get_debug_fd
                0x00000000004090f0                kvm_cpu__handle_exit
                0x0000000000408950                kvm_cpu__reset_vcpu
                0x0000000000408630                kvm_cpu__set_debug_fd
                0x0000000000409830                kvm_cpu__show_code
                0x0000000000409d20                kvm_cpu__show_page_tables
                0x0000000000409110                kvm_cpu__show_registers
 ** fill        0x000000000040a0e1        0xf
 .text          0x000000000040a0f0     0x13c0 0x10 kvm_common.o
                0x000000000040a6b0                guest_flat_to_host
                0x000000000040a7a0                host_to_guest_flat
                0x000000000040b330                kvm__continue
                0x000000000040afd0                kvm__dump_mem
                0x000000000040a3f0                kvm__exit
                0x000000000040a300                kvm__get_dir
                0x000000000040a930                kvm__init
                0x000000000040ad30                kvm__load_kernel
                0x000000000040a8e0                kvm__max_cpus
                0x000000000040a370                kvm__new
                0x000000000040b3d0                kvm__notify_paused
                0x000000000040b1a0                kvm__pause
                0x000000000040a890                kvm__recommended_cpus
                0x000000000040a520                kvm__register_mem
                0x000000000040a0f0                kvm__set_dir
                0x000000000040a310                kvm__supports_extension
                0x000000000040aee0                load_elf_binary
 .text          0x000000000040b4b0       0x9b 0x10 main.o
                0x000000000040b4b0                main
 ** fill        0x000000000040b54b        0x5
 .text          0x000000000040b550      0x7c1 0x10 pci_common.o
                0x000000000040b590                pci__assign_irq
                0x000000000040b7c0                pci__config_rd
                0x000000000040b5d0                pci__config_wr
                0x000000000040bad0                pci__exit
                0x000000000040b880                pci__find_dev
                0x000000000040b920                pci__init
                0x000000000040b550                pci_get_io_space_block
 ** fill        0x000000000040bd11        0xf
 .text          0x000000000040bd20      0x6b2 0x10 term.o
                0x000000000040c370                term_exit
                0x000000000040bd20                term_getc
                0x000000000040be80                term_getc_iov
                0x000000000040c070                term_init
                0x000000000040bdf0                term_putc
                0x000000000040bee0                term_putc_iov
                0x000000000040bf10                term_readable
                0x000000000040bf80                term_set_tty
                0x000000000040c040                tty_parser
 ** fill        0x000000000040c3d2        0xe
 .text          0x000000000040c3e0      0xe55 0x10 virtio/blk.o
                0x000000000040c8c0                virtio_blk__exit
                0x000000000040c5a0                virtio_blk__init
                0x000000000040c3e0                virtio_blk_complete
 ** fill        0x000000000040d235        0xb
 .text          0x000000000040d240      0xcb5 0x10 virtio/scsi.o
                0x000000000040d520                virtio_scsi_exit
                0x000000000040d240                virtio_scsi_init
 ** fill        0x000000000040def5        0xb
 .text          0x000000000040df00      0x995 0x10 virtio/console.o
                0x000000000040e1b0                virtio_console__exit
                0x000000000040e0b0                virtio_console__init
                0x000000000040df00                virtio_console__inject_interrupt
 ** fill        0x000000000040e895        0xb
 .text          0x000000000040e8a0      0xa0d 0x10 virtio/core.o
                0x000000000040e990                virt_queue__get_head_iov
                0x000000000040ecd0                virt_queue__get_inout_iov
                0x000000000040ec20                virt_queue__get_iov
                0x000000000040e900                virt_queue__set_used_elem
                0x000000000040ee90                virtio__get_dev_specific_field
                0x000000000040f1d0                virtio_compat_add_message
                0x000000000040efd0                virtio_init
                0x000000000040eef0                virtio_queue__should_signal
                0x000000000040e8a0                virtio_trans_name
 ** fill        0x000000000040f2ad        0x3
 .text          0x000000000040f2b0     0x2e21 0x10 virtio/net.o
                0x000000000040f2b0                netdev_parser
                0x0000000000410010                virtio_net__exit
                0x000000000040f9f0                virtio_net__init
 ** fill        0x00000000004120d1        0xf
 .text          0x00000000004120e0      0x985 0x10 virtio/rng.o
                0x00000000004122a0                virtio_rng__exit
                0x00000000004120e0                virtio_rng__init
 ** fill        0x0000000000412a65        0xb
 .text          0x0000000000412a70      0xc8b 0x10 virtio/balloon.o
                0x0000000000413000                virtio_bln__exit
                0x0000000000412c90                virtio_bln__init
 ** fill        0x00000000004136fb        0x5
 .text          0x0000000000413700     0x14b4 0x10 virtio/pci.o
                0x0000000000414010                virtio_pci__exit
                0x0000000000413a50                virtio_pci__init
                0x0000000000413920                virtio_pci__signal_config
                0x0000000000413700                virtio_pci__signal_vq
 ** fill        0x0000000000414bb4        0xc
 .text          0x0000000000414bc0      0x22a 0x10 disk/blk.o
                0x0000000000414bc0                blkdev__probe
 ** fill        0x0000000000414dea        0x6
 .text          0x0000000000414df0     0x48d5 0x10 disk/qcow.o
                0x0000000000414df0                qcow_probe
 ** fill        0x00000000004196c5        0xb
 .text          0x00000000004196d0      0x382 0x10 disk/raw.o
                0x00000000004198f0                raw_image__close
                0x0000000000419950                raw_image__probe
                0x00000000004196d0                raw_image__read
                0x0000000000419770                raw_image__read_mmap
                0x0000000000419720                raw_image__write
                0x0000000000419830                raw_image__write_mmap
 ** fill        0x0000000000419a52        0xe
 .text          0x0000000000419a60      0x8f5 0x10 ioeventfd.o
                0x0000000000419cf0                ioeventfd__add_event
                0x0000000000419f40                ioeventfd__del_event
                0x0000000000419c00                ioeventfd__exit
                0x0000000000419a60                ioeventfd__init
 ** fill        0x000000000041a355        0xb
 .text          0x000000000041a360      0x5e0 0x10 net/uip/core.o
                0x000000000041a750                uip_init
                0x000000000041a570                uip_rx
                0x000000000041a610                uip_static_init
                0x000000000041a360                uip_tx
 .text          0x000000000041a940       0xd8 0x10 net/uip/arp.o
                0x000000000041a940                uip_tx_do_arp
 ** fill        0x000000000041aa18        0x8
 .text          0x000000000041aa20       0xb6 0x10 net/uip/icmp.o
                0x000000000041aa20                uip_tx_do_ipv4_icmp
 ** fill        0x000000000041aad6        0xa
 .text          0x000000000041aae0       0xeb 0x10 net/uip/ipv4.o
                0x000000000041aae0                uip_tx_do_ipv4
 ** fill        0x000000000041abcb        0x5
 .text          0x000000000041abd0      0xf22 0x10 net/uip/tcp.o
                0x000000000041abd0                uip_tx_do_ipv4_tcp
 ** fill        0x000000000041baf2        0xe
 .text          0x000000000041bb00      0x9b2 0x10 net/uip/udp.o
                0x000000000041bd70                uip_tx_do_ipv4_udp
                0x000000000041bb00                uip_udp_make_pkg
 ** fill        0x000000000041c4b2        0xe
 .text          0x000000000041c4c0      0x4ce 0x10 net/uip/buf.o
                0x000000000041c8c0                uip_buf_clone
                0x000000000041c680                uip_buf_get_free
                0x000000000041c4c0                uip_buf_get_used
                0x000000000041c840                uip_buf_set_free
                0x000000000041c7c0                uip_buf_set_used
 ** fill        0x000000000041c98e        0x2
 .text          0x000000000041c990      0x44f 0x10 net/uip/csum.o
                0x000000000041cab0                uip_csum_icmp
                0x000000000041c990                uip_csum_ip
                0x000000000041cc80                uip_csum_tcp
                0x000000000041cb30                uip_csum_udp
 ** fill        0x000000000041cddf        0x1
 .text          0x000000000041cde0      0x886 0x10 net/uip/dhcp.o
                0x000000000041ce70                uip_dhcp_get_dns
                0x000000000041d030                uip_tx_do_ipv4_udp_dhcp
                0x000000000041cde0                uip_udp_is_dhcp
 ** fill        0x000000000041d666        0xa
 .text          0x000000000041d670      0x22b 0x10 kvm-cmd.o
                0x000000000041d6f0                handle_command
                0x000000000041d670                kvm_get_command
 ** fill        0x000000000041d89b        0x5
 .text          0x000000000041d8a0      0x398 0x10 util/init.o
                0x000000000041d960                exit_list_add
                0x000000000041db00                init_list__exit
                0x000000000041d9c0                init_list__init
                0x000000000041d8a0                init_list_add
 ** fill        0x000000000041dc38        0x8
 .text          0x000000000041dc40      0x3ac 0x10 util/iovec.o
                0x000000000041de10                memcpy_fromiovec
                0x000000000041def0                memcpy_fromiovecend
                0x000000000041dc40                memcpy_toiovec
                0x000000000041dd20                memcpy_toiovecend
 ** fill        0x000000000041dfec        0x4
 .text          0x000000000041dff0     0x118e 0x10 util/rbtree.o
                0x000000000041dff0                __rb_erase_color
                0x000000000041eb60                __rb_insert_augmented
                0x000000000041e820                rb_erase
                0x000000000041eb90                rb_first
                0x000000000041f030                rb_first_postorder
                0x000000000041e490                rb_insert_color
                0x000000000041ebf0                rb_last
                0x000000000041ec50                rb_next
                0x000000000041ef40                rb_next_postorder
                0x000000000041ed30                rb_prev
                0x000000000041ee10                rb_replace_node
 ** fill        0x000000000041f17e        0x2
 .text          0x000000000041f180     0x14d5 0x10 kvm-ipc.o
                0x000000000041f340                kvm__enumerate_instances
                0x000000000041f1f0                kvm__get_sock_by_instance
                0x000000000041f180                kvm__remove_socket
                0x00000000004202a0                kvm_ipc__exit
                0x000000000041f7b0                kvm_ipc__init
                0x000000000041f5d0                kvm_ipc__register_handler
                0x000000000041f6c0                kvm_ipc__send
                0x000000000041f720                kvm_ipc__send_msg
 ** fill        0x0000000000420655        0xb
 .text          0x0000000000420660      0xa4f 0x10 util/read-write.o
                0x0000000000420970                pread_in_full
                0x0000000000420f30                preadv_in_full
                0x0000000000420a40                pwrite_in_full
                0x0000000000420ff0                pwritev_in_full
                0x0000000000420720                read_in_full
                0x0000000000420bd0                readv_in_full
                0x00000000004207d0                write_in_full
                0x0000000000420d90                writev_in_full
                0x0000000000420890                xpread
                0x0000000000420e50                xpreadv
                0x0000000000420900                xpwrite
                0x0000000000420ec0                xpwritev
                0x0000000000420660                xread
                0x0000000000420b10                xreadv
                0x00000000004206c0                xwrite
                0x0000000000420b70                xwritev
 ** fill        0x00000000004210af        0x1
 .text          0x00000000004210b0     0x1c0a 0x10 util/parse-options.o
                0x00000000004216b0                parse_options
                0x00000000004210b0                usage_with_options
 ** fill        0x0000000000422cba        0x6
 .text          0x0000000000422cc0      0x810 0x10 util/threadpool.o
                0x0000000000422fe0                thread_pool__do_job
                0x0000000000422e60                thread_pool__exit
                0x0000000000422cc0                thread_pool__init
 .text          0x00000000004234d0      0x250 0x10 util/rbtree-interval.o
                0x00000000004235f0                rb_int_insert
                0x0000000000423580                rb_int_search_range
                0x00000000004234d0                rb_int_search_single
 .text          0x0000000000423720      0x1d4 0x10 util/strbuf.o
                0x0000000000423720                prefixcmp
                0x00000000004237b0                strlcat
                0x0000000000423870                strlcpy
 ** fill        0x00000000004238f4        0xc
 .text          0x0000000000423900      0x926 0x10 util/util.o
                0x0000000000423900                die
                0x0000000000423f50                die_perror
                0x0000000000424130                mmap_anon_or_hugetlbfs
                0x0000000000423f70                mmap_hugetlbfs
                0x0000000000423aa0                pr_err
                0x0000000000423dc0                pr_info
                0x0000000000423c30                pr_warning
 ** fill        0x0000000000424226        0xa
 .text          0x0000000000424230      0xe16 0x10 hw/pci-shmem.o
                0x00000000004243a0                pci_shmem__add_client
                0x0000000000424ef0                pci_shmem__exit
                0x0000000000424290                pci_shmem__get_local_irqfd
                0x0000000000424b30                pci_shmem__init
                0x0000000000424230                pci_shmem__register_mem
                0x0000000000424460                pci_shmem__remove_client
                0x0000000000424520                shmem_parser
 ** fill        0x0000000000425046        0xa
 .text          0x0000000000425050      0x1ce 0x10 hw/i8042.o
                0x00000000004251e0                kbd__init
                0x0000000000425170                kbd_queue
                0x0000000000425050                mouse_queue
 ** fill        0x000000000042521e        0x2
 .text          0x0000000000425220     0x3ce0 0x10 virtio/9p.o
                0x00000000004259c0                virtio_9p__init
                0x00000000004255c0                virtio_9p__register
                0x0000000000425760                virtio_9p_img_name_parser
                0x00000000004254f0                virtio_9p_rootdir_parser
 .text          0x0000000000428f00       0x2e 0x10 builtin-sandbox.o
                0x0000000000428f00                kvm_cmd_sandbox
 ** fill        0x0000000000428f2e        0x2
 .text          0x0000000000428f30      0xc16 0x10 virtio/mmio.o
                0x0000000000428fd0                virtio_mmio_assign_irq
                0x0000000000429360                virtio_mmio_exit
                0x0000000000429010                virtio_mmio_init
                0x0000000000428f80                virtio_mmio_signal_config
                0x0000000000428f30                virtio_mmio_signal_vq
 ** fill        0x0000000000429b46        0xa
 .text          0x0000000000429b50     0x1638 0x10 virtio/9p-pdu.o
                0x0000000000429b50                virtio_p9_pdu_readf
                0x000000000042a4b0                virtio_p9_pdu_writef
 ** fill        0x000000000042b188        0x8
 .text          0x000000000042b190      0xbb4 0x10 x86/kvm.o
                0x000000000042b190                kvm__arch_cpu_supports_vm
                0x000000000042b650                kvm__arch_delete_ram
                0x000000000042bd10                kvm__arch_free_firmware
                0x000000000042b480                kvm__arch_init
                0x000000000042bd20                kvm__arch_read_term
                0x000000000042b420                kvm__arch_set_cmdline
                0x000000000042bcf0                kvm__arch_setup_firmware
                0x000000000042b330                kvm__init_ram
                0x000000000042b680                kvm__irq_line
                0x000000000042b6e0                kvm__irq_trigger
                0x000000000042b830                load_bzimage
                0x000000000042b720                load_flat_binary
 ** fill        0x000000000042bd44        0xc
 .text          0x000000000042bd50      0x121 0x10 x86/boot.o
                0x000000000042bd50                kvm__load_firmware
 ** fill        0x000000000042be71        0xf
 .text          0x000000000042be80      0x1ea 0x10 x86/cpuid.o
                0x000000000042be80                kvm_cpu__setup_cpuid
 ** fill        0x000000000042c06a        0x6
 .text          0x000000000042c070       0xe0 0x10 x86/interrupt.o
                0x000000000042c070                interrupt_table__copy
                0x000000000042c120                interrupt_table__set
                0x000000000042c0d0                interrupt_table__setup
 .text          0x000000000042c150      0x3a1 0x10 x86/ioport.o
                0x000000000042c150                ioport__map_irq
                0x000000000042c160                ioport__setup_arch
 ** fill        0x000000000042c4f1        0xf
 .text          0x000000000042c500      0x3cc 0x10 x86/irq.o
                0x000000000042c7e0                irq__add_msix_route
                0x000000000042c780                irq__exit
                0x000000000042c500                irq__init
 ** fill        0x000000000042c8cc        0x4
 .text          0x000000000042c8d0      0xbb4 0x10 x86/kvm.o
 ** fill        0x000000000042d484        0xc
 .text          0x000000000042d490      0x69e 0x10 x86/mptable.o
                0x000000000042daf0                mptable__exit
                0x000000000042d490                mptable__init
 ** fill        0x000000000042db2e        0x2
 .text          0x000000000042db30       0x16 0x4 /home/ashwin/pcn_compiler_lkvm/x86_64/lib/crt1.o
                0x000000000042db30                _start
 .text._start_c
                0x000000000042db46       0x1f 0x1 /home/ashwin/pcn_compiler_lkvm/x86_64/lib/crt1.o
                0x000000000042db46                _start_c
 ** fill        0x000000000042db65        0x3
 .text          0x000000000042db68        0x0 0x4 /home/ashwin/pcn_compiler_lkvm/x86_64/lib/libc.a(sysconf.o)
 .text.sysconf  0x000000000042db68      0x189 0x1 /home/ashwin/pcn_compiler_lkvm/x86_64/lib/libc.a(sysconf.o)
                0x000000000042db68                sysconf
 ** fill        0x000000000042dcf1        0x3
 .text          0x000000000042dcf4        0x0 0x4 /home/ashwin/pcn_compiler_lkvm/x86_64/lib/libc.a(closedir.o)
 .text.closedir
                0x000000000042dcf4       0x20 0x1 /home/ashwin/pcn_compiler_lkvm/x86_64/lib/libc.a(closedir.o)
                0x000000000042dcf4                closedir
 .text          0x000000000042dd14        0x0 0x4 /home/ashwin/pcn_compiler_lkvm/x86_64/lib/libc.a(dirfd.o)
 .text.dirfd    0x000000000042dd14        0x3 0x1 /home/ashwin/pcn_compiler_lkvm/x86_64/lib/libc.a(dirfd.o)
                0x000000000042dd14                dirfd
 ** fill        0x000000000042dd17        0x1
 .text          0x000000000042dd18        0x0 0x4 /home/ashwin/pcn_compiler_lkvm/x86_64/lib/libc.a(opendir.o)
 .text.opendir  0x000000000042dd18       0x48 0x1 /home/ashwin/pcn_compiler_lkvm/x86_64/lib/libc.a(opendir.o)
                0x000000000042dd18                opendir
 .text          0x000000000042dd60        0x0 0x4 /home/ashwin/pcn_compiler_lkvm/x86_64/lib/libc.a(readdir.o)
 .text.readdir  0x000000000042dd60       0x6f 0x1 /home/ashwin/pcn_compiler_lkvm/x86_64/lib/libc.a(readdir.o)
                0x000000000042dd60                readdir
                0x000000000042dd60                readdir64
 ** fill        0x000000000042ddcf        0x1
 .text          0x000000000042ddd0        0x0 0x4 /home/ashwin/pcn_compiler_lkvm/x86_64/lib/libc.a(readdir_r.o)
 .text.readdir_r
                0x000000000042ddd0       0x92 0x1 /home/ashwin/pcn_compiler_lkvm/x86_64/lib/libc.a(readdir_r.o)
                0x000000000042ddd0                readdir64_r
                0x000000000042ddd0                readdir_r
 ** fill        0x000000000042de62        0x2
 .text          0x000000000042de64        0x0 0x4 /home/ashwin/pcn_compiler_lkvm/x86_64/lib/libc.a(seekdir.o)
 .text.seekdir  0x000000000042de64       0x3c 0x1 /home/ashwin/pcn_compiler_lkvm/x86_64/lib/libc.a(seekdir.o)
                0x000000000042de64                seekdir
 .text          0x000000000042dea0        0x0 0x4 /home/ashwin/pcn_compiler_lkvm/x86_64/lib/libc.a(__libc_start_main.o)
 .text.dummy    0x000000000042dea0        0x1 0x1 /home/ashwin/pcn_compiler_lkvm/x86_64/lib/libc.a(__libc_start_main.o)
                0x000000000042dea0                _init
 .text.dummy1   0x000000000042dea1        0x1 0x1 /home/ashwin/pcn_compiler_lkvm/x86_64/lib/libc.a(__libc_start_main.o)
                0x000000000042dea1                __init_ssp
 .text.__init_libc
                0x000000000042dea2      0x19f 0x1 /home/ashwin/pcn_compiler_lkvm/x86_64/lib/libc.a(__libc_start_main.o)
                0x000000000042dea2                __init_libc
 .text.libc_start_init
                0x000000000042e041       0x31 0x1 /home/ashwin/pcn_compiler_lkvm/x86_64/lib/libc.a(__libc_start_main.o)
                0x000000000042e041                __libc_start_init
 .text.__libc_start_main
                0x000000000042e072       0x43 0x1 /home/ashwin/pcn_compiler_lkvm/x86_64/lib/libc.a(__libc_start_main.o)
                0x000000000042e072                __libc_start_main
 ** fill        0x000000000042e0b5        0x3
 .text          0x000000000042e0b8        0x0 0x4 /home/ashwin/pcn_compiler_lkvm/x86_64/lib/libc.a(getenv.o)
 .text.getenv   0x000000000042e0b8       0x80 0x1 /home/ashwin/pcn_compiler_lkvm/x86_64/lib/libc.a(getenv.o)
                0x000000000042e0b8                getenv
 .text          0x000000000042e138        0x0 0x4 /home/ashwin/pcn_compiler_lkvm/x86_64/lib/libc.a(__errno_location.o)
 .text.__errno_location
                0x000000000042e138        0xe 0x1 /home/ashwin/pcn_compiler_lkvm/x86_64/lib/libc.a(__errno_location.o)
                0x000000000042e138                __errno_location
 ** fill        0x000000000042e146        0x2
 .text          0x000000000042e148        0x0 0x4 /home/ashwin/pcn_compiler_lkvm/x86_64/lib/libc.a(strerror.o)
 .text.__strerror_l
                0x000000000042e148       0x44 0x1 /home/ashwin/pcn_compiler_lkvm/x86_64/lib/libc.a(strerror.o)
                0x000000000042e148                __strerror_l
                0x000000000042e148                strerror_l
 .text.strerror
                0x000000000042e18c       0x15 0x1 /home/ashwin/pcn_compiler_lkvm/x86_64/lib/libc.a(strerror.o)
                0x000000000042e18c                strerror
 ** fill        0x000000000042e1a1        0x3
 .text          0x000000000042e1a4        0x0 0x4 /home/ashwin/pcn_compiler_lkvm/x86_64/lib/libc.a(atexit.o)
 .text.__funcs_on_exit
                0x000000000042e1a4       0x95 0x1 /home/ashwin/pcn_compiler_lkvm/x86_64/lib/libc.a(atexit.o)
                0x000000000042e1a4                __funcs_on_exit
 .text.__cxa_finalize
                0x000000000042e239        0x1 0x1 /home/ashwin/pcn_compiler_lkvm/x86_64/lib/libc.a(atexit.o)
                0x000000000042e239                __cxa_finalize
 .text.__cxa_atexit
                0x000000000042e23a       0xa1 0x1 /home/ashwin/pcn_compiler_lkvm/x86_64/lib/libc.a(atexit.o)
                0x000000000042e23a                __cxa_atexit
 .text.atexit   0x000000000042e2db        0xd 0x1 /home/ashwin/pcn_compiler_lkvm/x86_64/lib/libc.a(atexit.o)
                0x000000000042e2db                atexit
 .text.call     0x000000000042e2e8        0x2 0x1 /home/ashwin/pcn_compiler_lkvm/x86_64/lib/libc.a(atexit.o)
 ** fill        0x000000000042e2ea        0x2
 .text          0x000000000042e2ec        0x0 0x4 /home/ashwin/pcn_compiler_lkvm/x86_64/lib/libc.a(exit.o)
 .text.libc_exit_fini
                0x000000000042e2ec       0x35 0x1 /home/ashwin/pcn_compiler_lkvm/x86_64/lib/libc.a(exit.o)
                0x000000000042e2ec                __libc_exit_fini
 .text.dummy    0x000000000042e321        0x1 0x1 /home/ashwin/pcn_compiler_lkvm/x86_64/lib/libc.a(exit.o)
                0x000000000042e321                _fini
 ** fill        0x000000000042e322        0x1
 .text          0x000000000042e324        0x0 0x4 /home/ashwin/pcn_compiler_lkvm/x86_64/lib/libc.a(fcntl.o)
 .text.fcntl    0x000000000042e324      0x1fd 0x1 /home/ashwin/pcn_compiler_lkvm/x86_64/lib/libc.a(fcntl.o)
                0x000000000042e324                fcntl
 ** fill        0x000000000042e521        0x3
 .text          0x000000000042e524        0x0 0x4 /home/ashwin/pcn_compiler_lkvm/x86_64/lib/libc.a(open.o)
 .text.open     0x000000000042e524      0x113 0x1 /home/ashwin/pcn_compiler_lkvm/x86_64/lib/libc.a(open.o)
                0x000000000042e524                open
                0x000000000042e524                open64
 ** fill        0x000000000042e637        0x1
 .text          0x000000000042e638        0x0 0x4 /home/ashwin/pcn_compiler_lkvm/x86_64/lib/libc.a(libc.o)
 .text          0x000000000042e638        0x0 0x4 /home/ashwin/pcn_compiler_lkvm/x86_64/lib/libc.a(syscall_ret.o)
 ** fill        0x000000000042e638        0xc
 .text.__syscall_ret
                0x000000000042e650       0x22 0x10 /home/ashwin/pcn_compiler_lkvm/x86_64/lib/libc.a(syscall_ret.o)
                0x000000000042e650                __syscall_ret
 ** fill        0x000000000042e672        0x2
 .text          0x000000000042e674        0x0 0x4 /home/ashwin/pcn_compiler_lkvm/x86_64/lib/libc.a(getpagesize.o)
 .text.getpagesize
                0x000000000042e674        0x6 0x1 /home/ashwin/pcn_compiler_lkvm/x86_64/lib/libc.a(getpagesize.o)
                0x000000000042e674                getpagesize
 ** fill        0x000000000042e67a        0x2
 .text          0x000000000042e67c        0x0 0x4 /home/ashwin/pcn_compiler_lkvm/x86_64/lib/libc.a(epoll.o)
 .text.epoll_create
                0x000000000042e67c        0x7 0x1 /home/ashwin/pcn_compiler_lkvm/x86_64/lib/libc.a(epoll.o)
                0x000000000042e67c                epoll_create
 .text.epoll_create1
                0x000000000042e683       0x27 0x1 /home/ashwin/pcn_compiler_lkvm/x86_64/lib/libc.a(epoll.o)
                0x000000000042e683                epoll_create1
 .text.epoll_ctl
                0x000000000042e6aa       0x1b 0x1 /home/ashwin/pcn_compiler_lkvm/x86_64/lib/libc.a(epoll.o)
                0x000000000042e6aa                epoll_ctl
 .text.epoll_pwait
                0x000000000042e6c5       0x2f 0x1 /home/ashwin/pcn_compiler_lkvm/x86_64/lib/libc.a(epoll.o)
                0x000000000042e6c5                epoll_pwait
 .text.epoll_wait
                0x000000000042e6f4        0x8 0x1 /home/ashwin/pcn_compiler_lkvm/x86_64/lib/libc.a(epoll.o)
                0x000000000042e6f4                epoll_wait
 .text          0x000000000042e6fc        0x0 0x4 /home/ashwin/pcn_compiler_lkvm/x86_64/lib/libc.a(eventfd.o)
 .text.eventfd  0x000000000042e6fc       0x24 0x1 /home/ashwin/pcn_compiler_lkvm/x86_64/lib/libc.a(eventfd.o)
                0x000000000042e6fc                eventfd
 .text.eventfd_read
                0x000000000042e720       0x1a 0x1 /home/ashwin/pcn_compiler_lkvm/x86_64/lib/libc.a(eventfd.o)
                0x000000000042e720                eventfd_read
 .text.eventfd_write
                0x000000000042e73a       0x23 0x1 /home/ashwin/pcn_compiler_lkvm/x86_64/lib/libc.a(eventfd.o)
                0x000000000042e73a                eventfd_write
 ** fill        0x000000000042e75d        0x3
 .text          0x000000000042e760        0x0 0x4 /home/ashwin/pcn_compiler_lkvm/x86_64/lib/libc.a(prctl.o)
 .text.prctl    0x000000000042e760       0xe4 0x1 /home/ashwin/pcn_compiler_lkvm/x86_64/lib/libc.a(prctl.o)
                0x000000000042e760                prctl
 .text          0x000000000042e844        0x0 0x4 /home/ashwin/pcn_compiler_lkvm/x86_64/lib/libc.a(sysinfo.o)
 .text.__lsysinfo
                0x000000000042e844        0xf 0x1 /home/ashwin/pcn_compiler_lkvm/x86_64/lib/libc.a(sysinfo.o)
                0x000000000042e844                __lsysinfo
                0x000000000042e844                sysinfo
 ** fill        0x000000000042e853        0x1
 .text          0x000000000042e854        0x0 0x4 /home/ashwin/pcn_compiler_lkvm/x86_64/lib/libc.a(__lctrans.o)
 .text.dummy    0x000000000042e854        0x4 0x1 /home/ashwin/pcn_compiler_lkvm/x86_64/lib/libc.a(__lctrans.o)
                0x000000000042e854                __lctrans_impl
 .text.__lctrans
                0x000000000042e858        0x5 0x1 /home/ashwin/pcn_compiler_lkvm/x86_64/lib/libc.a(__lctrans.o)
                0x000000000042e858                __lctrans
 .text.__lctrans_cur
                0x000000000042e85d       0x19 0x1 /home/ashwin/pcn_compiler_lkvm/x86_64/lib/libc.a(__lctrans.o)
                0x000000000042e85d                __lctrans_cur
 ** fill        0x000000000042e876        0x2
 .text          0x000000000042e878        0x0 0x4 /home/ashwin/pcn_compiler_lkvm/x86_64/lib/libc.a(calloc.o)
 ** fill        0x000000000042e878        0x8
 .text.calloc   0x000000000042e880       0x34 0x10 /home/ashwin/pcn_compiler_lkvm/x86_64/lib/libc.a(calloc.o)
                0x000000000042e880                calloc
 ** fill        0x000000000042e8b4        0xc
 .text.popcorn_calloc
                0x000000000042e8c0       0x38 0x10 /home/ashwin/pcn_compiler_lkvm/x86_64/lib/libc.a(calloc.o)
                0x000000000042e8c0                popcorn_calloc
 ** fill        0x000000000042e8f8        0x8
 .text.popcorn_calloc_cur
                0x000000000042e900       0x52 0x10 /home/ashwin/pcn_compiler_lkvm/x86_64/lib/libc.a(calloc.o)
                0x000000000042e900                popcorn_calloc_cur
 ** fill        0x000000000042e952        0x2
 .text          0x000000000042e954        0x0 0x4 /home/ashwin/pcn_compiler_lkvm/x86_64/lib/libc.a(lite_malloc.o)
 ** fill        0x000000000042e954        0xc
 .text.__simple_malloc
                0x000000000042e960       0xfc 0x10 /home/ashwin/pcn_compiler_lkvm/x86_64/lib/libc.a(lite_malloc.o)
 .text          0x000000000042ea5c        0x0 0x4 /home/ashwin/pcn_compiler_lkvm/x86_64/lib/libc.a(malloc.o)
 ** fill        0x000000000042ea5c        0x4
 .text.__init_malloc
                0x000000000042ea60       0x11 0x10 /home/ashwin/pcn_compiler_lkvm/x86_64/lib/libc.a(malloc.o)
 ** fill        0x000000000042ea71        0xf
 .text.malloc   0x000000000042ea80      0x5de 0x10 /home/ashwin/pcn_compiler_lkvm/x86_64/lib/libc.a(malloc.o)
                0x000000000042ea80                malloc
 ** fill        0x000000000042f05e        0x2
 .text.alloc_rev
                0x000000000042f060       0xe8 0x10 /home/ashwin/pcn_compiler_lkvm/x86_64/lib/libc.a(malloc.o)
 ** fill        0x000000000042f148        0x8
 .text.lock_bin
                0x000000000042f150       0x96 0x10 /home/ashwin/pcn_compiler_lkvm/x86_64/lib/libc.a(malloc.o)
 ** fill        0x000000000042f1e6        0xa
 .text.unbin    0x000000000042f1f0       0x52 0x10 /home/ashwin/pcn_compiler_lkvm/x86_64/lib/libc.a(malloc.o)
 ** fill        0x000000000042f242        0xe
 .text.unlock_bin
                0x000000000042f250       0x59 0x10 /home/ashwin/pcn_compiler_lkvm/x86_64/lib/libc.a(malloc.o)
 ** fill        0x000000000042f2a9        0x7
 .text.__malloc0
                0x000000000042f2b0       0xaf 0x10 /home/ashwin/pcn_compiler_lkvm/x86_64/lib/libc.a(malloc.o)
                0x000000000042f2b0                __malloc0
 ** fill        0x000000000042f35f        0x1
 .text.realloc  0x000000000042f360      0x49c 0x10 /home/ashwin/pcn_compiler_lkvm/x86_64/lib/libc.a(malloc.o)
                0x000000000042f360                realloc
 ** fill        0x000000000042f7fc        0x4
 .text.free     0x000000000042f800      0x6b2 0x10 /home/ashwin/pcn_compiler_lkvm/x86_64/lib/libc.a(malloc.o)
                0x000000000042f800                free
 ** fill        0x000000000042feb2        0x2
 .text          0x000000000042feb4        0x0 0x4 /home/ashwin/pcn_compiler_lkvm/x86_64/lib/libc.a(popcorn_malloc.o)
 ** fill        0x000000000042feb4        0xc
 .text.__init_malloc
                0x000000000042fec0       0x11 0x10 /home/ashwin/pcn_compiler_lkvm/x86_64/lib/libc.a(popcorn_malloc.o)
 ** fill        0x000000000042fed1        0xf
 .text.popcorn_malloc
                0x000000000042fee0      0x837 0x10 /home/ashwin/pcn_compiler_lkvm/x86_64/lib/libc.a(popcorn_malloc.o)
                0x000000000042fee0                popcorn_malloc
 ** fill        0x0000000000430717        0x9
 .text.alloc_rev
                0x0000000000430720       0xd7 0x10 /home/ashwin/pcn_compiler_lkvm/x86_64/lib/libc.a(popcorn_malloc.o)
 ** fill        0x00000000004307f7        0x9
 .text.lock_bin
                0x0000000000430800       0xb3 0x10 /home/ashwin/pcn_compiler_lkvm/x86_64/lib/libc.a(popcorn_malloc.o)
 ** fill        0x00000000004308b3        0xd
 .text.unbin    0x00000000004308c0       0x59 0x10 /home/ashwin/pcn_compiler_lkvm/x86_64/lib/libc.a(popcorn_malloc.o)
 ** fill        0x0000000000430919        0x7
 .text.unlock_bin
                0x0000000000430920       0x6a 0x10 /home/ashwin/pcn_compiler_lkvm/x86_64/lib/libc.a(popcorn_malloc.o)
 ** fill        0x000000000043098a        0x6
 .text.__popcorn_malloc0
                0x0000000000430990       0xaf 0x10 /home/ashwin/pcn_compiler_lkvm/x86_64/lib/libc.a(popcorn_malloc.o)
                0x0000000000430990                __popcorn_malloc0
 ** fill        0x0000000000430a3f        0x1
 .text.popcorn_malloc_cur
                0x0000000000430a40       0x16 0x10 /home/ashwin/pcn_compiler_lkvm/x86_64/lib/libc.a(popcorn_malloc.o)
                0x0000000000430a40                popcorn_malloc_cur
 ** fill        0x0000000000430a56        0xa
 .text.popcorn_realloc
                0x0000000000430a60      0x23e 0x10 /home/ashwin/pcn_compiler_lkvm/x86_64/lib/libc.a(popcorn_malloc.o)
                0x0000000000430a60                popcorn_realloc
 ** fill        0x0000000000430c9e        0x2
 .text.popcorn_free
                0x0000000000430ca0      0x50e 0x10 /home/ashwin/pcn_compiler_lkvm/x86_64/lib/libc.a(popcorn_malloc.o)
                0x0000000000430ca0                popcorn_free
 ** fill        0x00000000004311ae        0x2
 .text.alloc_fwd
                0x00000000004311b0       0xe0 0x10 /home/ashwin/pcn_compiler_lkvm/x86_64/lib/libc.a(popcorn_malloc.o)
 .text.popcorn_realloc_cur
                0x0000000000431290       0x25 0x10 /home/ashwin/pcn_compiler_lkvm/x86_64/lib/libc.a(popcorn_malloc.o)
                0x0000000000431290                popcorn_realloc_cur
 ** fill        0x00000000004312b5        0x3
 .text          0x00000000004312b8        0x0 0x4 /home/ashwin/pcn_compiler_lkvm/x86_64/lib/libc.a(getrlimit.o)
 .text.getrlimit
                0x00000000004312b8       0xb0 0x1 /home/ashwin/pcn_compiler_lkvm/x86_64/lib/libc.a(getrlimit.o)
                0x00000000004312b8                getrlimit
                0x00000000004312b8                getrlimit64
 .text          0x0000000000431368        0x0 0x4 /home/ashwin/pcn_compiler_lkvm/x86_64/lib/libc.a(ioctl.o)
 .text.ioctl    0x0000000000431368       0xc3 0x1 /home/ashwin/pcn_compiler_lkvm/x86_64/lib/libc.a(ioctl.o)
                0x0000000000431368                ioctl
 ** fill        0x000000000043142b        0x1
 .text          0x000000000043142c        0x0 0x4 /home/ashwin/pcn_compiler_lkvm/x86_64/lib/libc.a(mntent.o)
 .text.setmntent
                0x000000000043142c        0x5 0x1 /home/ashwin/pcn_compiler_lkvm/x86_64/lib/libc.a(mntent.o)
                0x000000000043142c                setmntent
 .text.endmntent
                0x0000000000431431       0x15 0x1 /home/ashwin/pcn_compiler_lkvm/x86_64/lib/libc.a(mntent.o)
                0x0000000000431431                endmntent
 .text.getmntent_r
                0x0000000000431446      0x19c 0x1 /home/ashwin/pcn_compiler_lkvm/x86_64/lib/libc.a(mntent.o)
                0x0000000000431446                getmntent_r
 .text.getmntent
                0x00000000004315e2       0x11 0x1 /home/ashwin/pcn_compiler_lkvm/x86_64/lib/libc.a(mntent.o)
                0x00000000004315e2                getmntent
 .text.addmntent
                0x00000000004315f3       0x5b 0x1 /home/ashwin/pcn_compiler_lkvm/x86_64/lib/libc.a(mntent.o)
                0x00000000004315f3                addmntent
 .text.hasmntopt
                0x000000000043164e        0x9 0x1 /home/ashwin/pcn_compiler_lkvm/x86_64/lib/libc.a(mntent.o)
                0x000000000043164e                hasmntopt
 ** fill        0x0000000000431657        0x1
 .text          0x0000000000431658        0x0 0x4 /home/ashwin/pcn_compiler_lkvm/x86_64/lib/libc.a(openpty.o)
 .text.openpty  0x0000000000431658      0x119 0x1 /home/ashwin/pcn_compiler_lkvm/x86_64/lib/libc.a(openpty.o)
                0x0000000000431658                openpty
 ** fill        0x0000000000431771        0x3
 .text          0x0000000000431774        0x0 0x4 /home/ashwin/pcn_compiler_lkvm/x86_64/lib/libc.a(realpath.o)
 .text.realpath
                0x0000000000431774      0x106 0x1 /home/ashwin/pcn_compiler_lkvm/x86_64/lib/libc.a(realpath.o)
                0x0000000000431774                realpath
 ** fill        0x000000000043187a        0x2
 .text          0x000000000043187c        0x0 0x4 /home/ashwin/pcn_compiler_lkvm/x86_64/lib/libc.a(uname.o)
 .text.uname    0x000000000043187c        0xf 0x1 /home/ashwin/pcn_compiler_lkvm/x86_64/lib/libc.a(uname.o)
                0x000000000043187c                uname
 ** fill        0x000000000043188b        0x1
 .text          0x000000000043188c        0x0 0x4 /home/ashwin/pcn_compiler_lkvm/x86_64/lib/libc.a(madvise.o)
 .text.__madvise
                0x000000000043188c       0x12 0x1 /home/ashwin/pcn_compiler_lkvm/x86_64/lib/libc.a(madvise.o)
                0x000000000043188c                __madvise
                0x000000000043188c                madvise
 ** fill        0x000000000043189e        0x2
 .text          0x00000000004318a0        0x0 0x4 /home/ashwin/pcn_compiler_lkvm/x86_64/lib/libc.a(mmap.o)
 .text.dummy    0x00000000004318a0        0x1 0x1 /home/ashwin/pcn_compiler_lkvm/x86_64/lib/libc.a(mmap.o)
 .text.__mmap   0x00000000004318a1       0xb5 0x1 /home/ashwin/pcn_compiler_lkvm/x86_64/lib/libc.a(mmap.o)
                0x00000000004318a1                __mmap
                0x00000000004318a1                mmap
                0x00000000004318a1                mmap64
 ** fill        0x0000000000431956        0x2
 .text          0x0000000000431958        0x0 0x4 /home/ashwin/pcn_compiler_lkvm/x86_64/lib/libc.a(mprotect.o)
 .text.__mprotect
                0x0000000000431958       0x2c 0x1 /home/ashwin/pcn_compiler_lkvm/x86_64/lib/libc.a(mprotect.o)
                0x0000000000431958                __mprotect
                0x0000000000431958                mprotect
 .text          0x0000000000431984        0x0 0x4 /home/ashwin/pcn_compiler_lkvm/x86_64/lib/libc.a(mremap.o)
 .text.dummy    0x0000000000431984        0x1 0x1 /home/ashwin/pcn_compiler_lkvm/x86_64/lib/libc.a(mremap.o)
 .text.__mremap
                0x0000000000431985      0x117 0x1 /home/ashwin/pcn_compiler_lkvm/x86_64/lib/libc.a(mremap.o)
                0x0000000000431985                __mremap
                0x0000000000431985                mremap
 .text          0x0000000000431a9c        0x0 0x4 /home/ashwin/pcn_compiler_lkvm/x86_64/lib/libc.a(munmap.o)
 .text.dummy    0x0000000000431a9c        0x1 0x1 /home/ashwin/pcn_compiler_lkvm/x86_64/lib/libc.a(munmap.o)
 .text.__munmap
                0x0000000000431a9d       0x2b 0x1 /home/ashwin/pcn_compiler_lkvm/x86_64/lib/libc.a(munmap.o)
                0x0000000000431a9d                __munmap
                0x0000000000431a9d                munmap
 .text          0x0000000000431ac8        0x0 0x4 /home/ashwin/pcn_compiler_lkvm/x86_64/lib/libc.a(shm_open.o)
 .text.__shm_mapname
                0x0000000000431ac8       0x94 0x1 /home/ashwin/pcn_compiler_lkvm/x86_64/lib/libc.a(shm_open.o)
                0x0000000000431ac8                __shm_mapname
 .text.shm_open
                0x0000000000431b5c       0x6e 0x1 /home/ashwin/pcn_compiler_lkvm/x86_64/lib/libc.a(shm_open.o)
                0x0000000000431b5c                shm_open
 .text.shm_unlink
                0x0000000000431bca       0x2b 0x1 /home/ashwin/pcn_compiler_lkvm/x86_64/lib/libc.a(shm_open.o)
                0x0000000000431bca                shm_unlink
 ** fill        0x0000000000431bf5        0x3
 .text          0x0000000000431bf8        0x0 0x4 /home/ashwin/pcn_compiler_lkvm/x86_64/lib/libc.a(accept.o)
 .text.accept   0x0000000000431bf8       0x2b 0x1 /home/ashwin/pcn_compiler_lkvm/x86_64/lib/libc.a(accept.o)
                0x0000000000431bf8                accept
 ** fill        0x0000000000431c23        0x1
 .text          0x0000000000431c24        0x0 0x4 /home/ashwin/pcn_compiler_lkvm/x86_64/lib/libc.a(bind.o)
 .text.bind     0x0000000000431c24       0x1d 0x1 /home/ashwin/pcn_compiler_lkvm/x86_64/lib/libc.a(bind.o)
                0x0000000000431c24                bind
 ** fill        0x0000000000431c41        0x3
 .text          0x0000000000431c44        0x0 0x4 /home/ashwin/pcn_compiler_lkvm/x86_64/lib/libc.a(connect.o)
 .text.connect  0x0000000000431c44       0x2d 0x1 /home/ashwin/pcn_compiler_lkvm/x86_64/lib/libc.a(connect.o)
                0x0000000000431c44                connect
 ** fill        0x0000000000431c71        0x3
 .text          0x0000000000431c74        0x0 0x4 /home/ashwin/pcn_compiler_lkvm/x86_64/lib/libc.a(htonl.o)
 .text.htonl    0x0000000000431c74        0x5 0x1 /home/ashwin/pcn_compiler_lkvm/x86_64/lib/libc.a(htonl.o)
                0x0000000000431c74                htonl
 ** fill        0x0000000000431c79        0x3
 .text          0x0000000000431c7c        0x0 0x4 /home/ashwin/pcn_compiler_lkvm/x86_64/lib/libc.a(htons.o)
 .text.htons    0x0000000000431c7c        0x7 0x1 /home/ashwin/pcn_compiler_lkvm/x86_64/lib/libc.a(htons.o)
                0x0000000000431c7c                htons
 ** fill        0x0000000000431c83        0x1
 .text          0x0000000000431c84        0x0 0x4 /home/ashwin/pcn_compiler_lkvm/x86_64/lib/libc.a(inet_addr.o)
 .text.inet_addr
                0x0000000000431c84       0x23 0x1 /home/ashwin/pcn_compiler_lkvm/x86_64/lib/libc.a(inet_addr.o)
                0x0000000000431c84                inet_addr
 ** fill        0x0000000000431ca7        0x1
 .text          0x0000000000431ca8        0x0 0x4 /home/ashwin/pcn_compiler_lkvm/x86_64/lib/libc.a(inet_aton.o)
 .text.__inet_aton
                0x0000000000431ca8      0x125 0x1 /home/ashwin/pcn_compiler_lkvm/x86_64/lib/libc.a(inet_aton.o)
                0x0000000000431ca8                __inet_aton
                0x0000000000431ca8                inet_aton
 ** fill        0x0000000000431dcd        0x3
 .text          0x0000000000431dd0        0x0 0x4 /home/ashwin/pcn_compiler_lkvm/x86_64/lib/libc.a(listen.o)
 .text.listen   0x0000000000431dd0       0x20 0x1 /home/ashwin/pcn_compiler_lkvm/x86_64/lib/libc.a(listen.o)
                0x0000000000431dd0                listen
 .text          0x0000000000431df0        0x0 0x4 /home/ashwin/pcn_compiler_lkvm/x86_64/lib/libc.a(ntohl.o)
 .text.ntohl    0x0000000000431df0        0x5 0x1 /home/ashwin/pcn_compiler_lkvm/x86_64/lib/libc.a(ntohl.o)
                0x0000000000431df0                ntohl
 ** fill        0x0000000000431df5        0x3
 .text          0x0000000000431df8        0x0 0x4 /home/ashwin/pcn_compiler_lkvm/x86_64/lib/libc.a(ntohs.o)
 .text.ntohs    0x0000000000431df8        0x7 0x1 /home/ashwin/pcn_compiler_lkvm/x86_64/lib/libc.a(ntohs.o)
                0x0000000000431df8                ntohs
 ** fill        0x0000000000431dff        0x1
 .text          0x0000000000431e00        0x0 0x4 /home/ashwin/pcn_compiler_lkvm/x86_64/lib/libc.a(recvfrom.o)
 .text.recvfrom
                0x0000000000431e00       0x2d 0x1 /home/ashwin/pcn_compiler_lkvm/x86_64/lib/libc.a(recvfrom.o)
                0x0000000000431e00                recvfrom
 ** fill        0x0000000000431e2d        0x3
 .text          0x0000000000431e30        0x0 0x4 /home/ashwin/pcn_compiler_lkvm/x86_64/lib/libc.a(sendto.o)
 .text.sendto   0x0000000000431e30       0x30 0x1 /home/ashwin/pcn_compiler_lkvm/x86_64/lib/libc.a(sendto.o)
                0x0000000000431e30                sendto
 .text          0x0000000000431e60        0x0 0x4 /home/ashwin/pcn_compiler_lkvm/x86_64/lib/libc.a(shutdown.o)
 .text.shutdown
                0x0000000000431e60       0x20 0x1 /home/ashwin/pcn_compiler_lkvm/x86_64/lib/libc.a(shutdown.o)
                0x0000000000431e60                shutdown
 .text          0x0000000000431e80        0x0 0x4 /home/ashwin/pcn_compiler_lkvm/x86_64/lib/libc.a(socket.o)
 .text.socket   0x0000000000431e80       0xcd 0x1 /home/ashwin/pcn_compiler_lkvm/x86_64/lib/libc.a(socket.o)
                0x0000000000431e80                socket
 ** fill        0x0000000000431f4d        0x3
 .text          0x0000000000431f50        0x0 0x4 /home/ashwin/pcn_compiler_lkvm/x86_64/lib/libc.a(execl.o)
 .text.execl    0x0000000000431f50      0x149 0x1 /home/ashwin/pcn_compiler_lkvm/x86_64/lib/libc.a(execl.o)
                0x0000000000431f50                execl
 ** fill        0x0000000000432099        0x3
 .text          0x000000000043209c        0x0 0x4 /home/ashwin/pcn_compiler_lkvm/x86_64/lib/libc.a(execv.o)
 .text.execv    0x000000000043209c        0xc 0x1 /home/ashwin/pcn_compiler_lkvm/x86_64/lib/libc.a(execv.o)
                0x000000000043209c                execv
 .text          0x00000000004320a8        0x0 0x4 /home/ashwin/pcn_compiler_lkvm/x86_64/lib/libc.a(execve.o)
 .text.execve   0x00000000004320a8        0xf 0x1 /home/ashwin/pcn_compiler_lkvm/x86_64/lib/libc.a(execve.o)
                0x00000000004320a8                execve
 ** fill        0x00000000004320b7        0x1
 .text          0x00000000004320b8        0x0 0x4 /home/ashwin/pcn_compiler_lkvm/x86_64/lib/libc.a(fork.o)
 .text.dummy    0x00000000004320b8        0x1 0x1 /home/ashwin/pcn_compiler_lkvm/x86_64/lib/libc.a(fork.o)
                0x00000000004320b8                __fork_handler
 .text.fork     0x00000000004320b9       0x8b 0x1 /home/ashwin/pcn_compiler_lkvm/x86_64/lib/libc.a(fork.o)
                0x00000000004320b9                fork
 .text          0x0000000000432144        0x0 0x4 /home/ashwin/pcn_compiler_lkvm/x86_64/lib/libc.a(waitpid.o)
 .text.waitpid  0x0000000000432144       0x2e 0x1 /home/ashwin/pcn_compiler_lkvm/x86_64/lib/libc.a(waitpid.o)
                0x0000000000432144                waitpid
 ** fill        0x0000000000432172        0x2
 .text          0x0000000000432174        0x0 0x4 /home/ashwin/pcn_compiler_lkvm/x86_64/lib/libc.a(poll.o)
 .text.poll     0x0000000000432174       0x2e 0x1 /home/ashwin/pcn_compiler_lkvm/x86_64/lib/libc.a(poll.o)
                0x0000000000432174                poll
 ** fill        0x00000000004321a2        0x2
 .text          0x00000000004321a4        0x0 0x4 /home/ashwin/pcn_compiler_lkvm/x86_64/lib/libc.a(select.o)
 .text.select   0x00000000004321a4       0x2b 0x1 /home/ashwin/pcn_compiler_lkvm/x86_64/lib/libc.a(select.o)
                0x00000000004321a4                select
 ** fill        0x00000000004321cf        0x1
 .text          0x00000000004321d0        0x0 0x4 /home/ashwin/pcn_compiler_lkvm/x86_64/lib/libc.a(block.o)
 .text.__block_all_sigs
                0x00000000004321d0       0x18 0x1 /home/ashwin/pcn_compiler_lkvm/x86_64/lib/libc.a(block.o)
                0x00000000004321d0                __block_all_sigs
 .text.__block_app_sigs
                0x00000000004321e8       0x18 0x1 /home/ashwin/pcn_compiler_lkvm/x86_64/lib/libc.a(block.o)
                0x00000000004321e8                __block_app_sigs
 .text.__restore_sigs
                0x0000000000432200       0x18 0x1 /home/ashwin/pcn_compiler_lkvm/x86_64/lib/libc.a(block.o)
                0x0000000000432200                __restore_sigs
 .text          0x0000000000432218        0x0 0x4 /home/ashwin/pcn_compiler_lkvm/x86_64/lib/libc.a(raise.o)
 .text.raise    0x0000000000432218       0x4d 0x1 /home/ashwin/pcn_compiler_lkvm/x86_64/lib/libc.a(raise.o)
                0x0000000000432218                raise
 ** fill        0x0000000000432265        0x3
 .text          0x0000000000432268        0x0 0x4 /home/ashwin/pcn_compiler_lkvm/x86_64/lib/libc.a(signal.o)
 .text.signal   0x0000000000432268       0x67 0x1 /home/ashwin/pcn_compiler_lkvm/x86_64/lib/libc.a(signal.o)
                0x0000000000432268                __sysv_signal
                0x0000000000432268                bsd_signal
                0x0000000000432268                signal
 ** fill        0x00000000004322cf        0x1
 .text          0x00000000004322d0        0x0 0x4 /home/ashwin/pcn_compiler_lkvm/x86_64/lib/libc.a(sigrtmin.o)
 .text.__libc_current_sigrtmin
                0x00000000004322d0        0x6 0x1 /home/ashwin/pcn_compiler_lkvm/x86_64/lib/libc.a(sigrtmin.o)
                0x00000000004322d0                __libc_current_sigrtmin
 ** fill        0x00000000004322d6        0x2
 .text          0x00000000004322d8        0x0 0x4 /home/ashwin/pcn_compiler_lkvm/x86_64/lib/libc.a(chmod.o)
 .text.chmod    0x00000000004322d8       0x11 0x1 /home/ashwin/pcn_compiler_lkvm/x86_64/lib/libc.a(chmod.o)
                0x00000000004322d8                chmod
 ** fill        0x00000000004322e9        0x3
 .text          0x00000000004322ec        0x0 0x4 /home/ashwin/pcn_compiler_lkvm/x86_64/lib/libc.a(fstat.o)
 .text.copy_stat
                0x00000000004322ec       0x49 0x1 /home/ashwin/pcn_compiler_lkvm/x86_64/lib/libc.a(fstat.o)
                0x00000000004322ec                copy_stat
 .text.fstat    0x0000000000432335      0x218 0x1 /home/ashwin/pcn_compiler_lkvm/x86_64/lib/libc.a(fstat.o)
                0x0000000000432335                fstat
                0x0000000000432335                fstat64
 ** fill        0x000000000043254d        0x3
 .text          0x0000000000432550        0x0 0x4 /home/ashwin/pcn_compiler_lkvm/x86_64/lib/libc.a(lstat.o)
 .text.lstat    0x0000000000432550       0x41 0x1 /home/ashwin/pcn_compiler_lkvm/x86_64/lib/libc.a(lstat.o)
                0x0000000000432550                lstat
                0x0000000000432550                lstat64
 ** fill        0x0000000000432591        0x3
 .text          0x0000000000432594        0x0 0x4 /home/ashwin/pcn_compiler_lkvm/x86_64/lib/libc.a(mkdir.o)
 .text.mkdir    0x0000000000432594       0x11 0x1 /home/ashwin/pcn_compiler_lkvm/x86_64/lib/libc.a(mkdir.o)
                0x0000000000432594                mkdir
 ** fill        0x00000000004325a5        0x3
 .text          0x00000000004325a8        0x0 0x4 /home/ashwin/pcn_compiler_lkvm/x86_64/lib/libc.a(mknod.o)
 .text.mknod    0x00000000004325a8       0x11 0x1 /home/ashwin/pcn_compiler_lkvm/x86_64/lib/libc.a(mknod.o)
                0x00000000004325a8                mknod
 ** fill        0x00000000004325b9        0x3
 .text          0x00000000004325bc        0x0 0x4 /home/ashwin/pcn_compiler_lkvm/x86_64/lib/libc.a(stat.o)
 .text.stat     0x00000000004325bc       0x3a 0x1 /home/ashwin/pcn_compiler_lkvm/x86_64/lib/libc.a(stat.o)
                0x00000000004325bc                stat
                0x00000000004325bc                stat64
 ** fill        0x00000000004325f6        0x2
 .text          0x00000000004325f8        0x0 0x4 /home/ashwin/pcn_compiler_lkvm/x86_64/lib/libc.a(statvfs.o)
 .text.__statfs
                0x00000000004325f8       0x51 0x1 /home/ashwin/pcn_compiler_lkvm/x86_64/lib/libc.a(statvfs.o)
                0x00000000004325f8                __statfs
                0x00000000004325f8                statfs
                0x00000000004325f8                statfs64
 .text.__fstatfs
                0x0000000000432649       0x50 0x1 /home/ashwin/pcn_compiler_lkvm/x86_64/lib/libc.a(statvfs.o)
                0x0000000000432649                __fstatfs
                0x0000000000432649                fstatfs
                0x0000000000432649                fstatfs64
 .text.statvfs  0x0000000000432699      0x109 0x1 /home/ashwin/pcn_compiler_lkvm/x86_64/lib/libc.a(statvfs.o)
                0x0000000000432699                statvfs
                0x0000000000432699                statvfs64
 .text.fstatvfs
                0x00000000004327a2      0x108 0x1 /home/ashwin/pcn_compiler_lkvm/x86_64/lib/libc.a(statvfs.o)
                0x00000000004327a2                fstatvfs
                0x00000000004327a2                fstatvfs64
 ** fill        0x00000000004328aa        0x2
 .text          0x00000000004328ac        0x0 0x4 /home/ashwin/pcn_compiler_lkvm/x86_64/lib/libc.a(utimensat.o)
 .text.utimensat
                0x00000000004328ac       0xdb 0x1 /home/ashwin/pcn_compiler_lkvm/x86_64/lib/libc.a(utimensat.o)
                0x00000000004328ac                utimensat
 ** fill        0x0000000000432987        0x1
 .text          0x0000000000432988        0x0 0x4 /home/ashwin/pcn_compiler_lkvm/x86_64/lib/libc.a(dprintf.o)
 .text.dprintf  0x0000000000432988       0x81 0x1 /home/ashwin/pcn_compiler_lkvm/x86_64/lib/libc.a(dprintf.o)
                0x0000000000432988                dprintf
 ** fill        0x0000000000432a09        0x3
 .text          0x0000000000432a0c        0x0 0x4 /home/ashwin/pcn_compiler_lkvm/x86_64/lib/libc.a(fclose.o)
 .text.dummy    0x0000000000432a0c        0x1 0x1 /home/ashwin/pcn_compiler_lkvm/x86_64/lib/libc.a(fclose.o)
                0x0000000000432a0c                __unlist_locked_file
 .text.fclose   0x0000000000432a0d       0xb3 0x1 /home/ashwin/pcn_compiler_lkvm/x86_64/lib/libc.a(fclose.o)
                0x0000000000432a0d                fclose
 .text          0x0000000000432ac0        0x0 0x4 /home/ashwin/pcn_compiler_lkvm/x86_64/lib/libc.a(feof.o)
 .text.feof     0x0000000000432ac0       0x42 0x1 /home/ashwin/pcn_compiler_lkvm/x86_64/lib/libc.a(feof.o)
                0x0000000000432ac0                _IO_feof_unlocked
                0x0000000000432ac0                feof
                0x0000000000432ac0                feof_unlocked
 ** fill        0x0000000000432b02        0x2
 .text          0x0000000000432b04        0x0 0x4 /home/ashwin/pcn_compiler_lkvm/x86_64/lib/libc.a(ferror.o)
 .text.ferror   0x0000000000432b04       0x42 0x1 /home/ashwin/pcn_compiler_lkvm/x86_64/lib/libc.a(ferror.o)
                0x0000000000432b04                _IO_ferror_unlocked
                0x0000000000432b04                ferror
                0x0000000000432b04                ferror_unlocked
 ** fill        0x0000000000432b46        0x2
 .text          0x0000000000432b48        0x0 0x4 /home/ashwin/pcn_compiler_lkvm/x86_64/lib/libc.a(fflush.o)
 .text.fflush   0x0000000000432b48      0x124 0x1 /home/ashwin/pcn_compiler_lkvm/x86_64/lib/libc.a(fflush.o)
                0x0000000000432b48                fflush
                0x0000000000432b48                fflush_unlocked
 .text          0x0000000000432c6c        0x0 0x4 /home/ashwin/pcn_compiler_lkvm/x86_64/lib/libc.a(fgets.o)
 .text.fgets    0x0000000000432c6c      0x16a 0x1 /home/ashwin/pcn_compiler_lkvm/x86_64/lib/libc.a(fgets.o)
                0x0000000000432c6c                fgets
                0x0000000000432c6c                fgets_unlocked
 ** fill        0x0000000000432dd6        0x2
 .text          0x0000000000432dd8        0x0 0x4 /home/ashwin/pcn_compiler_lkvm/x86_64/lib/libc.a(fopen.o)
 .text.fopen    0x0000000000432dd8       0x90 0x1 /home/ashwin/pcn_compiler_lkvm/x86_64/lib/libc.a(fopen.o)
                0x0000000000432dd8                fopen
                0x0000000000432dd8                fopen64
 .text          0x0000000000432e68        0x0 0x4 /home/ashwin/pcn_compiler_lkvm/x86_64/lib/libc.a(fprintf.o)
 .text.fprintf  0x0000000000432e68       0x81 0x1 /home/ashwin/pcn_compiler_lkvm/x86_64/lib/libc.a(fprintf.o)
                0x0000000000432e68                fprintf
 ** fill        0x0000000000432ee9        0x3
 .text          0x0000000000432eec        0x0 0x4 /home/ashwin/pcn_compiler_lkvm/x86_64/lib/libc.a(fputc.o)
 .text.fputc    0x0000000000432eec       0x9c 0x1 /home/ashwin/pcn_compiler_lkvm/x86_64/lib/libc.a(fputc.o)
                0x0000000000432eec                fputc
 .text          0x0000000000432f88        0x0 0x4 /home/ashwin/pcn_compiler_lkvm/x86_64/lib/libc.a(fscanf.o)
 .text.fscanf   0x0000000000432f88       0x81 0x1 /home/ashwin/pcn_compiler_lkvm/x86_64/lib/libc.a(fscanf.o)
                0x0000000000432f88                __isoc99_fscanf
                0x0000000000432f88                fscanf
 ** fill        0x0000000000433009        0x3
 .text          0x000000000043300c        0x0 0x4 /home/ashwin/pcn_compiler_lkvm/x86_64/lib/libc.a(fseek.o)
 .text.__fseeko_unlocked
                0x000000000043300c       0x7c 0x1 /home/ashwin/pcn_compiler_lkvm/x86_64/lib/libc.a(fseek.o)
                0x000000000043300c                __fseeko_unlocked
 .text.__fseeko
                0x0000000000433088       0x60 0x1 /home/ashwin/pcn_compiler_lkvm/x86_64/lib/libc.a(fseek.o)
                0x0000000000433088                __fseeko
                0x0000000000433088                fseeko
                0x0000000000433088                fseeko64
 .text.fseek    0x00000000004330e8        0x5 0x1 /home/ashwin/pcn_compiler_lkvm/x86_64/lib/libc.a(fseek.o)
                0x00000000004330e8                fseek
 ** fill        0x00000000004330ed        0x3
 .text          0x00000000004330f0        0x0 0x4 /home/ashwin/pcn_compiler_lkvm/x86_64/lib/libc.a(getline.o)
 .text.getline  0x00000000004330f0        0xd 0x1 /home/ashwin/pcn_compiler_lkvm/x86_64/lib/libc.a(getline.o)
                0x00000000004330f0                getline
 ** fill        0x00000000004330fd        0x3
 .text          0x0000000000433100        0x0 0x4 /home/ashwin/pcn_compiler_lkvm/x86_64/lib/libc.a(ofl.o)
 .text.__ofl_lock
                0x0000000000433100       0x12 0x1 /home/ashwin/pcn_compiler_lkvm/x86_64/lib/libc.a(ofl.o)
                0x0000000000433100                __ofl_lock
 .text.__ofl_unlock
                0x0000000000433112        0xa 0x1 /home/ashwin/pcn_compiler_lkvm/x86_64/lib/libc.a(ofl.o)
                0x0000000000433112                __ofl_unlock
 .text          0x000000000043311c        0x0 0x4 /home/ashwin/pcn_compiler_lkvm/x86_64/lib/libc.a(perror.o)
 .text.perror   0x000000000043311c       0xb9 0x1 /home/ashwin/pcn_compiler_lkvm/x86_64/lib/libc.a(perror.o)
                0x000000000043311c                perror
 ** fill        0x00000000004331d5        0x3
 .text          0x00000000004331d8        0x0 0x4 /home/ashwin/pcn_compiler_lkvm/x86_64/lib/libc.a(printf.o)
 .text.printf   0x00000000004331d8       0x92 0x1 /home/ashwin/pcn_compiler_lkvm/x86_64/lib/libc.a(printf.o)
                0x00000000004331d8                printf
 ** fill        0x000000000043326a        0x2
 .text          0x000000000043326c        0x0 0x4 /home/ashwin/pcn_compiler_lkvm/x86_64/lib/libc.a(putchar.o)
 .text.putchar  0x000000000043326c        0xc 0x1 /home/ashwin/pcn_compiler_lkvm/x86_64/lib/libc.a(putchar.o)
                0x000000000043326c                putchar
 .text          0x0000000000433278        0x0 0x4 /home/ashwin/pcn_compiler_lkvm/x86_64/lib/libc.a(puts.o)
 .text.puts     0x0000000000433278       0x88 0x1 /home/ashwin/pcn_compiler_lkvm/x86_64/lib/libc.a(puts.o)
                0x0000000000433278                puts
 .text          0x0000000000433300        0x0 0x4 /home/ashwin/pcn_compiler_lkvm/x86_64/lib/libc.a(remove.o)
 .text.remove   0x0000000000433300       0x1b 0x1 /home/ashwin/pcn_compiler_lkvm/x86_64/lib/libc.a(remove.o)
                0x0000000000433300                remove
 ** fill        0x000000000043331b        0x1
 .text          0x000000000043331c        0x0 0x4 /home/ashwin/pcn_compiler_lkvm/x86_64/lib/libc.a(rename.o)
 .text.rename   0x000000000043331c        0xf 0x1 /home/ashwin/pcn_compiler_lkvm/x86_64/lib/libc.a(rename.o)
                0x000000000043331c                rename
 ** fill        0x000000000043332b        0x1
 .text          0x000000000043332c        0x0 0x4 /home/ashwin/pcn_compiler_lkvm/x86_64/lib/libc.a(snprintf.o)
 .text.snprintf
                0x000000000043332c       0x7d 0x1 /home/ashwin/pcn_compiler_lkvm/x86_64/lib/libc.a(snprintf.o)
                0x000000000043332c                snprintf
 ** fill        0x00000000004333a9        0x3
 .text          0x00000000004333ac        0x0 0x4 /home/ashwin/pcn_compiler_lkvm/x86_64/lib/libc.a(sprintf.o)
 .text.sprintf  0x00000000004333ac       0x81 0x1 /home/ashwin/pcn_compiler_lkvm/x86_64/lib/libc.a(sprintf.o)
                0x00000000004333ac                sprintf
 ** fill        0x000000000043342d        0x3
 .text          0x0000000000433430        0x0 0x4 /home/ashwin/pcn_compiler_lkvm/x86_64/lib/libc.a(sscanf.o)
 .text.sscanf   0x0000000000433430       0x81 0x1 /home/ashwin/pcn_compiler_lkvm/x86_64/lib/libc.a(sscanf.o)
                0x0000000000433430                __isoc99_sscanf
                0x0000000000433430                sscanf
 ** fill        0x00000000004334b1        0x3
 .text          0x00000000004334b4        0x0 0x4 /home/ashwin/pcn_compiler_lkvm/x86_64/lib/libc.a(stderr.o)
 .text          0x00000000004334b4        0x0 0x4 /home/ashwin/pcn_compiler_lkvm/x86_64/lib/libc.a(stdout.o)
 .text          0x00000000004334b4        0x0 0x4 /home/ashwin/pcn_compiler_lkvm/x86_64/lib/libc.a(vdprintf.o)
 .text.vdprintf
                0x00000000004334b4       0x6d 0x1 /home/ashwin/pcn_compiler_lkvm/x86_64/lib/libc.a(vdprintf.o)
                0x00000000004334b4                vdprintf
 .text.wrap_write
                0x0000000000433521        0x5 0x1 /home/ashwin/pcn_compiler_lkvm/x86_64/lib/libc.a(vdprintf.o)
 ** fill        0x0000000000433526        0x2
 .text          0x0000000000433528        0x0 0x4 /home/ashwin/pcn_compiler_lkvm/x86_64/lib/libc.a(vfprintf.o)
 .text.vfprintf
                0x0000000000433528      0x1ab 0x1 /home/ashwin/pcn_compiler_lkvm/x86_64/lib/libc.a(vfprintf.o)
                0x0000000000433528                vfprintf
 .text.printf_core
                0x00000000004336d3     0x1bc3 0x1 /home/ashwin/pcn_compiler_lkvm/x86_64/lib/libc.a(vfprintf.o)
 .text.pop_arg  0x0000000000435296      0x1cc 0x1 /home/ashwin/pcn_compiler_lkvm/x86_64/lib/libc.a(vfprintf.o)
 .text.pad      0x0000000000435462       0xbc 0x1 /home/ashwin/pcn_compiler_lkvm/x86_64/lib/libc.a(vfprintf.o)
 ** fill        0x000000000043551e        0x2
 .text          0x0000000000435520        0x0 0x4 /home/ashwin/pcn_compiler_lkvm/x86_64/lib/libc.a(vfscanf.o)
 .text.vfscanf  0x0000000000435520      0xbad 0x1 /home/ashwin/pcn_compiler_lkvm/x86_64/lib/libc.a(vfscanf.o)
                0x0000000000435520                __isoc99_vfscanf
                0x0000000000435520                vfscanf
 ** fill        0x00000000004360cd        0x3
 .text          0x00000000004360d0        0x0 0x4 /home/ashwin/pcn_compiler_lkvm/x86_64/lib/libc.a(vsnprintf.o)
 .text.vsnprintf
                0x00000000004360d0       0xc1 0x1 /home/ashwin/pcn_compiler_lkvm/x86_64/lib/libc.a(vsnprintf.o)
                0x00000000004360d0                vsnprintf
 .text.sn_write
                0x0000000000436191       0xb7 0x1 /home/ashwin/pcn_compiler_lkvm/x86_64/lib/libc.a(vsnprintf.o)
 .text          0x0000000000436248        0x0 0x4 /home/ashwin/pcn_compiler_lkvm/x86_64/lib/libc.a(vsprintf.o)
 .text.vsprintf
                0x0000000000436248       0x10 0x1 /home/ashwin/pcn_compiler_lkvm/x86_64/lib/libc.a(vsprintf.o)
                0x0000000000436248                vsprintf
 .text          0x0000000000436258        0x0 0x4 /home/ashwin/pcn_compiler_lkvm/x86_64/lib/libc.a(vsscanf.o)
 .text.vsscanf  0x0000000000436258       0x63 0x1 /home/ashwin/pcn_compiler_lkvm/x86_64/lib/libc.a(vsscanf.o)
                0x0000000000436258                __isoc99_vsscanf
                0x0000000000436258                vsscanf
 .text.do_read  0x00000000004362bb        0x5 0x1 /home/ashwin/pcn_compiler_lkvm/x86_64/lib/libc.a(vsscanf.o)
 .text          0x00000000004362c0        0x0 0x4 /home/ashwin/pcn_compiler_lkvm/x86_64/lib/libc.a(atoi.o)
 .text.atoi     0x00000000004362c0       0x5a 0x1 /home/ashwin/pcn_compiler_lkvm/x86_64/lib/libc.a(atoi.o)
                0x00000000004362c0                atoi
 ** fill        0x000000000043631a        0x2
 .text          0x000000000043631c        0x0 0x4 /home/ashwin/pcn_compiler_lkvm/x86_64/lib/libc.a(strtol.o)
 .text.strtoull
                0x000000000043631c        0xc 0x1 /home/ashwin/pcn_compiler_lkvm/x86_64/lib/libc.a(strtol.o)
                0x000000000043631c                __strtoull_internal
                0x000000000043631c                strtoull
 .text.strtox   0x0000000000436328       0xa3 0x1 /home/ashwin/pcn_compiler_lkvm/x86_64/lib/libc.a(strtol.o)
 .text.strtoll  0x00000000004363cb        0xf 0x1 /home/ashwin/pcn_compiler_lkvm/x86_64/lib/libc.a(strtol.o)
                0x00000000004363cb                __strtoll_internal
                0x00000000004363cb                strtoll
 .text.strtoul  0x00000000004363da        0xc 0x1 /home/ashwin/pcn_compiler_lkvm/x86_64/lib/libc.a(strtol.o)
                0x00000000004363da                __strtoul_internal
                0x00000000004363da                strtoul
 .text.strtol   0x00000000004363e6        0xf 0x1 /home/ashwin/pcn_compiler_lkvm/x86_64/lib/libc.a(strtol.o)
                0x00000000004363e6                __strtol_internal
                0x00000000004363e6                strtol
 .text.strtoimax
                0x00000000004363f5        0xf 0x1 /home/ashwin/pcn_compiler_lkvm/x86_64/lib/libc.a(strtol.o)
                0x00000000004363f5                __strtoimax_internal
                0x00000000004363f5                strtoimax
 .text.strtoumax
                0x0000000000436404        0xc 0x1 /home/ashwin/pcn_compiler_lkvm/x86_64/lib/libc.a(strtol.o)
                0x0000000000436404                __strtoumax_internal
                0x0000000000436404                strtoumax
 .text          0x0000000000436410        0x0 0x4 /home/ashwin/pcn_compiler_lkvm/x86_64/lib/libc.a(memchr.o)
 .text.memchr   0x0000000000436410       0xb2 0x10 /home/ashwin/pcn_compiler_lkvm/x86_64/lib/libc.a(memchr.o)
                0x0000000000436410                memchr
 ** fill        0x00000000004364c2        0x2
 .text          0x00000000004364c4        0x0 0x4 /home/ashwin/pcn_compiler_lkvm/x86_64/lib/libc.a(memcmp.o)
 ** fill        0x00000000004364c4        0xc
 .text.memcmp   0x00000000004364d0       0x34 0x10 /home/ashwin/pcn_compiler_lkvm/x86_64/lib/libc.a(memcmp.o)
                0x00000000004364d0                memcmp
 .text          0x0000000000436504        0x0 0x4 /home/ashwin/pcn_compiler_lkvm/x86_64/lib/libc.a(strcasestr.o)
 ** fill        0x0000000000436504        0xc
 .text.strcasestr
                0x0000000000436510       0x47 0x10 /home/ashwin/pcn_compiler_lkvm/x86_64/lib/libc.a(strcasestr.o)
                0x0000000000436510                strcasestr
 ** fill        0x0000000000436557        0x1
 .text          0x0000000000436558        0x0 0x4 /home/ashwin/pcn_compiler_lkvm/x86_64/lib/libc.a(strcat.o)
 ** fill        0x0000000000436558        0x8
 .text.strcat   0x0000000000436560       0x26 0x10 /home/ashwin/pcn_compiler_lkvm/x86_64/lib/libc.a(strcat.o)
                0x0000000000436560                strcat
 ** fill        0x0000000000436586        0x2
 .text          0x0000000000436588        0x0 0x4 /home/ashwin/pcn_compiler_lkvm/x86_64/lib/libc.a(strchr.o)
 ** fill        0x0000000000436588        0x8
 .text.strchr   0x0000000000436590       0x12 0x10 /home/ashwin/pcn_compiler_lkvm/x86_64/lib/libc.a(strchr.o)
                0x0000000000436590                strchr
 ** fill        0x00000000004365a2        0x2
 .text          0x00000000004365a4        0x0 0x4 /home/ashwin/pcn_compiler_lkvm/x86_64/lib/libc.a(strchrnul.o)
 ** fill        0x00000000004365a4        0xc
 .text.__strchrnul
                0x00000000004365b0       0xf8 0x10 /home/ashwin/pcn_compiler_lkvm/x86_64/lib/libc.a(strchrnul.o)
                0x00000000004365b0                __strchrnul
                0x00000000004365b0                strchrnul
 .text          0x00000000004366a8        0x0 0x4 /home/ashwin/pcn_compiler_lkvm/x86_64/lib/libc.a(strcmp.o)
 ** fill        0x00000000004366a8        0x8
 .text.strcmp   0x00000000004366b0       0x35 0x10 /home/ashwin/pcn_compiler_lkvm/x86_64/lib/libc.a(strcmp.o)
                0x00000000004366b0                strcmp
 ** fill        0x00000000004366e5        0x3
 .text          0x00000000004366e8        0x0 0x4 /home/ashwin/pcn_compiler_lkvm/x86_64/lib/libc.a(strcpy.o)
 ** fill        0x00000000004366e8        0x8
 .text.strcpy   0x00000000004366f0        0xe 0x10 /home/ashwin/pcn_compiler_lkvm/x86_64/lib/libc.a(strcpy.o)
                0x00000000004366f0                strcpy
 ** fill        0x00000000004366fe        0x2
 .text          0x0000000000436700        0x0 0x4 /home/ashwin/pcn_compiler_lkvm/x86_64/lib/libc.a(strdup.o)
 .text.__strdup
                0x0000000000436700       0x40 0x10 /home/ashwin/pcn_compiler_lkvm/x86_64/lib/libc.a(strdup.o)
                0x0000000000436700                __strdup
                0x0000000000436700                strdup
 .text          0x0000000000436740        0x0 0x4 /home/ashwin/pcn_compiler_lkvm/x86_64/lib/libc.a(strlen.o)
 .text.strlen   0x0000000000436740       0x7e 0x10 /home/ashwin/pcn_compiler_lkvm/x86_64/lib/libc.a(strlen.o)
                0x0000000000436740                strlen
 ** fill        0x00000000004367be        0x2
 .text          0x00000000004367c0        0x0 0x4 /home/ashwin/pcn_compiler_lkvm/x86_64/lib/libc.a(strncasecmp.o)
 .text.strncasecmp
                0x00000000004367c0       0x95 0x10 /home/ashwin/pcn_compiler_lkvm/x86_64/lib/libc.a(strncasecmp.o)
                0x00000000004367c0                strncasecmp
 ** fill        0x0000000000436855        0xb
 .text.__strncasecmp_l
                0x0000000000436860       0x95 0x10 /home/ashwin/pcn_compiler_lkvm/x86_64/lib/libc.a(strncasecmp.o)
                0x0000000000436860                __strncasecmp_l
                0x0000000000436860                strncasecmp_l
 ** fill        0x00000000004368f5        0x3
 .text          0x00000000004368f8        0x0 0x4 /home/ashwin/pcn_compiler_lkvm/x86_64/lib/libc.a(strncmp.o)
 ** fill        0x00000000004368f8        0x8
 .text.strncmp  0x0000000000436900       0x3f 0x10 /home/ashwin/pcn_compiler_lkvm/x86_64/lib/libc.a(strncmp.o)
                0x0000000000436900                strncmp
 ** fill        0x000000000043693f        0x1
 .text          0x0000000000436940        0x0 0x4 /home/ashwin/pcn_compiler_lkvm/x86_64/lib/libc.a(strncpy.o)
 .text.strncpy  0x0000000000436940        0xe 0x10 /home/ashwin/pcn_compiler_lkvm/x86_64/lib/libc.a(strncpy.o)
                0x0000000000436940                strncpy
 ** fill        0x000000000043694e        0x2
 .text          0x0000000000436950        0x0 0x4 /home/ashwin/pcn_compiler_lkvm/x86_64/lib/libc.a(strndup.o)
 .text.strndup  0x0000000000436950       0x3d 0x10 /home/ashwin/pcn_compiler_lkvm/x86_64/lib/libc.a(strndup.o)
                0x0000000000436950                strndup
 ** fill        0x000000000043698d        0x3
 .text          0x0000000000436990        0x0 0x4 /home/ashwin/pcn_compiler_lkvm/x86_64/lib/libc.a(strnlen.o)
 .text.strnlen  0x0000000000436990       0x2c 0x10 /home/ashwin/pcn_compiler_lkvm/x86_64/lib/libc.a(strnlen.o)
                0x0000000000436990                strnlen
 .text          0x00000000004369bc        0x0 0x4 /home/ashwin/pcn_compiler_lkvm/x86_64/lib/libc.a(strspn.o)
 ** fill        0x00000000004369bc        0x4
 .text.strspn   0x00000000004369c0       0x8f 0x10 /home/ashwin/pcn_compiler_lkvm/x86_64/lib/libc.a(strspn.o)
                0x00000000004369c0                strspn
 ** fill        0x0000000000436a4f        0x1
 .text          0x0000000000436a50        0x0 0x4 /home/ashwin/pcn_compiler_lkvm/x86_64/lib/libc.a(strstr.o)
 .text.strstr   0x0000000000436a50      0x60c 0x10 /home/ashwin/pcn_compiler_lkvm/x86_64/lib/libc.a(strstr.o)
                0x0000000000436a50                strstr
 .text          0x000000000043705c        0x0 0x4 /home/ashwin/pcn_compiler_lkvm/x86_64/lib/libc.a(strtok.o)
 ** fill        0x000000000043705c        0x4
 .text.strtok   0x0000000000437060       0x80 0x10 /home/ashwin/pcn_compiler_lkvm/x86_64/lib/libc.a(strtok.o)
                0x0000000000437060                strtok
 .text          0x00000000004370e0        0x0 0x4 /home/ashwin/pcn_compiler_lkvm/x86_64/lib/libc.a(memcpy.o)
 .text.memcpy   0x00000000004370e0       0x32 0x1 /home/ashwin/pcn_compiler_lkvm/x86_64/lib/libc.a(memcpy.o)
                0x00000000004370e0                __memcpy_fwd
                0x00000000004370e0                memcpy
 ** fill        0x0000000000437112        0x2
 .text          0x0000000000437114        0x0 0x4 /home/ashwin/pcn_compiler_lkvm/x86_64/lib/libc.a(memmove.o)
 .text.memmove  0x0000000000437114       0x25 0x1 /home/ashwin/pcn_compiler_lkvm/x86_64/lib/libc.a(memmove.o)
                0x0000000000437114                memmove
 ** fill        0x0000000000437139        0x3
 .text          0x000000000043713c        0x0 0x4 /home/ashwin/pcn_compiler_lkvm/x86_64/lib/libc.a(memset.o)
 .text.memset   0x000000000043713c       0xc4 0x1 /home/ashwin/pcn_compiler_lkvm/x86_64/lib/libc.a(memset.o)
                0x000000000043713c                memset
 .text          0x0000000000437200        0x0 0x4 /home/ashwin/pcn_compiler_lkvm/x86_64/lib/libc.a(mkstemp.o)
 .text.mkstemp  0x0000000000437200        0x9 0x1 /home/ashwin/pcn_compiler_lkvm/x86_64/lib/libc.a(mkstemp.o)
                0x0000000000437200                mkstemp
                0x0000000000437200                mkstemp64
 ** fill        0x0000000000437209        0x3
 .text          0x000000000043720c        0x0 0x4 /home/ashwin/pcn_compiler_lkvm/x86_64/lib/libc.a(tcgetattr.o)
 .text.tcgetattr
                0x000000000043720c       0x16 0x1 /home/ashwin/pcn_compiler_lkvm/x86_64/lib/libc.a(tcgetattr.o)
                0x000000000043720c                tcgetattr
 ** fill        0x0000000000437222        0x2
 .text          0x0000000000437224        0x0 0x4 /home/ashwin/pcn_compiler_lkvm/x86_64/lib/libc.a(tcsetattr.o)
 .text.tcsetattr
                0x0000000000437224       0x27 0x1 /home/ashwin/pcn_compiler_lkvm/x86_64/lib/libc.a(tcsetattr.o)
                0x0000000000437224                tcsetattr
 ** fill        0x000000000043724b        0x1
 .text          0x000000000043724c        0x0 0x4 /home/ashwin/pcn_compiler_lkvm/x86_64/lib/libc.a(__lock.o)
 .text.__lock   0x000000000043724c       0x47 0x1 /home/ashwin/pcn_compiler_lkvm/x86_64/lib/libc.a(__lock.o)
                0x000000000043724c                __lock
 .text.__unlock
                0x0000000000437293       0x3d 0x1 /home/ashwin/pcn_compiler_lkvm/x86_64/lib/libc.a(__lock.o)
                0x0000000000437293                __unlock
 .text          0x00000000004372d0        0x0 0x4 /home/ashwin/pcn_compiler_lkvm/x86_64/lib/libc.a(__syscall_cp.o)
 .text.sccp     0x00000000004372d0       0x13 0x1 /home/ashwin/pcn_compiler_lkvm/x86_64/lib/libc.a(__syscall_cp.o)
                0x00000000004372d0                __syscall_cp_c
 .text.__syscall_cp
                0x00000000004372e3        0x5 0x1 /home/ashwin/pcn_compiler_lkvm/x86_64/lib/libc.a(__syscall_cp.o)
                0x00000000004372e3                __syscall_cp
 .text          0x00000000004372e8        0x0 0x4 /home/ashwin/pcn_compiler_lkvm/x86_64/lib/libc.a(__wait.o)
 .text.__wait   0x00000000004372e8       0x78 0x1 /home/ashwin/pcn_compiler_lkvm/x86_64/lib/libc.a(__wait.o)
                0x00000000004372e8                __wait
 .text          0x0000000000437360        0x0 0x4 /home/ashwin/pcn_compiler_lkvm/x86_64/lib/libc.a(pthread_cleanup_push.o)
 .text.dummy    0x0000000000437360        0x1 0x1 /home/ashwin/pcn_compiler_lkvm/x86_64/lib/libc.a(pthread_cleanup_push.o)
 .text._pthread_cleanup_push
                0x0000000000437361        0xc 0x1 /home/ashwin/pcn_compiler_lkvm/x86_64/lib/libc.a(pthread_cleanup_push.o)
                0x0000000000437361                _pthread_cleanup_push
 .text._pthread_cleanup_pop
                0x000000000043736d       0x1e 0x1 /home/ashwin/pcn_compiler_lkvm/x86_64/lib/libc.a(pthread_cleanup_push.o)
                0x000000000043736d                _pthread_cleanup_pop
 ** fill        0x000000000043738b        0x1
 .text          0x000000000043738c        0x0 0x4 /home/ashwin/pcn_compiler_lkvm/x86_64/lib/libc.a(pthread_cond_init.o)
 .text.pthread_cond_init
                0x000000000043738c       0x4c 0x1 /home/ashwin/pcn_compiler_lkvm/x86_64/lib/libc.a(pthread_cond_init.o)
                0x000000000043738c                pthread_cond_init
 .text          0x00000000004373d8        0x0 0x4 /home/ashwin/pcn_compiler_lkvm/x86_64/lib/libc.a(pthread_cond_signal.o)
 .text.pthread_cond_signal
                0x00000000004373d8       0x52 0x1 /home/ashwin/pcn_compiler_lkvm/x86_64/lib/libc.a(pthread_cond_signal.o)
                0x00000000004373d8                pthread_cond_signal
 ** fill        0x000000000043742a        0x2
 .text          0x000000000043742c        0x0 0x4 /home/ashwin/pcn_compiler_lkvm/x86_64/lib/libc.a(pthread_cond_timedwait.o)
 .text.__pthread_cond_timedwait
                0x000000000043742c      0x4ca 0x1 /home/ashwin/pcn_compiler_lkvm/x86_64/lib/libc.a(pthread_cond_timedwait.o)
                0x000000000043742c                __pthread_cond_timedwait
                0x000000000043742c                pthread_cond_timedwait
 .text.__private_cond_signal
                0x00000000004378f6      0x181 0x1 /home/ashwin/pcn_compiler_lkvm/x86_64/lib/libc.a(pthread_cond_timedwait.o)
                0x00000000004378f6                __private_cond_signal
 ** fill        0x0000000000437a77        0x1
 .text          0x0000000000437a78        0x0 0x4 /home/ashwin/pcn_compiler_lkvm/x86_64/lib/libc.a(pthread_cond_wait.o)
 .text.pthread_cond_wait
                0x0000000000437a78        0x7 0x1 /home/ashwin/pcn_compiler_lkvm/x86_64/lib/libc.a(pthread_cond_wait.o)
                0x0000000000437a78                pthread_cond_wait
 ** fill        0x0000000000437a7f        0x1
 .text          0x0000000000437a80        0x0 0x4 /home/ashwin/pcn_compiler_lkvm/x86_64/lib/libc.a(pthread_create.o)
 .text.dummy_0  0x0000000000437a80        0x1 0x1 /home/ashwin/pcn_compiler_lkvm/x86_64/lib/libc.a(pthread_create.o)
                0x0000000000437a80                __acquire_ptc
                0x0000000000437a80                __dl_thread_cleanup
                0x0000000000437a80                __do_orphaned_stdio_locks
                0x0000000000437a80                __pthread_tsd_run_dtors
                0x0000000000437a80                __release_ptc
 .text.__pthread_exit
                0x0000000000437a81      0x1bb 0x1 /home/ashwin/pcn_compiler_lkvm/x86_64/lib/libc.a(pthread_create.o)
                0x0000000000437a81                __pthread_exit
                0x0000000000437a81                pthread_exit
 .text.__do_cleanup_push
                0x0000000000437c3c       0x1c 0x1 /home/ashwin/pcn_compiler_lkvm/x86_64/lib/libc.a(pthread_create.o)
                0x0000000000437c3c                __do_cleanup_push
 .text.__do_cleanup_pop
                0x0000000000437c58       0x15 0x1 /home/ashwin/pcn_compiler_lkvm/x86_64/lib/libc.a(pthread_create.o)
                0x0000000000437c58                __do_cleanup_pop
 .text.__pthread_create
                0x0000000000437c6d      0x5c7 0x1 /home/ashwin/pcn_compiler_lkvm/x86_64/lib/libc.a(pthread_create.o)
                0x0000000000437c6d                __pthread_create
                0x0000000000437c6d                pthread_create
 .text.start_c11
                0x0000000000438234       0x19 0x1 /home/ashwin/pcn_compiler_lkvm/x86_64/lib/libc.a(pthread_create.o)
 .text.start    0x000000000043824d       0x94 0x1 /home/ashwin/pcn_compiler_lkvm/x86_64/lib/libc.a(pthread_create.o)
 ** fill        0x00000000004382e1        0x3
 .text          0x00000000004382e4        0x0 0x4 /home/ashwin/pcn_compiler_lkvm/x86_64/lib/libc.a(pthread_join.o)
 .text.__pthread_timedjoin_np
                0x00000000004382e4       0xc4 0x1 /home/ashwin/pcn_compiler_lkvm/x86_64/lib/libc.a(pthread_join.o)
                0x00000000004382e4                __pthread_timedjoin_np
                0x00000000004382e4                pthread_timedjoin_np
 .text.__pthread_join
                0x00000000004383a8        0x7 0x1 /home/ashwin/pcn_compiler_lkvm/x86_64/lib/libc.a(pthread_join.o)
                0x00000000004383a8                __pthread_join
                0x00000000004383a8                pthread_join
 .text.__pthread_tryjoin_np
                0x00000000004383af       0x15 0x1 /home/ashwin/pcn_compiler_lkvm/x86_64/lib/libc.a(pthread_join.o)
                0x00000000004383af                __pthread_tryjoin_np
                0x00000000004383af                pthread_tryjoin_np
 .text          0x00000000004383c4        0x0 0x4 /home/ashwin/pcn_compiler_lkvm/x86_64/lib/libc.a(pthread_kill.o)
 .text.pthread_kill
                0x00000000004383c4       0x52 0x1 /home/ashwin/pcn_compiler_lkvm/x86_64/lib/libc.a(pthread_kill.o)
                0x00000000004383c4                pthread_kill
 ** fill        0x0000000000438416        0x2
 .text          0x0000000000438418        0x0 0x4 /home/ashwin/pcn_compiler_lkvm/x86_64/lib/libc.a(pthread_mutex_init.o)
 .text.pthread_mutex_init
                0x0000000000438418       0x3a 0x1 /home/ashwin/pcn_compiler_lkvm/x86_64/lib/libc.a(pthread_mutex_init.o)
                0x0000000000438418                pthread_mutex_init
 ** fill        0x0000000000438452        0x2
 .text          0x0000000000438454        0x0 0x4 /home/ashwin/pcn_compiler_lkvm/x86_64/lib/libc.a(pthread_mutex_lock.o)
 .text.__pthread_mutex_lock
                0x0000000000438454       0x25 0x1 /home/ashwin/pcn_compiler_lkvm/x86_64/lib/libc.a(pthread_mutex_lock.o)
                0x0000000000438454                __pthread_mutex_lock
                0x0000000000438454                pthread_mutex_lock
 ** fill        0x0000000000438479        0x3
 .text          0x000000000043847c        0x0 0x4 /home/ashwin/pcn_compiler_lkvm/x86_64/lib/libc.a(pthread_mutex_timedlock.o)
 .text.__pthread_mutex_timedlock
                0x000000000043847c      0x104 0x1 /home/ashwin/pcn_compiler_lkvm/x86_64/lib/libc.a(pthread_mutex_timedlock.o)
                0x000000000043847c                __pthread_mutex_timedlock
                0x000000000043847c                pthread_mutex_timedlock
 .text          0x0000000000438580        0x0 0x4 /home/ashwin/pcn_compiler_lkvm/x86_64/lib/libc.a(pthread_mutex_trylock.o)
 .text.__pthread_mutex_trylock_owner
                0x0000000000438580      0x133 0x1 /home/ashwin/pcn_compiler_lkvm/x86_64/lib/libc.a(pthread_mutex_trylock.o)
                0x0000000000438580                __pthread_mutex_trylock_owner
 .text.__pthread_mutex_trylock
                0x00000000004386b3       0x1e 0x1 /home/ashwin/pcn_compiler_lkvm/x86_64/lib/libc.a(pthread_mutex_trylock.o)
                0x00000000004386b3                __pthread_mutex_trylock
                0x00000000004386b3                pthread_mutex_trylock
 ** fill        0x00000000004386d1        0x3
 .text          0x00000000004386d4        0x0 0x4 /home/ashwin/pcn_compiler_lkvm/x86_64/lib/libc.a(pthread_mutex_unlock.o)
 .text.__pthread_mutex_unlock
                0x00000000004386d4      0x110 0x1 /home/ashwin/pcn_compiler_lkvm/x86_64/lib/libc.a(pthread_mutex_unlock.o)
                0x00000000004386d4                __pthread_mutex_unlock
                0x00000000004386d4                pthread_mutex_unlock
 .text          0x00000000004387e4        0x0 0x4 /home/ashwin/pcn_compiler_lkvm/x86_64/lib/libc.a(pthread_rwlock_rdlock.o)
 .text.pthread_rwlock_rdlock
                0x00000000004387e4        0x7 0x1 /home/ashwin/pcn_compiler_lkvm/x86_64/lib/libc.a(pthread_rwlock_rdlock.o)
                0x00000000004387e4                pthread_rwlock_rdlock
 ** fill        0x00000000004387eb        0x1
 .text          0x00000000004387ec        0x0 0x4 /home/ashwin/pcn_compiler_lkvm/x86_64/lib/libc.a(pthread_rwlock_timedrdlock.o)
 .text.pthread_rwlock_timedrdlock
                0x00000000004387ec       0xaf 0x1 /home/ashwin/pcn_compiler_lkvm/x86_64/lib/libc.a(pthread_rwlock_timedrdlock.o)
                0x00000000004387ec                pthread_rwlock_timedrdlock
 ** fill        0x000000000043889b        0x1
 .text          0x000000000043889c        0x0 0x4 /home/ashwin/pcn_compiler_lkvm/x86_64/lib/libc.a(pthread_rwlock_tryrdlock.o)
 .text.pthread_rwlock_tryrdlock
                0x000000000043889c       0x33 0x1 /home/ashwin/pcn_compiler_lkvm/x86_64/lib/libc.a(pthread_rwlock_tryrdlock.o)
                0x000000000043889c                pthread_rwlock_tryrdlock
 ** fill        0x00000000004388cf        0x1
 .text          0x00000000004388d0        0x0 0x4 /home/ashwin/pcn_compiler_lkvm/x86_64/lib/libc.a(pthread_rwlock_unlock.o)
 .text.pthread_rwlock_unlock
                0x00000000004388d0       0x62 0x1 /home/ashwin/pcn_compiler_lkvm/x86_64/lib/libc.a(pthread_rwlock_unlock.o)
                0x00000000004388d0                pthread_rwlock_unlock
 ** fill        0x0000000000438932        0x2
 .text          0x0000000000438934        0x0 0x4 /home/ashwin/pcn_compiler_lkvm/x86_64/lib/libc.a(pthread_rwlock_wrlock.o)
 .text.pthread_rwlock_wrlock
                0x0000000000438934        0x7 0x1 /home/ashwin/pcn_compiler_lkvm/x86_64/lib/libc.a(pthread_rwlock_wrlock.o)
                0x0000000000438934                pthread_rwlock_wrlock
 ** fill        0x000000000043893b        0x1
 .text          0x000000000043893c        0x0 0x4 /home/ashwin/pcn_compiler_lkvm/x86_64/lib/libc.a(pthread_setcancelstate.o)
 .text.__pthread_setcancelstate
                0x000000000043893c       0x23 0x1 /home/ashwin/pcn_compiler_lkvm/x86_64/lib/libc.a(pthread_setcancelstate.o)
                0x000000000043893c                __pthread_setcancelstate
                0x000000000043893c                pthread_setcancelstate
 ** fill        0x000000000043895f        0x1
 .text          0x0000000000438960        0x0 0x4 /home/ashwin/pcn_compiler_lkvm/x86_64/lib/libc.a(pthread_testcancel.o)
 .text.__pthread_testcancel
                0x0000000000438960        0x7 0x1 /home/ashwin/pcn_compiler_lkvm/x86_64/lib/libc.a(pthread_testcancel.o)
                0x0000000000438960                __pthread_testcancel
                0x0000000000438960                pthread_testcancel
 .text.dummy    0x0000000000438967        0x1 0x1 /home/ashwin/pcn_compiler_lkvm/x86_64/lib/libc.a(pthread_testcancel.o)
                0x0000000000438967                __testcancel
 .text          0x0000000000438968        0x0 0x4 /home/ashwin/pcn_compiler_lkvm/x86_64/lib/libc.a(vmlock.o)
 .text.__vm_wait
                0x0000000000438968       0x23 0x1 /home/ashwin/pcn_compiler_lkvm/x86_64/lib/libc.a(vmlock.o)
                0x0000000000438968                __vm_wait
 .text.__vm_lock
                0x000000000043898b        0x8 0x1 /home/ashwin/pcn_compiler_lkvm/x86_64/lib/libc.a(vmlock.o)
                0x000000000043898b                __vm_lock
 .text.__vm_unlock
                0x0000000000438993       0x4e 0x1 /home/ashwin/pcn_compiler_lkvm/x86_64/lib/libc.a(vmlock.o)
                0x0000000000438993                __vm_unlock
 ** fill        0x00000000004389e1        0x3
 .text          0x00000000004389e4        0x0 0x4 /home/ashwin/pcn_compiler_lkvm/x86_64/lib/libc.a(__cleartid_exit_nostack.o)
 .text.__cleartid_exit_nostack
                0x00000000004389e4       0x2e 0x1 /home/ashwin/pcn_compiler_lkvm/x86_64/lib/libc.a(__cleartid_exit_nostack.o)
                0x00000000004389e4                __cleartid_exit_nostack
 ** fill        0x0000000000438a12        0x2
 .text          0x0000000000438a14        0x0 0x4 /home/ashwin/pcn_compiler_lkvm/x86_64/lib/libc.a(__unmapself.o)
 .text.__unmapself
                0x0000000000438a14       0x11 0x1 /home/ashwin/pcn_compiler_lkvm/x86_64/lib/libc.a(__unmapself.o)
                0x0000000000438a14                __unmapself
 ** fill        0x0000000000438a25        0x3
 .text          0x0000000000438a28        0x0 0x4 /home/ashwin/pcn_compiler_lkvm/x86_64/lib/libc.a(clone.o)
 .text.__clone  0x0000000000438a28       0x39 0x1 /home/ashwin/pcn_compiler_lkvm/x86_64/lib/libc.a(clone.o)
                0x0000000000438a28                __clone
 ** fill        0x0000000000438a61        0x3
 .text          0x0000000000438a64        0x0 0x4 /home/ashwin/pcn_compiler_lkvm/x86_64/lib/libc.a(gmtime.o)
 .text.gmtime   0x0000000000438a64        0xa 0x1 /home/ashwin/pcn_compiler_lkvm/x86_64/lib/libc.a(gmtime.o)
                0x0000000000438a64                gmtime
 ** fill        0x0000000000438a6e        0x2
 .text          0x0000000000438a70        0x0 0x4 /home/ashwin/pcn_compiler_lkvm/x86_64/lib/libc.a(gmtime_r.o)
 .text.__gmtime_r
                0x0000000000438a70       0x3b 0x1 /home/ashwin/pcn_compiler_lkvm/x86_64/lib/libc.a(gmtime_r.o)
                0x0000000000438a70                __gmtime_r
                0x0000000000438a70                gmtime_r
 ** fill        0x0000000000438aab        0x1
 .text          0x0000000000438aac        0x0 0x4 /home/ashwin/pcn_compiler_lkvm/x86_64/lib/libc.a(time.o)
 .text.time     0x0000000000438aac       0x2c 0x1 /home/ashwin/pcn_compiler_lkvm/x86_64/lib/libc.a(time.o)
                0x0000000000438aac                time
 .text          0x0000000000438ad8        0x0 0x4 /home/ashwin/pcn_compiler_lkvm/x86_64/lib/libc.a(_exit.o)
 .text._exit    0x0000000000438ad8        0x6 0x1 /home/ashwin/pcn_compiler_lkvm/x86_64/lib/libc.a(_exit.o)
                0x0000000000438ad8                _exit
 ** fill        0x0000000000438ade        0x2
 .text          0x0000000000438ae0        0x0 0x4 /home/ashwin/pcn_compiler_lkvm/x86_64/lib/libc.a(access.o)
 .text.access   0x0000000000438ae0       0x12 0x1 /home/ashwin/pcn_compiler_lkvm/x86_64/lib/libc.a(access.o)
                0x0000000000438ae0                access
 ** fill        0x0000000000438af2        0x2
 .text          0x0000000000438af4        0x0 0x4 /home/ashwin/pcn_compiler_lkvm/x86_64/lib/libc.a(close.o)
 .text.dummy    0x0000000000438af4        0x3 0x1 /home/ashwin/pcn_compiler_lkvm/x86_64/lib/libc.a(close.o)
                0x0000000000438af4                __aio_close
 .text.close    0x0000000000438af7       0x3b 0x1 /home/ashwin/pcn_compiler_lkvm/x86_64/lib/libc.a(close.o)
                0x0000000000438af7                close
 ** fill        0x0000000000438b32        0x2
 .text          0x0000000000438b34        0x0 0x4 /home/ashwin/pcn_compiler_lkvm/x86_64/lib/libc.a(fdatasync.o)
 .text.fdatasync
                0x0000000000438b34       0x29 0x1 /home/ashwin/pcn_compiler_lkvm/x86_64/lib/libc.a(fdatasync.o)
                0x0000000000438b34                fdatasync
 ** fill        0x0000000000438b5d        0x3
 .text          0x0000000000438b60        0x0 0x4 /home/ashwin/pcn_compiler_lkvm/x86_64/lib/libc.a(fsync.o)
 .text.fsync    0x0000000000438b60       0x29 0x1 /home/ashwin/pcn_compiler_lkvm/x86_64/lib/libc.a(fsync.o)
                0x0000000000438b60                fsync
 ** fill        0x0000000000438b89        0x3
 .text          0x0000000000438b8c        0x0 0x4 /home/ashwin/pcn_compiler_lkvm/x86_64/lib/libc.a(ftruncate.o)
 .text.ftruncate
                0x0000000000438b8c       0x12 0x1 /home/ashwin/pcn_compiler_lkvm/x86_64/lib/libc.a(ftruncate.o)
                0x0000000000438b8c                ftruncate
                0x0000000000438b8c                ftruncate64
 ** fill        0x0000000000438b9e        0x2
 .text          0x0000000000438ba0        0x0 0x4 /home/ashwin/pcn_compiler_lkvm/x86_64/lib/libc.a(getpid.o)
 .text.getpid   0x0000000000438ba0        0x8 0x1 /home/ashwin/pcn_compiler_lkvm/x86_64/lib/libc.a(getpid.o)
                0x0000000000438ba0                getpid
 .text          0x0000000000438ba8        0x0 0x4 /home/ashwin/pcn_compiler_lkvm/x86_64/lib/libc.a(isatty.o)
 .text.isatty   0x0000000000438ba8       0x1f 0x1 /home/ashwin/pcn_compiler_lkvm/x86_64/lib/libc.a(isatty.o)
                0x0000000000438ba8                isatty
 ** fill        0x0000000000438bc7        0x1
 .text          0x0000000000438bc8        0x0 0x4 /home/ashwin/pcn_compiler_lkvm/x86_64/lib/libc.a(lchown.o)
 .text.lchown   0x0000000000438bc8       0x13 0x1 /home/ashwin/pcn_compiler_lkvm/x86_64/lib/libc.a(lchown.o)
                0x0000000000438bc8                lchown
 ** fill        0x0000000000438bdb        0x1
 .text          0x0000000000438bdc        0x0 0x4 /home/ashwin/pcn_compiler_lkvm/x86_64/lib/libc.a(link.o)
 .text.link     0x0000000000438bdc        0xf 0x1 /home/ashwin/pcn_compiler_lkvm/x86_64/lib/libc.a(link.o)
                0x0000000000438bdc                link
 ** fill        0x0000000000438beb        0x1
 .text          0x0000000000438bec        0x0 0x4 /home/ashwin/pcn_compiler_lkvm/x86_64/lib/libc.a(lseek.o)
 .text.lseek    0x0000000000438bec       0x15 0x1 /home/ashwin/pcn_compiler_lkvm/x86_64/lib/libc.a(lseek.o)
                0x0000000000438bec                lseek
                0x0000000000438bec                lseek64
 ** fill        0x0000000000438c01        0x3
 .text          0x0000000000438c04        0x0 0x4 /home/ashwin/pcn_compiler_lkvm/x86_64/lib/libc.a(pread.o)
 .text.pread    0x0000000000438c04       0x2b 0x1 /home/ashwin/pcn_compiler_lkvm/x86_64/lib/libc.a(pread.o)
                0x0000000000438c04                pread
                0x0000000000438c04                pread64
 ** fill        0x0000000000438c2f        0x1
 .text          0x0000000000438c30        0x0 0x4 /home/ashwin/pcn_compiler_lkvm/x86_64/lib/libc.a(preadv.o)
 .text.preadv   0x0000000000438c30       0x32 0x1 /home/ashwin/pcn_compiler_lkvm/x86_64/lib/libc.a(preadv.o)
                0x0000000000438c30                preadv
                0x0000000000438c30                preadv64
 ** fill        0x0000000000438c62        0x2
 .text          0x0000000000438c64        0x0 0x4 /home/ashwin/pcn_compiler_lkvm/x86_64/lib/libc.a(pwrite.o)
 .text.pwrite   0x0000000000438c64       0x2b 0x1 /home/ashwin/pcn_compiler_lkvm/x86_64/lib/libc.a(pwrite.o)
                0x0000000000438c64                pwrite
                0x0000000000438c64                pwrite64
 ** fill        0x0000000000438c8f        0x1
 .text          0x0000000000438c90        0x0 0x4 /home/ashwin/pcn_compiler_lkvm/x86_64/lib/libc.a(pwritev.o)
 .text.pwritev  0x0000000000438c90       0x32 0x1 /home/ashwin/pcn_compiler_lkvm/x86_64/lib/libc.a(pwritev.o)
                0x0000000000438c90                pwritev
                0x0000000000438c90                pwritev64
 ** fill        0x0000000000438cc2        0x2
 .text          0x0000000000438cc4        0x0 0x4 /home/ashwin/pcn_compiler_lkvm/x86_64/lib/libc.a(read.o)
 .text.read     0x0000000000438cc4       0x28 0x1 /home/ashwin/pcn_compiler_lkvm/x86_64/lib/libc.a(read.o)
                0x0000000000438cc4                read
 .text          0x0000000000438cec        0x0 0x4 /home/ashwin/pcn_compiler_lkvm/x86_64/lib/libc.a(readlink.o)
 .text.readlink
                0x0000000000438cec        0xf 0x1 /home/ashwin/pcn_compiler_lkvm/x86_64/lib/libc.a(readlink.o)
                0x0000000000438cec                readlink
 ** fill        0x0000000000438cfb        0x1
 .text          0x0000000000438cfc        0x0 0x4 /home/ashwin/pcn_compiler_lkvm/x86_64/lib/libc.a(readv.o)
 .text.readv    0x0000000000438cfc       0x2e 0x1 /home/ashwin/pcn_compiler_lkvm/x86_64/lib/libc.a(readv.o)
                0x0000000000438cfc                readv
 ** fill        0x0000000000438d2a        0x2
 .text          0x0000000000438d2c        0x0 0x4 /home/ashwin/pcn_compiler_lkvm/x86_64/lib/libc.a(sleep.o)
 .text.sleep    0x0000000000438d2c       0x2b 0x1 /home/ashwin/pcn_compiler_lkvm/x86_64/lib/libc.a(sleep.o)
                0x0000000000438d2c                sleep
 ** fill        0x0000000000438d57        0x1
 .text          0x0000000000438d58        0x0 0x4 /home/ashwin/pcn_compiler_lkvm/x86_64/lib/libc.a(symlink.o)
 .text.symlink  0x0000000000438d58        0xf 0x1 /home/ashwin/pcn_compiler_lkvm/x86_64/lib/libc.a(symlink.o)
                0x0000000000438d58                symlink
 ** fill        0x0000000000438d67        0x1
 .text          0x0000000000438d68        0x0 0x4 /home/ashwin/pcn_compiler_lkvm/x86_64/lib/libc.a(truncate.o)
 .text.truncate
                0x0000000000438d68        0xf 0x1 /home/ashwin/pcn_compiler_lkvm/x86_64/lib/libc.a(truncate.o)
                0x0000000000438d68                truncate
                0x0000000000438d68                truncate64
 ** fill        0x0000000000438d77        0x1
 .text          0x0000000000438d78        0x0 0x4 /home/ashwin/pcn_compiler_lkvm/x86_64/lib/libc.a(unlink.o)
 .text.unlink   0x0000000000438d78        0xf 0x1 /home/ashwin/pcn_compiler_lkvm/x86_64/lib/libc.a(unlink.o)
                0x0000000000438d78                unlink
 ** fill        0x0000000000438d87        0x1
 .text          0x0000000000438d88        0x0 0x4 /home/ashwin/pcn_compiler_lkvm/x86_64/lib/libc.a(usleep.o)
 .text.usleep   0x0000000000438d88       0x38 0x1 /home/ashwin/pcn_compiler_lkvm/x86_64/lib/libc.a(usleep.o)
                0x0000000000438d88                usleep
 .text          0x0000000000438dc0        0x0 0x4 /home/ashwin/pcn_compiler_lkvm/x86_64/lib/libc.a(write.o)
 .text.write    0x0000000000438dc0       0x2b 0x1 /home/ashwin/pcn_compiler_lkvm/x86_64/lib/libc.a(write.o)
                0x0000000000438dc0                write
 ** fill        0x0000000000438deb        0x1
 .text          0x0000000000438dec        0x0 0x4 /home/ashwin/pcn_compiler_lkvm/x86_64/lib/libc.a(writev.o)
 .text.writev   0x0000000000438dec       0x2e 0x1 /home/ashwin/pcn_compiler_lkvm/x86_64/lib/libc.a(writev.o)
                0x0000000000438dec                writev
 ** fill        0x0000000000438e1a        0x2
 .text          0x0000000000438e1c        0x0 0x4 /home/ashwin/pcn_compiler_lkvm/x86_64/lib/libc.a(tolower.o)
 .text.tolower  0x0000000000438e1c        0xf 0x1 /home/ashwin/pcn_compiler_lkvm/x86_64/lib/libc.a(tolower.o)
                0x0000000000438e1c                tolower
 .text.__tolower_l
                0x0000000000438e2b        0xf 0x1 /home/ashwin/pcn_compiler_lkvm/x86_64/lib/libc.a(tolower.o)
                0x0000000000438e2b                __tolower_l
                0x0000000000438e2b                tolower_l
 ** fill        0x0000000000438e3a        0x2
 .text          0x0000000000438e3c        0x0 0x4 /home/ashwin/pcn_compiler_lkvm/x86_64/lib/libc.a(__environ.o)
 .text          0x0000000000438e3c        0x0 0x4 /home/ashwin/pcn_compiler_lkvm/x86_64/lib/libc.a(__init_tls.o)
 .text.__init_tp
                0x0000000000438e3c       0x50 0x1 /home/ashwin/pcn_compiler_lkvm/x86_64/lib/libc.a(__init_tls.o)
                0x0000000000438e3c                __init_tp
 .text.__copy_tls
                0x0000000000438e8c       0xa5 0x1 /home/ashwin/pcn_compiler_lkvm/x86_64/lib/libc.a(__init_tls.o)
                0x0000000000438e8c                __copy_tls
 .text.static_init_tls
                0x0000000000438f31      0x142 0x1 /home/ashwin/pcn_compiler_lkvm/x86_64/lib/libc.a(__init_tls.o)
                0x0000000000438f31                __init_tls
 ** fill        0x0000000000439073        0x1
 .text          0x0000000000439074        0x0 0x4 /home/ashwin/pcn_compiler_lkvm/x86_64/lib/libc.a(platform.o)
 .text.popcorn_getnid
                0x0000000000439074       0x2e 0x1 /home/ashwin/pcn_compiler_lkvm/x86_64/lib/libc.a(platform.o)
                0x0000000000439074                popcorn_getnid
 .text.popcorn_getthreadinfo
                0x00000000004390a2        0xf 0x1 /home/ashwin/pcn_compiler_lkvm/x86_64/lib/libc.a(platform.o)
                0x00000000004390a2                popcorn_getthreadinfo
 .text.popcorn_getnodeinfo
                0x00000000004390b1       0x74 0x1 /home/ashwin/pcn_compiler_lkvm/x86_64/lib/libc.a(platform.o)
                0x00000000004390b1                popcorn_getnodeinfo
 ** fill        0x0000000000439125        0x3
 .text          0x0000000000439128        0x0 0x4 /home/ashwin/pcn_compiler_lkvm/x86_64/lib/libc.a(_Exit.o)
 .text._Exit    0x0000000000439128       0x13 0x1 /home/ashwin/pcn_compiler_lkvm/x86_64/lib/libc.a(_Exit.o)
                0x0000000000439128                _Exit
 ** fill        0x000000000043913b        0x1
 .text          0x000000000043913c        0x0 0x4 /home/ashwin/pcn_compiler_lkvm/x86_64/lib/libc.a(floatscan.o)
 ** fill        0x000000000043913c        0x4
 .text.__floatscan
                0x0000000000439140     0x185f 0x10 /home/ashwin/pcn_compiler_lkvm/x86_64/lib/libc.a(floatscan.o)
                0x0000000000439140                __floatscan
 ** fill        0x000000000043a99f        0x1
 .text.scanexp  0x000000000043a9a0      0x20f 0x10 /home/ashwin/pcn_compiler_lkvm/x86_64/lib/libc.a(floatscan.o)
 ** fill        0x000000000043abaf        0x1
 .text          0x000000000043abb0        0x0 0x4 /home/ashwin/pcn_compiler_lkvm/x86_64/lib/libc.a(intscan.o)
 .text.__intscan
                0x000000000043abb0      0x6ac 0x10 /home/ashwin/pcn_compiler_lkvm/x86_64/lib/libc.a(intscan.o)
                0x000000000043abb0                __intscan
 .text          0x000000000043b25c        0x0 0x4 /home/ashwin/pcn_compiler_lkvm/x86_64/lib/libc.a(procfdname.o)
 ** fill        0x000000000043b25c        0x4
 .text.__procfdname
                0x000000000043b260       0x83 0x10 /home/ashwin/pcn_compiler_lkvm/x86_64/lib/libc.a(procfdname.o)
                0x000000000043b260                __procfdname
 ** fill        0x000000000043b2e3        0x1
 .text          0x000000000043b2e4        0x0 0x4 /home/ashwin/pcn_compiler_lkvm/x86_64/lib/libc.a(shgetc.o)
 ** fill        0x000000000043b2e4        0xc
 .text.__shlim  0x000000000043b2f0       0x39 0x10 /home/ashwin/pcn_compiler_lkvm/x86_64/lib/libc.a(shgetc.o)
                0x000000000043b2f0                __shlim
 ** fill        0x000000000043b329        0x7
 .text.__shgetc
                0x000000000043b330       0xc1 0x10 /home/ashwin/pcn_compiler_lkvm/x86_64/lib/libc.a(shgetc.o)
                0x000000000043b330                __shgetc
 ** fill        0x000000000043b3f1        0x3
 .text          0x000000000043b3f4        0x0 0x4 /home/ashwin/pcn_compiler_lkvm/x86_64/lib/libc.a(syscall.o)
 .text.__syscall
                0x000000000043b3f4       0x1a 0x1 /home/ashwin/pcn_compiler_lkvm/x86_64/lib/libc.a(syscall.o)
                0x000000000043b3f4                __syscall
 ** fill        0x000000000043b40e        0x2
 .text          0x000000000043b410        0x0 0x4 /home/ashwin/pcn_compiler_lkvm/x86_64/lib/libc.a(expand_heap.o)
 .text.__expand_heap
                0x000000000043b410      0x151 0x10 /home/ashwin/pcn_compiler_lkvm/x86_64/lib/libc.a(expand_heap.o)
                0x000000000043b410                __expand_heap
 ** fill        0x000000000043b561        0xf
 .text.__expand_heap_node
                0x000000000043b570      0x1ff 0x10 /home/ashwin/pcn_compiler_lkvm/x86_64/lib/libc.a(expand_heap.o)
                0x000000000043b570                __expand_heap_node
 ** fill        0x000000000043b76f        0x1
 .text.popcorn_get_arena
                0x000000000043b770       0xfe 0x10 /home/ashwin/pcn_compiler_lkvm/x86_64/lib/libc.a(expand_heap.o)
                0x000000000043b770                popcorn_get_arena
 ** fill        0x000000000043b86e        0x2
 .text          0x000000000043b870        0x0 0x4 /home/ashwin/pcn_compiler_lkvm/x86_64/lib/libc.a(__fpclassifyl.o)
 .text.__fpclassifyl
                0x000000000043b870       0x4e 0x1 /home/ashwin/pcn_compiler_lkvm/x86_64/lib/libc.a(__fpclassifyl.o)
                0x000000000043b870                __fpclassifyl
 ** fill        0x000000000043b8be        0x2
 .text          0x000000000043b8c0        0x0 0x4 /home/ashwin/pcn_compiler_lkvm/x86_64/lib/libc.a(__signbitl.o)
 .text.__signbitl
                0x000000000043b8c0        0xa 0x1 /home/ashwin/pcn_compiler_lkvm/x86_64/lib/libc.a(__signbitl.o)
                0x000000000043b8c0                __signbitl
 ** fill        0x000000000043b8ca        0x2
 .text          0x000000000043b8cc        0x0 0x4 /home/ashwin/pcn_compiler_lkvm/x86_64/lib/libc.a(copysignl.o)
 .text.copysignl
                0x000000000043b8cc       0x2a 0x1 /home/ashwin/pcn_compiler_lkvm/x86_64/lib/libc.a(copysignl.o)
                0x000000000043b8cc                copysignl
 ** fill        0x000000000043b8f6        0x2
 .text          0x000000000043b8f8        0x0 0x4 /home/ashwin/pcn_compiler_lkvm/x86_64/lib/libc.a(frexpl.o)
 .text.frexpl   0x000000000043b8f8       0x7f 0x1 /home/ashwin/pcn_compiler_lkvm/x86_64/lib/libc.a(frexpl.o)
                0x000000000043b8f8                frexpl
 ** fill        0x000000000043b977        0x1
 .text          0x000000000043b978        0x0 0x4 /home/ashwin/pcn_compiler_lkvm/x86_64/lib/libc.a(scalbn.o)
 .text.scalbn   0x000000000043b978       0x8c 0x1 /home/ashwin/pcn_compiler_lkvm/x86_64/lib/libc.a(scalbn.o)
                0x000000000043b978                scalbn
 .text          0x000000000043ba04        0x0 0x4 /home/ashwin/pcn_compiler_lkvm/x86_64/lib/libc.a(scalbnl.o)
 .text.scalbnl  0x000000000043ba04       0x99 0x1 /home/ashwin/pcn_compiler_lkvm/x86_64/lib/libc.a(scalbnl.o)
                0x000000000043ba04                scalbnl
 ** fill        0x000000000043ba9d        0x3
 .text          0x000000000043baa0        0x0 0x4 /home/ashwin/pcn_compiler_lkvm/x86_64/lib/libc.a(fabs.o)
 .text.fabs     0x000000000043baa0       0x12 0x1 /home/ashwin/pcn_compiler_lkvm/x86_64/lib/libc.a(fabs.o)
                0x000000000043baa0                fabs
 ** fill        0x000000000043bab2        0x2
 .text          0x000000000043bab4        0x0 0x4 /home/ashwin/pcn_compiler_lkvm/x86_64/lib/libc.a(fmodl.o)
 .text.fmodl    0x000000000043bab4       0x14 0x1 /home/ashwin/pcn_compiler_lkvm/x86_64/lib/libc.a(fmodl.o)
                0x000000000043bab4                fmodl
 .text          0x000000000043bac8        0x0 0x4 /home/ashwin/pcn_compiler_lkvm/x86_64/lib/libc.a(mbrtowc.o)
 .text.mbrtowc  0x000000000043bac8      0x129 0x1 /home/ashwin/pcn_compiler_lkvm/x86_64/lib/libc.a(mbrtowc.o)
                0x000000000043bac8                mbrtowc
 ** fill        0x000000000043bbf1        0x3
 .text          0x000000000043bbf4        0x0 0x4 /home/ashwin/pcn_compiler_lkvm/x86_64/lib/libc.a(mbsinit.o)
 .text.mbsinit  0x000000000043bbf4       0x14 0x1 /home/ashwin/pcn_compiler_lkvm/x86_64/lib/libc.a(mbsinit.o)
                0x000000000043bbf4                mbsinit
 .text          0x000000000043bc08        0x0 0x4 /home/ashwin/pcn_compiler_lkvm/x86_64/lib/libc.a(wctomb.o)
 .text.wctomb   0x000000000043bc08       0x15 0x1 /home/ashwin/pcn_compiler_lkvm/x86_64/lib/libc.a(wctomb.o)
                0x000000000043bc08                wctomb
 ** fill        0x000000000043bc1d        0x3
 .text          0x000000000043bc20        0x0 0x4 /home/ashwin/pcn_compiler_lkvm/x86_64/lib/libc.a(sigaction.o)
 .text.__get_handler_set
                0x000000000043bc20        0xf 0x1 /home/ashwin/pcn_compiler_lkvm/x86_64/lib/libc.a(sigaction.o)
                0x000000000043bc20                __get_handler_set
 .text.__libc_sigaction
                0x000000000043bc2f      0x135 0x1 /home/ashwin/pcn_compiler_lkvm/x86_64/lib/libc.a(sigaction.o)
                0x000000000043bc2f                __libc_sigaction
 .text.__sigaction
                0x000000000043bd64       0x2a 0x1 /home/ashwin/pcn_compiler_lkvm/x86_64/lib/libc.a(sigaction.o)
                0x000000000043bd64                __sigaction
                0x000000000043bd64                sigaction
 ** fill        0x000000000043bd8e        0x2
 .text          0x000000000043bd90        0x0 0x4 /home/ashwin/pcn_compiler_lkvm/x86_64/lib/libc.a(restore.o)
 .text.__restore_rt
                0x000000000043bd90        0x9 0x1 /home/ashwin/pcn_compiler_lkvm/x86_64/lib/libc.a(restore.o)
                0x000000000043bd90                __restore_rt
 ** fill        0x000000000043bd99        0x3
 .text          0x000000000043bd9c        0x0 0x4 /home/ashwin/pcn_compiler_lkvm/x86_64/lib/libc.a(__fdopen.o)
 .text.__fdopen
                0x000000000043bd9c      0x179 0x1 /home/ashwin/pcn_compiler_lkvm/x86_64/lib/libc.a(__fdopen.o)
                0x000000000043bd9c                __fdopen
                0x000000000043bd9c                fdopen
 ** fill        0x000000000043bf15        0x3
 .text          0x000000000043bf18        0x0 0x4 /home/ashwin/pcn_compiler_lkvm/x86_64/lib/libc.a(__fmodeflags.o)
 .text.__fmodeflags
                0x000000000043bf18       0x89 0x1 /home/ashwin/pcn_compiler_lkvm/x86_64/lib/libc.a(__fmodeflags.o)
                0x000000000043bf18                __fmodeflags
 ** fill        0x000000000043bfa1        0x3
 .text          0x000000000043bfa4        0x0 0x4 /home/ashwin/pcn_compiler_lkvm/x86_64/lib/libc.a(__lockfile.o)
 .text.__lockfile
                0x000000000043bfa4       0x73 0x1 /home/ashwin/pcn_compiler_lkvm/x86_64/lib/libc.a(__lockfile.o)
                0x000000000043bfa4                __lockfile
 .text.__unlockfile
                0x000000000043c017       0x46 0x1 /home/ashwin/pcn_compiler_lkvm/x86_64/lib/libc.a(__lockfile.o)
                0x000000000043c017                __unlockfile
 ** fill        0x000000000043c05d        0x3
 .text          0x000000000043c060        0x0 0x4 /home/ashwin/pcn_compiler_lkvm/x86_64/lib/libc.a(__overflow.o)
 .text.__overflow
                0x000000000043c060       0x84 0x1 /home/ashwin/pcn_compiler_lkvm/x86_64/lib/libc.a(__overflow.o)
                0x000000000043c060                __overflow
 .text          0x000000000043c0e4        0x0 0x4 /home/ashwin/pcn_compiler_lkvm/x86_64/lib/libc.a(__stdio_close.o)
 .text.dummy    0x000000000043c0e4        0x3 0x1 /home/ashwin/pcn_compiler_lkvm/x86_64/lib/libc.a(__stdio_close.o)
 .text.__stdio_close
                0x000000000043c0e7       0x1c 0x1 /home/ashwin/pcn_compiler_lkvm/x86_64/lib/libc.a(__stdio_close.o)
                0x000000000043c0e7                __stdio_close
 ** fill        0x000000000043c103        0x1
 .text          0x000000000043c104        0x0 0x4 /home/ashwin/pcn_compiler_lkvm/x86_64/lib/libc.a(__stdio_read.o)
 .text.__stdio_read
                0x000000000043c104       0xaf 0x1 /home/ashwin/pcn_compiler_lkvm/x86_64/lib/libc.a(__stdio_read.o)
                0x000000000043c104                __stdio_read
 ** fill        0x000000000043c1b3        0x1
 .text          0x000000000043c1b4        0x0 0x4 /home/ashwin/pcn_compiler_lkvm/x86_64/lib/libc.a(__stdio_seek.o)
 .text.__stdio_seek
                0x000000000043c1b4       0x16 0x1 /home/ashwin/pcn_compiler_lkvm/x86_64/lib/libc.a(__stdio_seek.o)
                0x000000000043c1b4                __stdio_seek
 ** fill        0x000000000043c1ca        0x2
 .text          0x000000000043c1cc        0x0 0x4 /home/ashwin/pcn_compiler_lkvm/x86_64/lib/libc.a(__stdio_write.o)
 .text.__stdio_write
                0x000000000043c1cc      0x117 0x1 /home/ashwin/pcn_compiler_lkvm/x86_64/lib/libc.a(__stdio_write.o)
                0x000000000043c1cc                __stdio_write
 ** fill        0x000000000043c2e3        0x1
 .text          0x000000000043c2e4        0x0 0x4 /home/ashwin/pcn_compiler_lkvm/x86_64/lib/libc.a(__stdout_write.o)
 .text.__stdout_write
                0x000000000043c2e4       0x47 0x1 /home/ashwin/pcn_compiler_lkvm/x86_64/lib/libc.a(__stdout_write.o)
                0x000000000043c2e4                __stdout_write
 ** fill        0x000000000043c32b        0x1
 .text          0x000000000043c32c        0x0 0x4 /home/ashwin/pcn_compiler_lkvm/x86_64/lib/libc.a(__string_read.o)
 .text.__string_read
                0x000000000043c32c       0x79 0x1 /home/ashwin/pcn_compiler_lkvm/x86_64/lib/libc.a(__string_read.o)
                0x000000000043c32c                __string_read
 ** fill        0x000000000043c3a5        0x3
 .text          0x000000000043c3a8        0x0 0x4 /home/ashwin/pcn_compiler_lkvm/x86_64/lib/libc.a(__towrite.o)
 .text.__towrite
                0x000000000043c3a8       0x40 0x1 /home/ashwin/pcn_compiler_lkvm/x86_64/lib/libc.a(__towrite.o)
                0x000000000043c3a8                __towrite
 .text.__towrite_needs_stdio_exit
                0x000000000043c3e8        0x5 0x1 /home/ashwin/pcn_compiler_lkvm/x86_64/lib/libc.a(__towrite.o)
                0x000000000043c3e8                __towrite_needs_stdio_exit
 ** fill        0x000000000043c3ed        0x3
 .text          0x000000000043c3f0        0x0 0x4 /home/ashwin/pcn_compiler_lkvm/x86_64/lib/libc.a(__uflow.o)
 .text.__uflow  0x000000000043c3f0       0x41 0x1 /home/ashwin/pcn_compiler_lkvm/x86_64/lib/libc.a(__uflow.o)
                0x000000000043c3f0                __uflow
 ** fill        0x000000000043c431        0x3
 .text          0x000000000043c434        0x0 0x4 /home/ashwin/pcn_compiler_lkvm/x86_64/lib/libc.a(fputs.o)
 .text.fputs    0x000000000043c434       0x38 0x1 /home/ashwin/pcn_compiler_lkvm/x86_64/lib/libc.a(fputs.o)
                0x000000000043c434                fputs
                0x000000000043c434                fputs_unlocked
 .text          0x000000000043c46c        0x0 0x4 /home/ashwin/pcn_compiler_lkvm/x86_64/lib/libc.a(fwrite.o)
 .text.__fwritex
                0x000000000043c46c       0xbb 0x1 /home/ashwin/pcn_compiler_lkvm/x86_64/lib/libc.a(fwrite.o)
                0x000000000043c46c                __fwritex
 .text.fwrite   0x000000000043c527       0x8a 0x1 /home/ashwin/pcn_compiler_lkvm/x86_64/lib/libc.a(fwrite.o)
                0x000000000043c527                fwrite
                0x000000000043c527                fwrite_unlocked
 ** fill        0x000000000043c5b1        0x3
 .text          0x000000000043c5b4        0x0 0x4 /home/ashwin/pcn_compiler_lkvm/x86_64/lib/libc.a(getdelim.o)
 .text.getdelim
                0x000000000043c5b4      0x273 0x1 /home/ashwin/pcn_compiler_lkvm/x86_64/lib/libc.a(getdelim.o)
                0x000000000043c5b4                __getdelim
                0x000000000043c5b4                getdelim
 ** fill        0x000000000043c827        0x1
 .text          0x000000000043c828        0x0 0x4 /home/ashwin/pcn_compiler_lkvm/x86_64/lib/libc.a(ofl_add.o)
 .text.__ofl_add
                0x000000000043c828       0x29 0x1 /home/ashwin/pcn_compiler_lkvm/x86_64/lib/libc.a(ofl_add.o)
                0x000000000043c828                __ofl_add
 ** fill        0x000000000043c851        0x3
 .text          0x000000000043c854        0x0 0x4 /home/ashwin/pcn_compiler_lkvm/x86_64/lib/libc.a(stpcpy.o)
 ** fill        0x000000000043c854        0xc
 .text.__stpcpy
                0x000000000043c860       0xc4 0x10 /home/ashwin/pcn_compiler_lkvm/x86_64/lib/libc.a(stpcpy.o)
                0x000000000043c860                __stpcpy
                0x000000000043c860                stpcpy
 .text          0x000000000043c924        0x0 0x4 /home/ashwin/pcn_compiler_lkvm/x86_64/lib/libc.a(stpncpy.o)
 ** fill        0x000000000043c924        0xc
 .text.__stpncpy
                0x000000000043c930       0xe4 0x10 /home/ashwin/pcn_compiler_lkvm/x86_64/lib/libc.a(stpncpy.o)
                0x000000000043c930                __stpncpy
                0x000000000043c930                stpncpy
 .text          0x000000000043ca14        0x0 0x4 /home/ashwin/pcn_compiler_lkvm/x86_64/lib/libc.a(strcspn.o)
 ** fill        0x000000000043ca14        0xc
 .text.strcspn  0x000000000043ca20       0x9a 0x10 /home/ashwin/pcn_compiler_lkvm/x86_64/lib/libc.a(strcspn.o)
                0x000000000043ca20                strcspn
 ** fill        0x000000000043caba        0x2
 .text          0x000000000043cabc        0x0 0x4 /home/ashwin/pcn_compiler_lkvm/x86_64/lib/libc.a(mkostemps.o)
 .text.__mkostemps
                0x000000000043cabc       0xb7 0x1 /home/ashwin/pcn_compiler_lkvm/x86_64/lib/libc.a(mkostemps.o)
                0x000000000043cabc                __mkostemps
                0x000000000043cabc                mkostemps
                0x000000000043cabc                mkostemps64
 ** fill        0x000000000043cb73        0x1
 .text          0x000000000043cb74        0x0 0x4 /home/ashwin/pcn_compiler_lkvm/x86_64/lib/libc.a(__timedwait.o)
 .text.__timedwait_cp
                0x000000000043cb74       0xf3 0x1 /home/ashwin/pcn_compiler_lkvm/x86_64/lib/libc.a(__timedwait.o)
                0x000000000043cb74                __timedwait_cp
 .text.__timedwait
                0x000000000043cc67       0x55 0x1 /home/ashwin/pcn_compiler_lkvm/x86_64/lib/libc.a(__timedwait.o)
                0x000000000043cc67                __timedwait
 .text          0x000000000043ccbc        0x0 0x4 /home/ashwin/pcn_compiler_lkvm/x86_64/lib/libc.a(pthread_rwlock_timedwrlock.o)
 .text.pthread_rwlock_timedwrlock
                0x000000000043ccbc       0x98 0x1 /home/ashwin/pcn_compiler_lkvm/x86_64/lib/libc.a(pthread_rwlock_timedwrlock.o)
                0x000000000043ccbc                pthread_rwlock_timedwrlock
 .text          0x000000000043cd54        0x0 0x4 /home/ashwin/pcn_compiler_lkvm/x86_64/lib/libc.a(pthread_rwlock_trywrlock.o)
 .text.pthread_rwlock_trywrlock
                0x000000000043cd54       0x18 0x1 /home/ashwin/pcn_compiler_lkvm/x86_64/lib/libc.a(pthread_rwlock_trywrlock.o)
                0x000000000043cd54                pthread_rwlock_trywrlock
 .text          0x000000000043cd6c        0x0 0x4 /home/ashwin/pcn_compiler_lkvm/x86_64/lib/libc.a(__set_thread_area.o)
 .text.__set_thread_area
                0x000000000043cd6c       0x10 0x1 /home/ashwin/pcn_compiler_lkvm/x86_64/lib/libc.a(__set_thread_area.o)
                0x000000000043cd6c                __set_thread_area
 .text          0x000000000043cd7c        0x0 0x4 /home/ashwin/pcn_compiler_lkvm/x86_64/lib/libc.a(__secs_to_tm.o)
 .text.__secs_to_tm
                0x000000000043cd7c      0x2a8 0x1 /home/ashwin/pcn_compiler_lkvm/x86_64/lib/libc.a(__secs_to_tm.o)
                0x000000000043cd7c                __secs_to_tm
 .text          0x000000000043d024        0x0 0x4 /home/ashwin/pcn_compiler_lkvm/x86_64/lib/libc.a(__tz.o)
 .text.__secs_to_zone
                0x000000000043d024      0x46c 0x1 /home/ashwin/pcn_compiler_lkvm/x86_64/lib/libc.a(__tz.o)
                0x000000000043d024                __secs_to_zone
 .text.rule_to_secs
                0x000000000043d490      0x131 0x1 /home/ashwin/pcn_compiler_lkvm/x86_64/lib/libc.a(__tz.o)
 .text.__tzset  0x000000000043d5c1       0x1b 0x1 /home/ashwin/pcn_compiler_lkvm/x86_64/lib/libc.a(__tz.o)
                0x000000000043d5c1                __tzset
                0x000000000043d5c1                tzset
 .text.__tm_to_tzname
                0x000000000043d5dc       0x7b 0x1 /home/ashwin/pcn_compiler_lkvm/x86_64/lib/libc.a(__tz.o)
                0x000000000043d5dc                __tm_to_tzname
 .text.do_tzset
                0x000000000043d657      0x57c 0x1 /home/ashwin/pcn_compiler_lkvm/x86_64/lib/libc.a(__tz.o)
 .text.getname  0x000000000043dbd3       0x95 0x1 /home/ashwin/pcn_compiler_lkvm/x86_64/lib/libc.a(__tz.o)
 .text.getoff   0x000000000043dc68       0xe7 0x1 /home/ashwin/pcn_compiler_lkvm/x86_64/lib/libc.a(__tz.o)
 .text.getrule  0x000000000043dd4f      0x11a 0x1 /home/ashwin/pcn_compiler_lkvm/x86_64/lib/libc.a(__tz.o)
 ** fill        0x000000000043de69        0x3
 .text          0x000000000043de6c        0x0 0x4 /home/ashwin/pcn_compiler_lkvm/x86_64/lib/libc.a(__year_to_secs.o)
 .text.__year_to_secs
                0x000000000043de6c      0x139 0x1 /home/ashwin/pcn_compiler_lkvm/x86_64/lib/libc.a(__year_to_secs.o)
                0x000000000043de6c                __year_to_secs
 ** fill        0x000000000043dfa5        0x3
 .text          0x000000000043dfa8        0x0 0x4 /home/ashwin/pcn_compiler_lkvm/x86_64/lib/libc.a(clock_gettime.o)
 .text.__clock_gettime
                0x000000000043dfa8       0x56 0x1 /home/ashwin/pcn_compiler_lkvm/x86_64/lib/libc.a(clock_gettime.o)
                0x000000000043dfa8                __clock_gettime
                0x000000000043dfa8                clock_gettime
 ** fill        0x000000000043dffe        0x2
 .text          0x000000000043e000        0x0 0x4 /home/ashwin/pcn_compiler_lkvm/x86_64/lib/libc.a(nanosleep.o)
 .text.nanosleep
                0x000000000043e000       0x2a 0x1 /home/ashwin/pcn_compiler_lkvm/x86_64/lib/libc.a(nanosleep.o)
                0x000000000043e000                nanosleep
 ** fill        0x000000000043e02a        0x2
 .text          0x000000000043e02c        0x0 0x4 /home/ashwin/pcn_compiler_lkvm/x86_64/lib/libc.a(internal.o)
 .text          0x000000000043e02c        0x0 0x4 /home/ashwin/pcn_compiler_lkvm/x86_64/lib/libc.a(wcrtomb.o)
 .text.wcrtomb  0x000000000043e02c       0xfd 0x1 /home/ashwin/pcn_compiler_lkvm/x86_64/lib/libc.a(wcrtomb.o)
                0x000000000043e02c                wcrtomb
 ** fill        0x000000000043e129        0x3
 .text          0x000000000043e12c        0x0 0x4 /home/ashwin/pcn_compiler_lkvm/x86_64/lib/libc.a(__stdio_exit.o)
 .text.__stdio_exit
                0x000000000043e12c       0x35 0x1 /home/ashwin/pcn_compiler_lkvm/x86_64/lib/libc.a(__stdio_exit.o)
                0x000000000043e12c                __stdio_exit
                0x000000000043e12c                __stdio_exit_needed
 .text.close_file
                0x000000000043e161       0x4b 0x1 /home/ashwin/pcn_compiler_lkvm/x86_64/lib/libc.a(__stdio_exit.o)
 .text          0x000000000043e1ac        0x0 0x4 /home/ashwin/pcn_compiler_lkvm/x86_64/lib/libc.a(__toread.o)
 .text.__toread
                0x000000000043e1ac       0x6e 0x1 /home/ashwin/pcn_compiler_lkvm/x86_64/lib/libc.a(__toread.o)
                0x000000000043e1ac                __toread
 .text.__toread_needs_stdio_exit
                0x000000000043e21a        0x5 0x1 /home/ashwin/pcn_compiler_lkvm/x86_64/lib/libc.a(__toread.o)
                0x000000000043e21a                __toread_needs_stdio_exit
 ** fill        0x000000000043e21f        0x1
 .text          0x000000000043e220        0x0 0x4 /home/ashwin/pcn_compiler_lkvm/x86_64/lib/libc.a(__randname.o)
 .text.__randname
                0x000000000043e220       0x61 0x1 /home/ashwin/pcn_compiler_lkvm/x86_64/lib/libc.a(__randname.o)
                0x000000000043e220                __randname
 ** fill        0x000000000043e281        0x3
 .text          0x000000000043e284        0x0 0x4 /home/ashwin/pcn_compiler_lkvm/x86_64/lib/libc.a(__map_file.o)
 .text.__map_file
                0x000000000043e284       0x86 0x1 /home/ashwin/pcn_compiler_lkvm/x86_64/lib/libc.a(__map_file.o)
                0x000000000043e284                __map_file
 ** fill        0x000000000043e30a        0x2
 .text          0x000000000043e30c        0x0 0x4 /home/ashwin/pcn_compiler_lkvm/x86_64/lib/libc.a(__month_to_secs.o)
 .text.__month_to_secs
                0x000000000043e30c       0x1c 0x1 /home/ashwin/pcn_compiler_lkvm/x86_64/lib/libc.a(__month_to_secs.o)
                0x000000000043e30c                __month_to_secs

.rodata         0x000000000043e330     0x6440
 .rodata        0x000000000043e330      0x1c0 0x10 builtin-balloon.o
 ** merge strings
                0x000000000043e4f0     0x359a
 .rodata        0x0000000000441a90      0x250 0x10 builtin-debug.o
 .rodata        0x0000000000441ce0       0x64 0x10 builtin-help.o
                0x0000000000441d00                kvm_more_info_string
                0x0000000000441ce0                kvm_usage_string
 .rodata        0x0000000000441d50      0x130 0x10 builtin-list.o
 .rodata        0x0000000000441e80      0x1f0 0x10 builtin-stat.o
 ** merge constants
                0x0000000000442070       0x10
 .rodata        0x0000000000442080      0x130 0x10 builtin-pause.o
 .rodata        0x00000000004421b0      0x130 0x10 builtin-resume.o
 ** merge constants
                0x00000000004422e0       0xd0
 ** merge constants
                0x00000000004423b0       0x48
 .rodata        0x0000000000442400       0x10 0x10 builtin-run.o
 .rodata        0x0000000000442410       0x58 0x10 builtin-setup.o
 .rodata        0x0000000000442470      0x130 0x10 builtin-stop.o
 .rodata        0x00000000004425a0      0x198 0x8 hw/rtc.o
 .rodata        0x0000000000442738       0x80 0x8 hw/serial.o
 .rodata        0x00000000004427c0       0x80 0x10 x86/kvm-cpu.o
 .rodata        0x0000000000442840       0x48 0x8 virtio/blk.o
 .rodata        0x0000000000442888      0x118 0x8 virtio/pci.o
 .rodata        0x00000000004429a0        0xc 0x1 ioeventfd.o
 .rodata        0x00000000004429b0       0x18 0x8 util/rbtree.o
 .rodata        0x00000000004429c8      0x108 0x8 util/parse-options.o
 .rodata        0x0000000000442ad0       0xd0 0x8 hw/pci-shmem.o
 .rodata        0x0000000000442ba0      0x2e8 0x8 virtio/mmio.o
 .rodata        0x0000000000442e88      0x330 0x8 virtio/9p-pdu.o
 .rodata        0x00000000004431b8       0x58 0x8 x86/cpuid.o
 .rodata.sysconf
                0x0000000000443210       0x50 0x8 /home/ashwin/pcn_compiler_lkvm/x86_64/lib/libc.a(sysconf.o)
 .rodata.src_conf_sysconf_c_sysconf_values
                0x0000000000443260      0x1f2 0x10 /home/ashwin/pcn_compiler_lkvm/x86_64/lib/libc.a(sysconf.o)
 .rodata.src_env___libc_start_main__str_
                0x0000000000443452        0x1 0x1 /home/ashwin/pcn_compiler_lkvm/x86_64/lib/libc.a(__libc_start_main.o)
                0x0000000000443452                src_env___libc_start_main__str_
 .rodata.src_env___libc_start_main___const___init_libc_pfd_
                0x0000000000443460       0x18 0x10 /home/ashwin/pcn_compiler_lkvm/x86_64/lib/libc.a(__libc_start_main.o)
                0x0000000000443460                src_env___libc_start_main___const___init_libc_pfd_
 .rodata.src_env___libc_start_main__str_1__dev_null_
                0x0000000000443478        0xa 0x1 /home/ashwin/pcn_compiler_lkvm/x86_64/lib/libc.a(__libc_start_main.o)
                0x0000000000443478                src_env___libc_start_main__str_1__dev_null_
 ** merge strings
                0x0000000000443490       0x58
 .rodata.src_errno_strerror_c_errmsg
                0x00000000004434f0      0x70c 0x10 /home/ashwin/pcn_compiler_lkvm/x86_64/lib/libc.a(strerror.o)
 .rodata.src_malloc_malloc_c_bin_tab
                0x0000000000443c00       0x3c 0x10 /home/ashwin/pcn_compiler_lkvm/x86_64/lib/libc.a(malloc.o)
 .rodata.src_malloc_popcorn_malloc_c_bin_tab
                0x0000000000443c40       0x3c 0x10 /home/ashwin/pcn_compiler_lkvm/x86_64/lib/libc.a(popcorn_malloc.o)
 .rodata.src_misc_mntent__str___________
                0x0000000000443c7c        0xc 0x1 /home/ashwin/pcn_compiler_lkvm/x86_64/lib/libc.a(mntent.o)
                0x0000000000443c7c                src_misc_mntent__str___________
 .rodata.src_misc_mntent__str_1___n__s_n__
                0x0000000000443c88       0x27 0x1 /home/ashwin/pcn_compiler_lkvm/x86_64/lib/libc.a(mntent.o)
                0x0000000000443c88                src_misc_mntent__str_1___n__s_n__
 .rodata.src_misc_mntent__str_2__s__s__s__
                0x0000000000443caf       0x13 0x1 /home/ashwin/pcn_compiler_lkvm/x86_64/lib/libc.a(mntent.o)
                0x0000000000443caf                src_misc_mntent__str_2__s__s__s__
 .rodata.src_misc_openpty__str__dev_ptmx_
                0x0000000000443cc2        0xa 0x1 /home/ashwin/pcn_compiler_lkvm/x86_64/lib/libc.a(openpty.o)
                0x0000000000443cc2                src_misc_openpty__str__dev_ptmx_
 .rodata.src_misc_openpty__str_1__dev_pts__
                0x0000000000443ccc        0xc 0x1 /home/ashwin/pcn_compiler_lkvm/x86_64/lib/libc.a(openpty.o)
                0x0000000000443ccc                src_misc_openpty__str_1__dev_pts__
 .rodata.src_mman_shm_open__str__dev_shm__
                0x0000000000443cd8        0xa 0x1 /home/ashwin/pcn_compiler_lkvm/x86_64/lib/libc.a(shm_open.o)
                0x0000000000443cd8                src_mman_shm_open__str__dev_shm__
 .rodata.__inet_aton
                0x0000000000443ce8       0x28 0x8 /home/ashwin/pcn_compiler_lkvm/x86_64/lib/libc.a(inet_aton.o)
 .rodata.src_signal_block_c_all_mask
                0x0000000000443d10        0x8 0x8 /home/ashwin/pcn_compiler_lkvm/x86_64/lib/libc.a(block.o)
 .rodata.src_signal_block_c_app_mask
                0x0000000000443d18        0x8 0x8 /home/ashwin/pcn_compiler_lkvm/x86_64/lib/libc.a(block.o)
 .rodata.src_stdio_fopen__str_rwa_
                0x0000000000443d20        0x4 0x1 /home/ashwin/pcn_compiler_lkvm/x86_64/lib/libc.a(fopen.o)
                0x0000000000443d20                src_stdio_fopen__str_rwa_
 .rodata.stderr
                0x0000000000443d28        0x8 0x8 /home/ashwin/pcn_compiler_lkvm/x86_64/lib/libc.a(stderr.o)
                0x0000000000443d28                stderr
 .rodata.stdout
                0x0000000000443d30        0x8 0x8 /home/ashwin/pcn_compiler_lkvm/x86_64/lib/libc.a(stdout.o)
                0x0000000000443d30                stdout
 ** merge constants
                0x0000000000443d38       0x2c
 .rodata.printf_core
                0x0000000000443d68      0x170 0x8 /home/ashwin/pcn_compiler_lkvm/x86_64/lib/libc.a(vfprintf.o)
 .rodata.pop_arg
                0x0000000000443ed8       0x90 0x8 /home/ashwin/pcn_compiler_lkvm/x86_64/lib/libc.a(vfprintf.o)
 .rodata.src_stdio_vfprintf__str______0X0x_
                0x0000000000443f68        0xa 0x1 /home/ashwin/pcn_compiler_lkvm/x86_64/lib/libc.a(vfprintf.o)
                0x0000000000443f68                src_stdio_vfprintf__str______0X0x_
 .rodata.src_stdio_vfprintf__str_1__null__
                0x0000000000443f72        0x7 0x1 /home/ashwin/pcn_compiler_lkvm/x86_64/lib/libc.a(vfprintf.o)
                0x0000000000443f72                src_stdio_vfprintf__str_1__null__
 .rodata.src_stdio_vfprintf_c_states
                0x0000000000443f80      0x1d0 0x10 /home/ashwin/pcn_compiler_lkvm/x86_64/lib/libc.a(vfprintf.o)
 .rodata.src_stdio_vfprintf__str_3__0X_0X_0X_
                0x0000000000444150       0x13 0x1 /home/ashwin/pcn_compiler_lkvm/x86_64/lib/libc.a(vfprintf.o)
                0x0000000000444150                src_stdio_vfprintf__str_3__0X_0X_0X_
 .rodata.src_stdio_vfprintf__str_4_inf_
                0x0000000000444163        0x4 0x1 /home/ashwin/pcn_compiler_lkvm/x86_64/lib/libc.a(vfprintf.o)
                0x0000000000444163                src_stdio_vfprintf__str_4_inf_
 .rodata.src_stdio_vfprintf__str_5_INF_
                0x0000000000444167        0x4 0x1 /home/ashwin/pcn_compiler_lkvm/x86_64/lib/libc.a(vfprintf.o)
                0x0000000000444167                src_stdio_vfprintf__str_5_INF_
 .rodata.src_stdio_vfprintf__str_6_nan_
                0x000000000044416b        0x4 0x1 /home/ashwin/pcn_compiler_lkvm/x86_64/lib/libc.a(vfprintf.o)
                0x000000000044416b                src_stdio_vfprintf__str_6_nan_
 .rodata.src_stdio_vfprintf__str_7_NAN_
                0x000000000044416f        0x4 0x1 /home/ashwin/pcn_compiler_lkvm/x86_64/lib/libc.a(vfprintf.o)
                0x000000000044416f                src_stdio_vfprintf__str_7_NAN_
 .rodata.src_stdio_vfprintf__str_8___
                0x0000000000444173        0x2 0x1 /home/ashwin/pcn_compiler_lkvm/x86_64/lib/libc.a(vfprintf.o)
                0x0000000000444173                src_stdio_vfprintf__str_8___
 .rodata.vfscanf
                0x0000000000444178      0x338 0x8 /home/ashwin/pcn_compiler_lkvm/x86_64/lib/libc.a(vfscanf.o)
 ** merge constants
                0x00000000004444b0       0x20
 .rodata.src_internal_floatscan_switch_table___floatscan_
                0x00000000004444d0        0xc 0x4 /home/ashwin/pcn_compiler_lkvm/x86_64/lib/libc.a(floatscan.o)
                0x00000000004444d0                src_internal_floatscan_switch_table___floatscan_
 .rodata.src_internal_floatscan_switch_table___floatscan_2_
                0x00000000004444dc        0xc 0x4 /home/ashwin/pcn_compiler_lkvm/x86_64/lib/libc.a(floatscan.o)
                0x00000000004444dc                src_internal_floatscan_switch_table___floatscan_2_
 .rodata.src_internal_intscan_c_table
                0x00000000004444f0      0x101 0x10 /home/ashwin/pcn_compiler_lkvm/x86_64/lib/libc.a(intscan.o)
 .rodata.src_internal_intscan__str__________
                0x00000000004445f1        0x9 0x1 /home/ashwin/pcn_compiler_lkvm/x86_64/lib/libc.a(intscan.o)
                0x00000000004445f1                src_internal_intscan__str__________
 .rodata.src_stdio___fdopen__str_rwa_
                0x00000000004445fa        0x4 0x1 /home/ashwin/pcn_compiler_lkvm/x86_64/lib/libc.a(__fdopen.o)
                0x00000000004445fa                src_stdio___fdopen__str_rwa_
 .rodata.src_temp_mkostemps__str_XXXXXX_
                0x00000000004445fe        0x7 0x1 /home/ashwin/pcn_compiler_lkvm/x86_64/lib/libc.a(mkostemps.o)
                0x00000000004445fe                src_temp_mkostemps__str_XXXXXX_
 .rodata.src_time___secs_to_tm_c___secs_to_tm_days_in_month
                0x0000000000444605        0xc 0x1 /home/ashwin/pcn_compiler_lkvm/x86_64/lib/libc.a(__secs_to_tm.o)
 .rodata.__gmt  0x0000000000444611        0x4 0x1 /home/ashwin/pcn_compiler_lkvm/x86_64/lib/libc.a(__tz.o)
                0x0000000000444611                __gmt
 .rodata.src_time___tz__str_
                0x0000000000444615        0x1 0x1 /home/ashwin/pcn_compiler_lkvm/x86_64/lib/libc.a(__tz.o)
                0x0000000000444615                src_time___tz__str_
 .rodata.src_time___tz_c_do_tzset_search
                0x0000000000444620       0x36 0x10 /home/ashwin/pcn_compiler_lkvm/x86_64/lib/libc.a(__tz.o)
 .rodata.src_time___tz__str_1_TZ_
                0x0000000000444656        0x3 0x1 /home/ashwin/pcn_compiler_lkvm/x86_64/lib/libc.a(__tz.o)
                0x0000000000444656                src_time___tz__str_1_TZ_
 .rodata.src_time___tz__str_2__etc_local
                0x0000000000444659        0xf 0x1 /home/ashwin/pcn_compiler_lkvm/x86_64/lib/libc.a(__tz.o)
                0x0000000000444659                src_time___tz__str_2__etc_local
 .rodata.src_time___tz__str_3_TZif_
                0x0000000000444668        0x5 0x1 /home/ashwin/pcn_compiler_lkvm/x86_64/lib/libc.a(__tz.o)
                0x0000000000444668                src_time___tz__str_3_TZif_
 .rodata.__fsmu8
                0x0000000000444670       0xcc 0x10 /home/ashwin/pcn_compiler_lkvm/x86_64/lib/libc.a(internal.o)
                0x0000000000444670                __fsmu8
 .rodata.src_time___month_to_secs_c___month_to_secs_secs_through_month
                0x0000000000444740       0x30 0x10 /home/ashwin/pcn_compiler_lkvm/x86_64/lib/libc.a(__month_to_secs.o)

.llvm_pcn_stackmaps
                0x0000000000444770       0xe0
 .llvm_pcn_stackmaps
                0x0000000000444770       0x50 0x8 /home/ashwin/pcn_compiler_lkvm/x86_64/lib/libc.a(__libc_start_main.o)
 .llvm_pcn_stackmaps
                0x00000000004447c0       0x90 0x8 /home/ashwin/pcn_compiler_lkvm/x86_64/lib/libc.a(pthread_create.o)

.eh_frame       0x0000000000444850     0x7308
 ** eh_frame    0x0000000000444850     0x7308

.tbss           0x000000000044ceb0        0x8
 .tbss          0x000000000044ceb0        0x8 0x8 builtin-run.o
                0x0000000000000000                current_kvm_cpu

.init_array     0x000000000044ceb0      0x150
 .init_array    0x000000000044ceb0       0x10 0x8 disk/core.o
 .init_array    0x000000000044cec0       0x10 0x8 framebuffer.o
 .init_array    0x000000000044ced0       0x10 0x8 hw/rtc.o
 .init_array    0x000000000044cee0       0x10 0x8 hw/serial.o
 .init_array    0x000000000044cef0       0x10 0x8 kvm_common.o
 .init_array    0x000000000044cf00       0x10 0x8 pci_common.o
 .init_array    0x000000000044cf10       0x10 0x8 term.o
 .init_array    0x000000000044cf20       0x10 0x8 virtio/blk.o
 .init_array    0x000000000044cf30       0x10 0x8 virtio/scsi.o
 .init_array    0x000000000044cf40       0x10 0x8 virtio/console.o
 .init_array    0x000000000044cf50       0x10 0x8 virtio/net.o
 .init_array    0x000000000044cf60       0x10 0x8 virtio/rng.o
 .init_array    0x000000000044cf70       0x10 0x8 virtio/balloon.o
 .init_array    0x000000000044cf80       0x10 0x8 ioeventfd.o
 .init_array    0x000000000044cf90       0x10 0x8 kvm-ipc.o
 .init_array    0x000000000044cfa0       0x10 0x8 util/threadpool.o
 .init_array    0x000000000044cfb0       0x10 0x8 hw/pci-shmem.o
 .init_array    0x000000000044cfc0        0x8 0x8 hw/i8042.o
 .init_array    0x000000000044cfc8        0x8 0x8 virtio/9p.o
 .init_array    0x000000000044cfd0       0x10 0x8 x86/irq.o
 .init_array    0x000000000044cfe0       0x10 0x8 x86/mptable.o
 .init_array    0x000000000044cff0        0x8 0x8 /home/ashwin/pcn_compiler_lkvm/x86_64/lib/libc.a(malloc.o)
 .init_array    0x000000000044cff8        0x8 0x8 /home/ashwin/pcn_compiler_lkvm/x86_64/lib/libc.a(popcorn_malloc.o)

.data           0x000000000044d000     0x1e28
 .data          0x000000000044d000        0x4 0x4 builtin-debug.o
 .data          0x000000000044d010      0x420 0x10 builtin-help.o
 .data          0x000000000044d430       0x60 0x10 builtin-run.o
 .data          0x000000000044d490       0x90 0x10 builtin-setup.o
 .data          0x000000000044d520       0x31 0x10 disk/core.o
 .data          0x000000000044d558       0x22 0x8 framebuffer.o
 .data          0x000000000044d580       0x10 0x8 guest_compat.o
 .data          0x000000000044d590       0x44 0x8 hw/rtc.o
 .data          0x000000000044d5e0      0x378 0x10 hw/serial.o
 .data          0x000000000044d960       0xa4 0x10 kvm_common.o
                0x000000000044d960                kvm_exit_reasons
 .data          0x000000000044da08       0x4c 0x8 pci_common.o
 .data          0x000000000044da54       0x18 0x4 term.o
                0x000000000044da54                term_escape_char
 .data          0x000000000044da70       0xc4 0x10 virtio/blk.o
 .data          0x000000000044db40       0xc4 0x10 virtio/scsi.o
 .data          0x000000000044dc10      0x258 0x10 virtio/console.o
 .data          0x000000000044de70       0xe4 0x10 virtio/net.o
 .data          0x000000000044df60       0xc1 0x10 virtio/rng.o
 .data          0x000000000044e030       0xb1 0x10 virtio/balloon.o
                0x000000000044e030                bln_dev_virtio_ops
 .data          0x000000000044e0e8       0x18 0x8 virtio/pci.o
 .data          0x000000000044e100       0x20 0x8 disk/blk.o
 .data          0x000000000044e120       0x40 0x8 disk/qcow.o
 .data          0x000000000044e160       0x60 0x8 disk/raw.o
                0x000000000044e160                ro_ops
                0x000000000044e180                ro_ops_nowrite
 .data          0x000000000044e1c0       0x30 0x10 ioeventfd.o
 .data          0x000000000044e1f0      0x1c0 0x10 kvm-cmd.o
                0x000000000044e1f0                kvm_commands
 .data          0x000000000044e3b0       0x1c 0x1 kvm-ipc.o
 .data          0x000000000044e3d0       0x48 0x10 util/threadpool.o
 .data          0x000000000044e420      0x160 0x10 hw/pci-shmem.o
 .data          0x000000000044e580        0xa 0x1 hw/i8042.o
 .data          0x000000000044e590      0x488 0x10 virtio/9p.o
                0x000000000044e590                p9_dev_virtio_ops
 .data          0x000000000044ea18        0x4 0x4 virtio/mmio.o
 .data          0x000000000044ea20       0xa8 0x10 x86/kvm.o
                0x000000000044ea20                kvm_req_ext
 .data          0x000000000044eac8       0x78 0x8 x86/ioport.o
 .data          0x000000000044eb40       0x18 0x4 x86/irq.o
 .data          0x000000000044eb60       0xa8 0x10 x86/kvm.o
 .data          0x000000000044ec08       0x1c 0x1 x86/mptable.o
 .data.src_stdio_stderr_c_f
                0x000000000044ec28       0xe8 0x8 /home/ashwin/pcn_compiler_lkvm/x86_64/lib/libc.a(stderr.o)
 .data.__stderr_used
                0x000000000044ed10        0x8 0x8 /home/ashwin/pcn_compiler_lkvm/x86_64/lib/libc.a(stderr.o)
                0x000000000044ed10                __stderr_used
 .data.src_stdio_stdout_c_f
                0x000000000044ed18       0xe8 0x8 /home/ashwin/pcn_compiler_lkvm/x86_64/lib/libc.a(stdout.o)
 .data.__stdout_used
                0x000000000044ee00        0x8 0x8 /home/ashwin/pcn_compiler_lkvm/x86_64/lib/libc.a(stdout.o)
                0x000000000044ee00                __stdout_used
 .data.__default_stacksize
                0x000000000044ee08        0x8 0x8 /home/ashwin/pcn_compiler_lkvm/x86_64/lib/libc.a(pthread_create.o)
                0x000000000044ee08                __default_stacksize
 .data.__default_guardsize
                0x000000000044ee10        0x8 0x8 /home/ashwin/pcn_compiler_lkvm/x86_64/lib/libc.a(pthread_create.o)
                0x000000000044ee10                __default_guardsize
 .data.src_time___tz_c_old_tz
                0x000000000044ee18        0x8 0x8 /home/ashwin/pcn_compiler_lkvm/x86_64/lib/libc.a(__tz.o)
 .data.src_time___tz_c_old_tz_size
                0x000000000044ee20        0x8 0x8 /home/ashwin/pcn_compiler_lkvm/x86_64/lib/libc.a(__tz.o)

.bss            0x000000000044f000    0x260ac
 .bss           0x000000000044f000       0x18 0x8 builtin-balloon.o
 .bss           0x000000000044f018       0x20 0x8 builtin-debug.o
 .bss           0x000000000044f038        0x2 0x1 builtin-list.o
 .bss           0x000000000044f040       0x10 0x8 builtin-stat.o
 .bss           0x000000000044f050       0x10 0x8 builtin-pause.o
 .bss           0x000000000044f060       0x10 0x8 builtin-resume.o
 .bss           0x000000000044f070     0x1830 0x10 builtin-run.o
                0x000000000044f070                do_debug_print
 .bss           0x00000000004508a0        0x8 0x8 builtin-setup.o
 .bss           0x00000000004508a8       0x10 0x8 builtin-stop.o
 .bss           0x00000000004508c0       0x30 0x10 devices.o
 .bss           0x00000000004508f0       0x40 0x8 disk/core.o
 .bss           0x0000000000450930       0x40 0x8 framebuffer.o
 .bss           0x0000000000450970       0x30 0x8 guest_compat.o
 .bss           0x00000000004509a0       0xc1 0x8 hw/rtc.o
 .bss           0x0000000000450a68       0x48 0x8 hw/serial.o
 .bss           0x0000000000450ab0        0x4 0x4 x86/kvm-cpu.o
 .bss           0x0000000000450ac0     0x1070 0x10 kvm_common.o
 .bss           0x0000000000451b30       0x44 0x8 pci_common.o
 .bss           0x0000000000451b78       0x88 0x8 term.o
                0x0000000000451b78                term_got_escape
 .bss           0x0000000000451c00       0x40 0x8 virtio/blk.o
 .bss           0x0000000000451c40       0x40 0x8 virtio/scsi.o
 .bss           0x0000000000451c80       0x40 0x8 virtio/console.o
 .bss           0x0000000000451cc0       0x98 0x8 virtio/net.o
 .bss           0x0000000000451d58       0x40 0x8 virtio/rng.o
 .bss           0x0000000000451d98      0x278 0x8 virtio/balloon.o
 .bss           0x0000000000452010      0x140 0x10 ioeventfd.o
 .bss           0x0000000000452150       0xa0 0x10 util/init.o
 .bss           0x00000000004521f0      0x118 0x10 kvm-ipc.o
 .bss           0x0000000000452308       0xd8 0x8 util/threadpool.o
 .bss           0x00000000004523e0       0x90 0x10 hw/pci-shmem.o
 .bss           0x0000000000452470      0x150 0x8 hw/i8042.o
 .bss           0x00000000004525c0       0x20 0x8 virtio/9p.o
 .bss           0x00000000004525e0       0x40 0x8 x86/irq.o
 .bss           0x0000000000452620       0x40 0x8 x86/mptable.o
 .bss.__popcorn_stack_base
                0x0000000000452660        0x8 0x8 /home/ashwin/pcn_compiler_lkvm/x86_64/lib/libc.a(__libc_start_main.o)
                0x0000000000452660                __popcorn_stack_base
 .bss.src_exit_atexit_c_lock
                0x0000000000452668        0x8 0x4 /home/ashwin/pcn_compiler_lkvm/x86_64/lib/libc.a(atexit.o)
 .bss.src_exit_atexit_c_head
                0x0000000000452670        0x8 0x8 /home/ashwin/pcn_compiler_lkvm/x86_64/lib/libc.a(atexit.o)
 .bss.src_exit_atexit_c_slot
                0x0000000000452678        0x4 0x4 /home/ashwin/pcn_compiler_lkvm/x86_64/lib/libc.a(atexit.o)
 .bss.src_exit_atexit_c_builtin
                0x0000000000452680      0x208 0x8 /home/ashwin/pcn_compiler_lkvm/x86_64/lib/libc.a(atexit.o)
 .bss.__progname
                0x0000000000452888        0x8 0x8 /home/ashwin/pcn_compiler_lkvm/x86_64/lib/libc.a(libc.o)
                0x0000000000452888                __progname
                0x0000000000452888                program_invocation_short_name
 .bss.__progname_full
                0x0000000000452890        0x8 0x8 /home/ashwin/pcn_compiler_lkvm/x86_64/lib/libc.a(libc.o)
                0x0000000000452890                __progname_full
                0x0000000000452890                program_invocation_name
 .bss.src_malloc_lite_malloc_c___simple_malloc_cur
                0x0000000000452898        0x8 0x8 /home/ashwin/pcn_compiler_lkvm/x86_64/lib/libc.a(lite_malloc.o)
 .bss.src_malloc_lite_malloc_c___simple_malloc_end
                0x00000000004528a0        0x8 0x8 /home/ashwin/pcn_compiler_lkvm/x86_64/lib/libc.a(lite_malloc.o)
 .bss.src_malloc_lite_malloc_c___simple_malloc_lock
                0x00000000004528a8        0x8 0x4 /home/ashwin/pcn_compiler_lkvm/x86_64/lib/libc.a(lite_malloc.o)
 .bss.src_malloc_malloc_c_mal
                0x0000000000453000     0x1000 0x1000 /home/ashwin/pcn_compiler_lkvm/x86_64/lib/libc.a(malloc.o)
 .bss.src_malloc_malloc_c_expand_heap_heap_lock
                0x0000000000454000        0x8 0x4 /home/ashwin/pcn_compiler_lkvm/x86_64/lib/libc.a(malloc.o)
 .bss.src_malloc_malloc_c_expand_heap_end
                0x0000000000454008        0x8 0x8 /home/ashwin/pcn_compiler_lkvm/x86_64/lib/libc.a(malloc.o)
 .bss.src_malloc_popcorn_malloc_c_expand_heap_heap_lock
                0x0000000000454010      0x100 0x10 /home/ashwin/pcn_compiler_lkvm/x86_64/lib/libc.a(popcorn_malloc.o)
 .bss.src_malloc_popcorn_malloc_c_expand_heap_end
                0x0000000000454110      0x100 0x10 /home/ashwin/pcn_compiler_lkvm/x86_64/lib/libc.a(popcorn_malloc.o)
 .bss.src_misc_mntent_c_internal_buf
                0x0000000000454210        0x8 0x8 /home/ashwin/pcn_compiler_lkvm/x86_64/lib/libc.a(mntent.o)
 .bss.src_misc_mntent_c_internal_bufsize
                0x0000000000454218        0x8 0x8 /home/ashwin/pcn_compiler_lkvm/x86_64/lib/libc.a(mntent.o)
 .bss.src_misc_mntent_c_getmntent_mnt
                0x0000000000454220       0x28 0x8 /home/ashwin/pcn_compiler_lkvm/x86_64/lib/libc.a(mntent.o)
 .bss.src_stdio_fflush_c_dummy
                0x0000000000454248        0x8 0x8 /home/ashwin/pcn_compiler_lkvm/x86_64/lib/libc.a(fflush.o)
 .bss.src_stdio_ofl_c_ofl_lock
                0x0000000000454250        0x8 0x4 /home/ashwin/pcn_compiler_lkvm/x86_64/lib/libc.a(ofl.o)
 .bss.src_stdio_ofl_c_ofl_head
                0x0000000000454258        0x8 0x8 /home/ashwin/pcn_compiler_lkvm/x86_64/lib/libc.a(ofl.o)
 .bss.src_stdio_stderr_c_buf
                0x0000000000454260        0x8 0x1 /home/ashwin/pcn_compiler_lkvm/x86_64/lib/libc.a(stderr.o)
 .bss.src_stdio_stdout_c_buf
                0x0000000000454270      0x408 0x10 /home/ashwin/pcn_compiler_lkvm/x86_64/lib/libc.a(stdout.o)
 .bss.src_string_strtok_c_strtok_p
                0x0000000000454678        0x8 0x8 /home/ashwin/pcn_compiler_lkvm/x86_64/lib/libc.a(strtok.o)
 .bss.src_thread_pthread_create_c_dummy
                0x0000000000454680        0x8 0x8 /home/ashwin/pcn_compiler_lkvm/x86_64/lib/libc.a(pthread_create.o)
                0x0000000000454680                __pthread_tsd_size
 .bss.src_thread_pthread_create_c_dummy_tsd
                0x0000000000454688        0x8 0x8 /home/ashwin/pcn_compiler_lkvm/x86_64/lib/libc.a(pthread_create.o)
                0x0000000000454688                __pthread_tsd_main
 .bss.__block_new_threads
                0x0000000000454690        0x4 0x4 /home/ashwin/pcn_compiler_lkvm/x86_64/lib/libc.a(pthread_create.o)
                0x0000000000454690                __block_new_threads
 .bss.src_thread_pthread_create_c_dummy_file
                0x0000000000454698        0x8 0x8 /home/ashwin/pcn_compiler_lkvm/x86_64/lib/libc.a(pthread_create.o)
                0x0000000000454698                __stdin_used
 .bss.src_thread_vmlock_c_vmlock
                0x00000000004546a0        0x8 0x4 /home/ashwin/pcn_compiler_lkvm/x86_64/lib/libc.a(vmlock.o)
 .bss.src_time_gmtime_c_gmtime_tm
                0x00000000004546a8       0x38 0x8 /home/ashwin/pcn_compiler_lkvm/x86_64/lib/libc.a(gmtime.o)
 .bss.__environ
                0x00000000004546e0        0x8 0x8 /home/ashwin/pcn_compiler_lkvm/x86_64/lib/libc.a(__environ.o)
                0x00000000004546e0                ___environ
                0x00000000004546e0                __environ
                0x00000000004546e0                _environ
                0x00000000004546e0                environ
 .bss.src_env___init_tls_c_main_tls
                0x00000000004546e8       0x30 0x8 /home/ashwin/pcn_compiler_lkvm/x86_64/lib/libc.a(__init_tls.o)
 .bss.src_env___init_tls_c_builtin_tls
                0x0000000000454720      0x1a8 0x10 /home/ashwin/pcn_compiler_lkvm/x86_64/lib/libc.a(__init_tls.o)
 .bss.src_malloc_expand_heap_c___expand_heap_brk
                0x00000000004548c8        0x8 0x8 /home/ashwin/pcn_compiler_lkvm/x86_64/lib/libc.a(expand_heap.o)
 .bss.src_malloc_expand_heap_c___expand_heap_mmap_step
                0x00000000004548d0        0x4 0x4 /home/ashwin/pcn_compiler_lkvm/x86_64/lib/libc.a(expand_heap.o)
 .bss.src_malloc_expand_heap_c___expand_heap_node_node_arenas
                0x00000000004548e0      0x100 0x10 /home/ashwin/pcn_compiler_lkvm/x86_64/lib/libc.a(expand_heap.o)
 .bss.src_malloc_expand_heap_c___expand_heap_node_node_sizes
                0x00000000004549e0      0x100 0x10 /home/ashwin/pcn_compiler_lkvm/x86_64/lib/libc.a(expand_heap.o)
 .bss.src_malloc_expand_heap_c_arena_start
                0x0000000000454ae0        0x8 0x8 /home/ashwin/pcn_compiler_lkvm/x86_64/lib/libc.a(expand_heap.o)
 .bss.src_malloc_expand_heap_c_set_arena_start_lock
                0x0000000000454ae8        0x8 0x4 /home/ashwin/pcn_compiler_lkvm/x86_64/lib/libc.a(expand_heap.o)
 .bss.src_multibyte_mbrtowc_c_mbrtowc_internal_state
                0x0000000000454af0        0x4 0x4 /home/ashwin/pcn_compiler_lkvm/x86_64/lib/libc.a(mbrtowc.o)
 .bss.src_signal_sigaction_c_handler_set
                0x0000000000454af8        0x8 0x8 /home/ashwin/pcn_compiler_lkvm/x86_64/lib/libc.a(sigaction.o)
 .bss.src_signal_sigaction_c_unmask_done
                0x0000000000454b00        0x1 0x4 /home/ashwin/pcn_compiler_lkvm/x86_64/lib/libc.a(sigaction.o)
 .bss.__timezone
                0x0000000000454b08        0x8 0x8 /home/ashwin/pcn_compiler_lkvm/x86_64/lib/libc.a(__tz.o)
                0x0000000000454b08                __timezone
                0x0000000000454b08                timezone
 .bss.__daylight
                0x0000000000454b10        0x4 0x4 /home/ashwin/pcn_compiler_lkvm/x86_64/lib/libc.a(__tz.o)
                0x0000000000454b10                __daylight
                0x0000000000454b10                daylight
 .bss.__tzname  0x0000000000454b20       0x10 0x10 /home/ashwin/pcn_compiler_lkvm/x86_64/lib/libc.a(__tz.o)
                0x0000000000454b20                __tzname
                0x0000000000454b20                tzname
 .bss.src_time___tz_c_lock
                0x0000000000454b30        0x8 0x4 /home/ashwin/pcn_compiler_lkvm/x86_64/lib/libc.a(__tz.o)
 .bss.src_time___tz_c_zi
                0x0000000000454b38        0x8 0x8 /home/ashwin/pcn_compiler_lkvm/x86_64/lib/libc.a(__tz.o)
 .bss.src_time___tz_c_types
                0x0000000000454b40        0x8 0x8 /home/ashwin/pcn_compiler_lkvm/x86_64/lib/libc.a(__tz.o)
 .bss.src_time___tz_c_abbrevs
                0x0000000000454b48        0x8 0x8 /home/ashwin/pcn_compiler_lkvm/x86_64/lib/libc.a(__tz.o)
 .bss.src_time___tz_c_r0
                0x0000000000454b50       0x14 0x10 /home/ashwin/pcn_compiler_lkvm/x86_64/lib/libc.a(__tz.o)
 .bss.src_time___tz_c_r1
                0x0000000000454b70       0x14 0x10 /home/ashwin/pcn_compiler_lkvm/x86_64/lib/libc.a(__tz.o)
 .bss.src_time___tz_c_dst_off
                0x0000000000454b84        0x4 0x4 /home/ashwin/pcn_compiler_lkvm/x86_64/lib/libc.a(__tz.o)
 .bss.src_time___tz_c_abbrevs_end
                0x0000000000454b88        0x8 0x8 /home/ashwin/pcn_compiler_lkvm/x86_64/lib/libc.a(__tz.o)
 .bss.src_time___tz_c_map_size
                0x0000000000454b90        0x8 0x8 /home/ashwin/pcn_compiler_lkvm/x86_64/lib/libc.a(__tz.o)
 .bss.src_time___tz_c_trans
                0x0000000000454b98        0x8 0x8 /home/ashwin/pcn_compiler_lkvm/x86_64/lib/libc.a(__tz.o)
 .bss.src_time___tz_c_index
                0x0000000000454ba0        0x8 0x8 /home/ashwin/pcn_compiler_lkvm/x86_64/lib/libc.a(__tz.o)
 .bss.src_time___tz_c_std_name
                0x0000000000454ba8        0x7 0x1 /home/ashwin/pcn_compiler_lkvm/x86_64/lib/libc.a(__tz.o)
 .bss.src_time___tz_c_dst_name
                0x0000000000454baf        0x7 0x1 /home/ashwin/pcn_compiler_lkvm/x86_64/lib/libc.a(__tz.o)
 .bss.src_time___tz_c_old_tz_buf
                0x0000000000454bc0       0x20 0x10 /home/ashwin/pcn_compiler_lkvm/x86_64/lib/libc.a(__tz.o)
 .bss.src_stdio___stdio_exit_c_dummy_file
                0x0000000000454be0        0x8 0x8 /home/ashwin/pcn_compiler_lkvm/x86_64/lib/libc.a(__stdio_exit.o)
 ** common      0x0000000000455000    0x200ac

.comment        0x0000000000000000       0x69
 ** merge strings
                0x0000000000000000       0x69

.debug_str      0x0000000000000000     0x3b5c
 ** merge strings
                0x0000000000000000     0x3b5c

.debug_loc      0x0000000000000000    0x23bc6
 .debug_loc     0x0000000000000000       0x69 0x1 /home/ashwin/pcn_compiler_lkvm/x86_64/lib/crt1.o
 .debug_loc     0x0000000000000069      0x21c 0x1 /home/ashwin/pcn_compiler_lkvm/x86_64/lib/libc.a(sysconf.o)
 .debug_loc     0x0000000000000285       0x59 0x1 /home/ashwin/pcn_compiler_lkvm/x86_64/lib/libc.a(closedir.o)
 .debug_loc     0x00000000000002de       0xb1 0x1 /home/ashwin/pcn_compiler_lkvm/x86_64/lib/libc.a(opendir.o)
 .debug_loc     0x000000000000038f      0x157 0x1 /home/ashwin/pcn_compiler_lkvm/x86_64/lib/libc.a(readdir.o)
 .debug_loc     0x00000000000004e6      0x10b 0x1 /home/ashwin/pcn_compiler_lkvm/x86_64/lib/libc.a(readdir_r.o)
 .debug_loc     0x00000000000005f1       0x7f 0x1 /home/ashwin/pcn_compiler_lkvm/x86_64/lib/libc.a(seekdir.o)
 .debug_loc     0x0000000000000670      0x391 0x1 /home/ashwin/pcn_compiler_lkvm/x86_64/lib/libc.a(__libc_start_main.o)
 .debug_loc     0x0000000000000a01       0x7f 0x1 /home/ashwin/pcn_compiler_lkvm/x86_64/lib/libc.a(getenv.o)
 .debug_loc     0x0000000000000a80       0x23 0x1 /home/ashwin/pcn_compiler_lkvm/x86_64/lib/libc.a(__errno_location.o)
 .debug_loc     0x0000000000000aa3      0x16c 0x1 /home/ashwin/pcn_compiler_lkvm/x86_64/lib/libc.a(strerror.o)
 .debug_loc     0x0000000000000c0f      0x154 0x1 /home/ashwin/pcn_compiler_lkvm/x86_64/lib/libc.a(atexit.o)
 .debug_loc     0x0000000000000d63       0x6c 0x1 /home/ashwin/pcn_compiler_lkvm/x86_64/lib/libc.a(exit.o)
 .debug_loc     0x0000000000000dcf      0x773 0x1 /home/ashwin/pcn_compiler_lkvm/x86_64/lib/libc.a(fcntl.o)
 .debug_loc     0x0000000000001542      0x146 0x1 /home/ashwin/pcn_compiler_lkvm/x86_64/lib/libc.a(open.o)
 .debug_loc     0x0000000000001688       0x36 0x1 /home/ashwin/pcn_compiler_lkvm/x86_64/lib/libc.a(syscall_ret.o)
 .debug_loc     0x00000000000016be      0x5b6 0x1 /home/ashwin/pcn_compiler_lkvm/x86_64/lib/libc.a(epoll.o)
 .debug_loc     0x0000000000001c74      0x1a7 0x1 /home/ashwin/pcn_compiler_lkvm/x86_64/lib/libc.a(eventfd.o)
 .debug_loc     0x0000000000001e1b      0x173 0x1 /home/ashwin/pcn_compiler_lkvm/x86_64/lib/libc.a(prctl.o)
 .debug_loc     0x0000000000001f8e       0x69 0x1 /home/ashwin/pcn_compiler_lkvm/x86_64/lib/libc.a(sysinfo.o)
 .debug_loc     0x0000000000001ff7       0xc2 0x1 /home/ashwin/pcn_compiler_lkvm/x86_64/lib/libc.a(__lctrans.o)
 .debug_loc     0x00000000000020b9      0x21f 0x1 /home/ashwin/pcn_compiler_lkvm/x86_64/lib/libc.a(calloc.o)
 .debug_loc     0x00000000000022d8      0x1be 0x1 /home/ashwin/pcn_compiler_lkvm/x86_64/lib/libc.a(lite_malloc.o)
 .debug_loc     0x0000000000002496     0x3204 0x1 /home/ashwin/pcn_compiler_lkvm/x86_64/lib/libc.a(malloc.o)
 .debug_loc     0x000000000000569a     0x33c1 0x1 /home/ashwin/pcn_compiler_lkvm/x86_64/lib/libc.a(popcorn_malloc.o)
 .debug_loc     0x0000000000008a5b      0x20c 0x1 /home/ashwin/pcn_compiler_lkvm/x86_64/lib/libc.a(getrlimit.o)
 .debug_loc     0x0000000000008c67       0xd2 0x1 /home/ashwin/pcn_compiler_lkvm/x86_64/lib/libc.a(ioctl.o)
 .debug_loc     0x0000000000008d39      0x286 0x1 /home/ashwin/pcn_compiler_lkvm/x86_64/lib/libc.a(mntent.o)
 .debug_loc     0x0000000000008fbf      0x2c0 0x1 /home/ashwin/pcn_compiler_lkvm/x86_64/lib/libc.a(openpty.o)
 .debug_loc     0x000000000000927f      0x2cf 0x1 /home/ashwin/pcn_compiler_lkvm/x86_64/lib/libc.a(realpath.o)
 .debug_loc     0x000000000000954e       0x69 0x1 /home/ashwin/pcn_compiler_lkvm/x86_64/lib/libc.a(uname.o)
 .debug_loc     0x00000000000095b7       0xf5 0x1 /home/ashwin/pcn_compiler_lkvm/x86_64/lib/libc.a(madvise.o)
 .debug_loc     0x00000000000096ac      0x3ce 0x1 /home/ashwin/pcn_compiler_lkvm/x86_64/lib/libc.a(mmap.o)
 .debug_loc     0x0000000000009a7a      0x13b 0x1 /home/ashwin/pcn_compiler_lkvm/x86_64/lib/libc.a(mprotect.o)
 .debug_loc     0x0000000000009bb5      0x215 0x1 /home/ashwin/pcn_compiler_lkvm/x86_64/lib/libc.a(mremap.o)
 .debug_loc     0x0000000000009dca       0xfb 0x1 /home/ashwin/pcn_compiler_lkvm/x86_64/lib/libc.a(munmap.o)
 .debug_loc     0x0000000000009ec5      0x246 0x1 /home/ashwin/pcn_compiler_lkvm/x86_64/lib/libc.a(shm_open.o)
 .debug_loc     0x000000000000a10b       0x8f 0x1 /home/ashwin/pcn_compiler_lkvm/x86_64/lib/libc.a(accept.o)
 .debug_loc     0x000000000000a19a       0xf5 0x1 /home/ashwin/pcn_compiler_lkvm/x86_64/lib/libc.a(bind.o)
 .debug_loc     0x000000000000a28f       0x8f 0x1 /home/ashwin/pcn_compiler_lkvm/x86_64/lib/libc.a(connect.o)
 .debug_loc     0x000000000000a31e       0x6c 0x1 /home/ashwin/pcn_compiler_lkvm/x86_64/lib/libc.a(htonl.o)
 .debug_loc     0x000000000000a38a       0x36 0x1 /home/ashwin/pcn_compiler_lkvm/x86_64/lib/libc.a(htons.o)
 .debug_loc     0x000000000000a3c0       0x23 0x1 /home/ashwin/pcn_compiler_lkvm/x86_64/lib/libc.a(inet_addr.o)
 .debug_loc     0x000000000000a3e3      0x197 0x1 /home/ashwin/pcn_compiler_lkvm/x86_64/lib/libc.a(inet_aton.o)
 .debug_loc     0x000000000000a57a       0xaf 0x1 /home/ashwin/pcn_compiler_lkvm/x86_64/lib/libc.a(listen.o)
 .debug_loc     0x000000000000a629       0x6c 0x1 /home/ashwin/pcn_compiler_lkvm/x86_64/lib/libc.a(ntohl.o)
 .debug_loc     0x000000000000a695       0x36 0x1 /home/ashwin/pcn_compiler_lkvm/x86_64/lib/libc.a(ntohs.o)
 .debug_loc     0x000000000000a6cb      0x131 0x1 /home/ashwin/pcn_compiler_lkvm/x86_64/lib/libc.a(recvfrom.o)
 .debug_loc     0x000000000000a7fc      0x131 0x1 /home/ashwin/pcn_compiler_lkvm/x86_64/lib/libc.a(sendto.o)
 .debug_loc     0x000000000000a92d       0xaf 0x1 /home/ashwin/pcn_compiler_lkvm/x86_64/lib/libc.a(shutdown.o)
 .debug_loc     0x000000000000a9dc      0x373 0x1 /home/ashwin/pcn_compiler_lkvm/x86_64/lib/libc.a(socket.o)
 .debug_loc     0x000000000000ad4f      0x149 0x1 /home/ashwin/pcn_compiler_lkvm/x86_64/lib/libc.a(execl.o)
 .debug_loc     0x000000000000ae98       0x46 0x1 /home/ashwin/pcn_compiler_lkvm/x86_64/lib/libc.a(execv.o)
 .debug_loc     0x000000000000aede       0xf5 0x1 /home/ashwin/pcn_compiler_lkvm/x86_64/lib/libc.a(execve.o)
 .debug_loc     0x000000000000afd3       0xd5 0x1 /home/ashwin/pcn_compiler_lkvm/x86_64/lib/libc.a(fork.o)
 .debug_loc     0x000000000000b0a8       0x8f 0x1 /home/ashwin/pcn_compiler_lkvm/x86_64/lib/libc.a(waitpid.o)
 .debug_loc     0x000000000000b137       0xa2 0x1 /home/ashwin/pcn_compiler_lkvm/x86_64/lib/libc.a(poll.o)
 .debug_loc     0x000000000000b1d9       0xfb 0x1 /home/ashwin/pcn_compiler_lkvm/x86_64/lib/libc.a(select.o)
 .debug_loc     0x000000000000b2d4       0xe8 0x1 /home/ashwin/pcn_compiler_lkvm/x86_64/lib/libc.a(block.o)
 .debug_loc     0x000000000000b3bc       0xe5 0x1 /home/ashwin/pcn_compiler_lkvm/x86_64/lib/libc.a(raise.o)
 .debug_loc     0x000000000000b4a1       0xc8 0x1 /home/ashwin/pcn_compiler_lkvm/x86_64/lib/libc.a(signal.o)
 .debug_loc     0x000000000000b569       0xaf 0x1 /home/ashwin/pcn_compiler_lkvm/x86_64/lib/libc.a(chmod.o)
 .debug_loc     0x000000000000b618      0x322 0x1 /home/ashwin/pcn_compiler_lkvm/x86_64/lib/libc.a(fstat.o)
 .debug_loc     0x000000000000b93a       0xf9 0x1 /home/ashwin/pcn_compiler_lkvm/x86_64/lib/libc.a(lstat.o)
 .debug_loc     0x000000000000ba33       0xaf 0x1 /home/ashwin/pcn_compiler_lkvm/x86_64/lib/libc.a(mkdir.o)
 .debug_loc     0x000000000000bae2       0xf5 0x1 /home/ashwin/pcn_compiler_lkvm/x86_64/lib/libc.a(mknod.o)
 .debug_loc     0x000000000000bbd7      0x109 0x1 /home/ashwin/pcn_compiler_lkvm/x86_64/lib/libc.a(stat.o)
 .debug_loc     0x000000000000bce0      0x56a 0x1 /home/ashwin/pcn_compiler_lkvm/x86_64/lib/libc.a(statvfs.o)
 .debug_loc     0x000000000000c24a      0x369 0x1 /home/ashwin/pcn_compiler_lkvm/x86_64/lib/libc.a(utimensat.o)
 .debug_loc     0x000000000000c5b3       0x69 0x1 /home/ashwin/pcn_compiler_lkvm/x86_64/lib/libc.a(dprintf.o)
 .debug_loc     0x000000000000c61c       0xb2 0x1 /home/ashwin/pcn_compiler_lkvm/x86_64/lib/libc.a(fclose.o)
 .debug_loc     0x000000000000c6ce       0x6c 0x1 /home/ashwin/pcn_compiler_lkvm/x86_64/lib/libc.a(feof.o)
 .debug_loc     0x000000000000c73a       0x6c 0x1 /home/ashwin/pcn_compiler_lkvm/x86_64/lib/libc.a(ferror.o)
 .debug_loc     0x000000000000c7a6      0x111 0x1 /home/ashwin/pcn_compiler_lkvm/x86_64/lib/libc.a(fflush.o)
 .debug_loc     0x000000000000c8b7      0x2f9 0x1 /home/ashwin/pcn_compiler_lkvm/x86_64/lib/libc.a(fgets.o)
 .debug_loc     0x000000000000cbb0      0x277 0x1 /home/ashwin/pcn_compiler_lkvm/x86_64/lib/libc.a(fopen.o)
 .debug_loc     0x000000000000ce27       0x69 0x1 /home/ashwin/pcn_compiler_lkvm/x86_64/lib/libc.a(fprintf.o)
 .debug_loc     0x000000000000ce90       0x92 0x1 /home/ashwin/pcn_compiler_lkvm/x86_64/lib/libc.a(fputc.o)
 .debug_loc     0x000000000000cf22       0x69 0x1 /home/ashwin/pcn_compiler_lkvm/x86_64/lib/libc.a(fscanf.o)
 .debug_loc     0x000000000000cf8b      0x209 0x1 /home/ashwin/pcn_compiler_lkvm/x86_64/lib/libc.a(fseek.o)
 .debug_loc     0x000000000000d194       0x7c 0x1 /home/ashwin/pcn_compiler_lkvm/x86_64/lib/libc.a(getline.o)
 .debug_loc     0x000000000000d210       0x9f 0x1 /home/ashwin/pcn_compiler_lkvm/x86_64/lib/libc.a(perror.o)
 .debug_loc     0x000000000000d2af       0x6c 0x1 /home/ashwin/pcn_compiler_lkvm/x86_64/lib/libc.a(printf.o)
 .debug_loc     0x000000000000d31b       0x23 0x1 /home/ashwin/pcn_compiler_lkvm/x86_64/lib/libc.a(putchar.o)
 .debug_loc     0x000000000000d33e       0xa2 0x1 /home/ashwin/pcn_compiler_lkvm/x86_64/lib/libc.a(puts.o)
 .debug_loc     0x000000000000d3e0       0xd5 0x1 /home/ashwin/pcn_compiler_lkvm/x86_64/lib/libc.a(remove.o)
 .debug_loc     0x000000000000d4b5       0xaf 0x1 /home/ashwin/pcn_compiler_lkvm/x86_64/lib/libc.a(rename.o)
 .debug_loc     0x000000000000d564       0x8c 0x1 /home/ashwin/pcn_compiler_lkvm/x86_64/lib/libc.a(snprintf.o)
 .debug_loc     0x000000000000d5f0       0x69 0x1 /home/ashwin/pcn_compiler_lkvm/x86_64/lib/libc.a(sprintf.o)
 .debug_loc     0x000000000000d659       0x69 0x1 /home/ashwin/pcn_compiler_lkvm/x86_64/lib/libc.a(sscanf.o)
 .debug_loc     0x000000000000d6c2      0x142 0x1 /home/ashwin/pcn_compiler_lkvm/x86_64/lib/libc.a(vdprintf.o)
 .debug_loc     0x000000000000d804     0x36e9 0x1 /home/ashwin/pcn_compiler_lkvm/x86_64/lib/libc.a(vfprintf.o)
 .debug_loc     0x0000000000010eed     0x108c 0x1 /home/ashwin/pcn_compiler_lkvm/x86_64/lib/libc.a(vfscanf.o)
 .debug_loc     0x0000000000011f79      0x1e5 0x1 /home/ashwin/pcn_compiler_lkvm/x86_64/lib/libc.a(vsnprintf.o)
 .debug_loc     0x000000000001215e       0x8f 0x1 /home/ashwin/pcn_compiler_lkvm/x86_64/lib/libc.a(vsprintf.o)
 .debug_loc     0x00000000000121ed      0x155 0x1 /home/ashwin/pcn_compiler_lkvm/x86_64/lib/libc.a(vsscanf.o)
 .debug_loc     0x0000000000012342      0x128 0x1 /home/ashwin/pcn_compiler_lkvm/x86_64/lib/libc.a(atoi.o)
 .debug_loc     0x000000000001246a      0x4b0 0x1 /home/ashwin/pcn_compiler_lkvm/x86_64/lib/libc.a(strtol.o)
 .debug_loc     0x000000000001291a      0x144 0x1 /home/ashwin/pcn_compiler_lkvm/x86_64/lib/libc.a(memchr.o)
 .debug_loc     0x0000000000012a5e       0xd8 0x1 /home/ashwin/pcn_compiler_lkvm/x86_64/lib/libc.a(memcmp.o)
 .debug_loc     0x0000000000012b36       0x8f 0x1 /home/ashwin/pcn_compiler_lkvm/x86_64/lib/libc.a(strcasestr.o)
 .debug_loc     0x0000000000012bc5       0x7f 0x1 /home/ashwin/pcn_compiler_lkvm/x86_64/lib/libc.a(strcat.o)
 .debug_loc     0x0000000000012c44       0x7c 0x1 /home/ashwin/pcn_compiler_lkvm/x86_64/lib/libc.a(strchr.o)
 .debug_loc     0x0000000000012cc0      0x111 0x1 /home/ashwin/pcn_compiler_lkvm/x86_64/lib/libc.a(strchrnul.o)
 .debug_loc     0x0000000000012dd1       0x23 0x1 /home/ashwin/pcn_compiler_lkvm/x86_64/lib/libc.a(strcmp.o)
 .debug_loc     0x0000000000012df4       0x59 0x1 /home/ashwin/pcn_compiler_lkvm/x86_64/lib/libc.a(strcpy.o)
 .debug_loc     0x0000000000012e4d       0xa2 0x1 /home/ashwin/pcn_compiler_lkvm/x86_64/lib/libc.a(strdup.o)
 .debug_loc     0x0000000000012eef      0x108 0x1 /home/ashwin/pcn_compiler_lkvm/x86_64/lib/libc.a(strlen.o)
 .debug_loc     0x0000000000012ff7      0x4a1 0x1 /home/ashwin/pcn_compiler_lkvm/x86_64/lib/libc.a(strncasecmp.o)
 .debug_loc     0x0000000000013498      0x102 0x1 /home/ashwin/pcn_compiler_lkvm/x86_64/lib/libc.a(strncmp.o)
 .debug_loc     0x000000000001359a       0x7c 0x1 /home/ashwin/pcn_compiler_lkvm/x86_64/lib/libc.a(strncpy.o)
 .debug_loc     0x0000000000013616       0x9f 0x1 /home/ashwin/pcn_compiler_lkvm/x86_64/lib/libc.a(strndup.o)
 .debug_loc     0x00000000000136b5       0x8f 0x1 /home/ashwin/pcn_compiler_lkvm/x86_64/lib/libc.a(strnlen.o)
 .debug_loc     0x0000000000013744       0x82 0x1 /home/ashwin/pcn_compiler_lkvm/x86_64/lib/libc.a(strspn.o)
 .debug_loc     0x00000000000137c6      0xa83 0x1 /home/ashwin/pcn_compiler_lkvm/x86_64/lib/libc.a(strstr.o)
 .debug_loc     0x0000000000014249       0x7f 0x1 /home/ashwin/pcn_compiler_lkvm/x86_64/lib/libc.a(strtok.o)
 .debug_loc     0x00000000000142c8       0x23 0x1 /home/ashwin/pcn_compiler_lkvm/x86_64/lib/libc.a(mkstemp.o)
 .debug_loc     0x00000000000142eb       0x59 0x1 /home/ashwin/pcn_compiler_lkvm/x86_64/lib/libc.a(tcgetattr.o)
 .debug_loc     0x0000000000014344       0xa2 0x1 /home/ashwin/pcn_compiler_lkvm/x86_64/lib/libc.a(tcsetattr.o)
 .debug_loc     0x00000000000143e6      0x2b9 0x1 /home/ashwin/pcn_compiler_lkvm/x86_64/lib/libc.a(__lock.o)
 .debug_loc     0x000000000001469f      0x1a4 0x1 /home/ashwin/pcn_compiler_lkvm/x86_64/lib/libc.a(__syscall_cp.o)
 .debug_loc     0x0000000000014843      0x337 0x1 /home/ashwin/pcn_compiler_lkvm/x86_64/lib/libc.a(__wait.o)
 .debug_loc     0x0000000000014b7a       0xd5 0x1 /home/ashwin/pcn_compiler_lkvm/x86_64/lib/libc.a(pthread_cleanup_push.o)
 .debug_loc     0x0000000000014c4f      0x1ee 0x1 /home/ashwin/pcn_compiler_lkvm/x86_64/lib/libc.a(pthread_cond_signal.o)
 .debug_loc     0x0000000000014e3d     0x1ce3 0x1 /home/ashwin/pcn_compiler_lkvm/x86_64/lib/libc.a(pthread_cond_timedwait.o)
 .debug_loc     0x0000000000016b20       0x46 0x1 /home/ashwin/pcn_compiler_lkvm/x86_64/lib/libc.a(pthread_cond_wait.o)
 .debug_loc     0x0000000000016b66     0x1357 0x1 /home/ashwin/pcn_compiler_lkvm/x86_64/lib/libc.a(pthread_create.o)
 .debug_loc     0x0000000000017ebd      0x22c 0x1 /home/ashwin/pcn_compiler_lkvm/x86_64/lib/libc.a(pthread_join.o)
 .debug_loc     0x00000000000180e9      0x11e 0x1 /home/ashwin/pcn_compiler_lkvm/x86_64/lib/libc.a(pthread_kill.o)
 .debug_loc     0x0000000000018207       0x80 0x1 /home/ashwin/pcn_compiler_lkvm/x86_64/lib/libc.a(pthread_mutex_lock.o)
 .debug_loc     0x0000000000018287      0x2e8 0x1 /home/ashwin/pcn_compiler_lkvm/x86_64/lib/libc.a(pthread_mutex_timedlock.o)
 .debug_loc     0x000000000001856f      0x2b3 0x1 /home/ashwin/pcn_compiler_lkvm/x86_64/lib/libc.a(pthread_mutex_trylock.o)
 .debug_loc     0x0000000000018822      0x319 0x1 /home/ashwin/pcn_compiler_lkvm/x86_64/lib/libc.a(pthread_mutex_unlock.o)
 .debug_loc     0x0000000000018b3b       0x23 0x1 /home/ashwin/pcn_compiler_lkvm/x86_64/lib/libc.a(pthread_rwlock_rdlock.o)
 .debug_loc     0x0000000000018b5e      0x1e6 0x1 /home/ashwin/pcn_compiler_lkvm/x86_64/lib/libc.a(pthread_rwlock_timedrdlock.o)
 .debug_loc     0x0000000000018d44      0x10b 0x1 /home/ashwin/pcn_compiler_lkvm/x86_64/lib/libc.a(pthread_rwlock_tryrdlock.o)
 .debug_loc     0x0000000000018e4f      0x2ba 0x1 /home/ashwin/pcn_compiler_lkvm/x86_64/lib/libc.a(pthread_rwlock_unlock.o)
 .debug_loc     0x0000000000019109       0x23 0x1 /home/ashwin/pcn_compiler_lkvm/x86_64/lib/libc.a(pthread_rwlock_wrlock.o)
 .debug_loc     0x000000000001912c       0x46 0x1 /home/ashwin/pcn_compiler_lkvm/x86_64/lib/libc.a(pthread_setcancelstate.o)
 .debug_loc     0x0000000000019172      0x20f 0x1 /home/ashwin/pcn_compiler_lkvm/x86_64/lib/libc.a(vmlock.o)
 .debug_loc     0x0000000000019381       0x23 0x1 /home/ashwin/pcn_compiler_lkvm/x86_64/lib/libc.a(gmtime.o)
 .debug_loc     0x00000000000193a4       0x59 0x1 /home/ashwin/pcn_compiler_lkvm/x86_64/lib/libc.a(gmtime_r.o)
 .debug_loc     0x00000000000193fd       0x36 0x1 /home/ashwin/pcn_compiler_lkvm/x86_64/lib/libc.a(time.o)
 .debug_loc     0x0000000000019433       0x23 0x1 /home/ashwin/pcn_compiler_lkvm/x86_64/lib/libc.a(_exit.o)
 .debug_loc     0x0000000000019456       0xaf 0x1 /home/ashwin/pcn_compiler_lkvm/x86_64/lib/libc.a(access.o)
 .debug_loc     0x0000000000019505       0x8f 0x1 /home/ashwin/pcn_compiler_lkvm/x86_64/lib/libc.a(close.o)
 .debug_loc     0x0000000000019594       0x23 0x1 /home/ashwin/pcn_compiler_lkvm/x86_64/lib/libc.a(fdatasync.o)
 .debug_loc     0x00000000000195b7       0x23 0x1 /home/ashwin/pcn_compiler_lkvm/x86_64/lib/libc.a(fsync.o)
 .debug_loc     0x00000000000195da       0xaf 0x1 /home/ashwin/pcn_compiler_lkvm/x86_64/lib/libc.a(ftruncate.o)
 .debug_loc     0x0000000000019689       0x46 0x1 /home/ashwin/pcn_compiler_lkvm/x86_64/lib/libc.a(isatty.o)
 .debug_loc     0x00000000000196cf       0xf5 0x1 /home/ashwin/pcn_compiler_lkvm/x86_64/lib/libc.a(lchown.o)
 .debug_loc     0x00000000000197c4       0xaf 0x1 /home/ashwin/pcn_compiler_lkvm/x86_64/lib/libc.a(link.o)
 .debug_loc     0x0000000000019873       0xf5 0x1 /home/ashwin/pcn_compiler_lkvm/x86_64/lib/libc.a(lseek.o)
 .debug_loc     0x0000000000019968       0xc5 0x1 /home/ashwin/pcn_compiler_lkvm/x86_64/lib/libc.a(pread.o)
 .debug_loc     0x0000000000019a2d       0xc5 0x1 /home/ashwin/pcn_compiler_lkvm/x86_64/lib/libc.a(preadv.o)
 .debug_loc     0x0000000000019af2       0xc5 0x1 /home/ashwin/pcn_compiler_lkvm/x86_64/lib/libc.a(pwrite.o)
 .debug_loc     0x0000000000019bb7       0xc5 0x1 /home/ashwin/pcn_compiler_lkvm/x86_64/lib/libc.a(pwritev.o)
 .debug_loc     0x0000000000019c7c       0x8f 0x1 /home/ashwin/pcn_compiler_lkvm/x86_64/lib/libc.a(read.o)
 .debug_loc     0x0000000000019d0b       0xf5 0x1 /home/ashwin/pcn_compiler_lkvm/x86_64/lib/libc.a(readlink.o)
 .debug_loc     0x0000000000019e00       0x8f 0x1 /home/ashwin/pcn_compiler_lkvm/x86_64/lib/libc.a(readv.o)
 .debug_loc     0x0000000000019e8f       0x47 0x1 /home/ashwin/pcn_compiler_lkvm/x86_64/lib/libc.a(sleep.o)
 .debug_loc     0x0000000000019ed6       0xaf 0x1 /home/ashwin/pcn_compiler_lkvm/x86_64/lib/libc.a(symlink.o)
 .debug_loc     0x0000000000019f85       0xaf 0x1 /home/ashwin/pcn_compiler_lkvm/x86_64/lib/libc.a(truncate.o)
 .debug_loc     0x000000000001a034       0x69 0x1 /home/ashwin/pcn_compiler_lkvm/x86_64/lib/libc.a(unlink.o)
 .debug_loc     0x000000000001a09d       0x47 0x1 /home/ashwin/pcn_compiler_lkvm/x86_64/lib/libc.a(usleep.o)
 .debug_loc     0x000000000001a0e4       0x8f 0x1 /home/ashwin/pcn_compiler_lkvm/x86_64/lib/libc.a(write.o)
 .debug_loc     0x000000000001a173       0x8f 0x1 /home/ashwin/pcn_compiler_lkvm/x86_64/lib/libc.a(writev.o)
 .debug_loc     0x000000000001a202      0x4d0 0x1 /home/ashwin/pcn_compiler_lkvm/x86_64/lib/libc.a(__init_tls.o)
 .debug_loc     0x000000000001a6d2      0x255 0x1 /home/ashwin/pcn_compiler_lkvm/x86_64/lib/libc.a(platform.o)
 .debug_loc     0x000000000001a927       0x46 0x1 /home/ashwin/pcn_compiler_lkvm/x86_64/lib/libc.a(_Exit.o)
 .debug_loc     0x000000000001a96d     0x31b1 0x1 /home/ashwin/pcn_compiler_lkvm/x86_64/lib/libc.a(floatscan.o)
 .debug_loc     0x000000000001db1e      0x772 0x1 /home/ashwin/pcn_compiler_lkvm/x86_64/lib/libc.a(intscan.o)
 .debug_loc     0x000000000001e290      0x118 0x1 /home/ashwin/pcn_compiler_lkvm/x86_64/lib/libc.a(procfdname.o)
 .debug_loc     0x000000000001e3a8       0x7f 0x1 /home/ashwin/pcn_compiler_lkvm/x86_64/lib/libc.a(shgetc.o)
 .debug_loc     0x000000000001e427      0x959 0x1 /home/ashwin/pcn_compiler_lkvm/x86_64/lib/libc.a(expand_heap.o)
 .debug_loc     0x000000000001ed80       0x49 0x1 /home/ashwin/pcn_compiler_lkvm/x86_64/lib/libc.a(__fpclassifyl.o)
 .debug_loc     0x000000000001edc9       0x26 0x1 /home/ashwin/pcn_compiler_lkvm/x86_64/lib/libc.a(copysignl.o)
 .debug_loc     0x000000000001edef       0xf7 0x1 /home/ashwin/pcn_compiler_lkvm/x86_64/lib/libc.a(frexpl.o)
 .debug_loc     0x000000000001eee6      0x14e 0x1 /home/ashwin/pcn_compiler_lkvm/x86_64/lib/libc.a(scalbn.o)
 .debug_loc     0x000000000001f034      0x131 0x1 /home/ashwin/pcn_compiler_lkvm/x86_64/lib/libc.a(scalbnl.o)
 .debug_loc     0x000000000001f165      0x2d0 0x1 /home/ashwin/pcn_compiler_lkvm/x86_64/lib/libc.a(mbrtowc.o)
 .debug_loc     0x000000000001f435       0x6c 0x1 /home/ashwin/pcn_compiler_lkvm/x86_64/lib/libc.a(wctomb.o)
 .debug_loc     0x000000000001f4a1      0x361 0x1 /home/ashwin/pcn_compiler_lkvm/x86_64/lib/libc.a(sigaction.o)
 .debug_loc     0x000000000001f802      0x30e 0x1 /home/ashwin/pcn_compiler_lkvm/x86_64/lib/libc.a(__fdopen.o)
 .debug_loc     0x000000000001fb10       0xb8 0x1 /home/ashwin/pcn_compiler_lkvm/x86_64/lib/libc.a(__fmodeflags.o)
 .debug_loc     0x000000000001fbc8      0x369 0x1 /home/ashwin/pcn_compiler_lkvm/x86_64/lib/libc.a(__lockfile.o)
 .debug_loc     0x000000000001ff31       0xf2 0x1 /home/ashwin/pcn_compiler_lkvm/x86_64/lib/libc.a(__overflow.o)
 .debug_loc     0x0000000000020023       0x9f 0x1 /home/ashwin/pcn_compiler_lkvm/x86_64/lib/libc.a(__stdio_close.o)
 .debug_loc     0x00000000000200c2      0x154 0x1 /home/ashwin/pcn_compiler_lkvm/x86_64/lib/libc.a(__stdio_read.o)
 .debug_loc     0x0000000000020216       0xf5 0x1 /home/ashwin/pcn_compiler_lkvm/x86_64/lib/libc.a(__stdio_seek.o)
 .debug_loc     0x000000000002030b      0x32e 0x1 /home/ashwin/pcn_compiler_lkvm/x86_64/lib/libc.a(__stdio_write.o)
 .debug_loc     0x0000000000020639      0x157 0x1 /home/ashwin/pcn_compiler_lkvm/x86_64/lib/libc.a(__stdout_write.o)
 .debug_loc     0x0000000000020790      0x131 0x1 /home/ashwin/pcn_compiler_lkvm/x86_64/lib/libc.a(__string_read.o)
 .debug_loc     0x00000000000208c1       0x5a 0x1 /home/ashwin/pcn_compiler_lkvm/x86_64/lib/libc.a(__uflow.o)
 .debug_loc     0x000000000002091b       0xa2 0x1 /home/ashwin/pcn_compiler_lkvm/x86_64/lib/libc.a(fputs.o)
 .debug_loc     0x00000000000209bd      0x2da 0x1 /home/ashwin/pcn_compiler_lkvm/x86_64/lib/libc.a(fwrite.o)
 .debug_loc     0x0000000000020c97      0x39f 0x1 /home/ashwin/pcn_compiler_lkvm/x86_64/lib/libc.a(getdelim.o)
 .debug_loc     0x0000000000021036       0x59 0x1 /home/ashwin/pcn_compiler_lkvm/x86_64/lib/libc.a(ofl_add.o)
 .debug_loc     0x000000000002108f      0x111 0x1 /home/ashwin/pcn_compiler_lkvm/x86_64/lib/libc.a(stpcpy.o)
 .debug_loc     0x00000000000211a0      0x1b9 0x1 /home/ashwin/pcn_compiler_lkvm/x86_64/lib/libc.a(stpncpy.o)
 .debug_loc     0x0000000000021359       0x92 0x1 /home/ashwin/pcn_compiler_lkvm/x86_64/lib/libc.a(strcspn.o)
 .debug_loc     0x00000000000213eb      0x15a 0x1 /home/ashwin/pcn_compiler_lkvm/x86_64/lib/libc.a(mkostemps.o)
 .debug_loc     0x0000000000021545      0x36d 0x1 /home/ashwin/pcn_compiler_lkvm/x86_64/lib/libc.a(__timedwait.o)
 .debug_loc     0x00000000000218b2      0x1e6 0x1 /home/ashwin/pcn_compiler_lkvm/x86_64/lib/libc.a(pthread_rwlock_timedwrlock.o)
 .debug_loc     0x0000000000021a98       0x38 0x1 /home/ashwin/pcn_compiler_lkvm/x86_64/lib/libc.a(pthread_rwlock_trywrlock.o)
 .debug_loc     0x0000000000021ad0      0x2ad 0x1 /home/ashwin/pcn_compiler_lkvm/x86_64/lib/libc.a(__secs_to_tm.o)
 .debug_loc     0x0000000000021d7d     0x1455 0x1 /home/ashwin/pcn_compiler_lkvm/x86_64/lib/libc.a(__tz.o)
 .debug_loc     0x00000000000231d2      0x24c 0x1 /home/ashwin/pcn_compiler_lkvm/x86_64/lib/libc.a(__year_to_secs.o)
 .debug_loc     0x000000000002341e      0x18c 0x1 /home/ashwin/pcn_compiler_lkvm/x86_64/lib/libc.a(clock_gettime.o)
 .debug_loc     0x00000000000235aa       0x6c 0x1 /home/ashwin/pcn_compiler_lkvm/x86_64/lib/libc.a(nanosleep.o)
 .debug_loc     0x0000000000023616      0x1db 0x1 /home/ashwin/pcn_compiler_lkvm/x86_64/lib/libc.a(wcrtomb.o)
 .debug_loc     0x00000000000237f1       0x6c 0x1 /home/ashwin/pcn_compiler_lkvm/x86_64/lib/libc.a(__stdio_exit.o)
 .debug_loc     0x000000000002385d       0x36 0x1 /home/ashwin/pcn_compiler_lkvm/x86_64/lib/libc.a(__toread.o)
 .debug_loc     0x0000000000023893       0x7c 0x1 /home/ashwin/pcn_compiler_lkvm/x86_64/lib/libc.a(__randname.o)
 .debug_loc     0x000000000002390f      0x281 0x1 /home/ashwin/pcn_compiler_lkvm/x86_64/lib/libc.a(__map_file.o)
 .debug_loc     0x0000000000023b90       0x36 0x1 /home/ashwin/pcn_compiler_lkvm/x86_64/lib/libc.a(__month_to_secs.o)

.debug_abbrev   0x0000000000000000     0xc07e
 .debug_abbrev  0x0000000000000000       0x5e 0x1 /home/ashwin/pcn_compiler_lkvm/x86_64/lib/crt1.o
 .debug_abbrev  0x000000000000005e      0x128 0x1 /home/ashwin/pcn_compiler_lkvm/x86_64/lib/libc.a(sysconf.o)
 .debug_abbrev  0x0000000000000186       0xaf 0x1 /home/ashwin/pcn_compiler_lkvm/x86_64/lib/libc.a(closedir.o)
 .debug_abbrev  0x0000000000000235       0xa0 0x1 /home/ashwin/pcn_compiler_lkvm/x86_64/lib/libc.a(dirfd.o)
 .debug_abbrev  0x00000000000002d5      0x102 0x1 /home/ashwin/pcn_compiler_lkvm/x86_64/lib/libc.a(opendir.o)
 .debug_abbrev  0x00000000000003d7      0x109 0x1 /home/ashwin/pcn_compiler_lkvm/x86_64/lib/libc.a(readdir.o)
 .debug_abbrev  0x00000000000004e0       0xb6 0x1 /home/ashwin/pcn_compiler_lkvm/x86_64/lib/libc.a(readdir_r.o)
 .debug_abbrev  0x0000000000000596       0x9e 0x1 /home/ashwin/pcn_compiler_lkvm/x86_64/lib/libc.a(seekdir.o)
 .debug_abbrev  0x0000000000000634      0x1a7 0x1 /home/ashwin/pcn_compiler_lkvm/x86_64/lib/libc.a(__libc_start_main.o)
 .debug_abbrev  0x00000000000007db       0x83 0x1 /home/ashwin/pcn_compiler_lkvm/x86_64/lib/libc.a(getenv.o)
 .debug_abbrev  0x000000000000085e      0x123 0x1 /home/ashwin/pcn_compiler_lkvm/x86_64/lib/libc.a(__errno_location.o)
 .debug_abbrev  0x0000000000000981      0x155 0x1 /home/ashwin/pcn_compiler_lkvm/x86_64/lib/libc.a(strerror.o)
 .debug_abbrev  0x0000000000000ad6      0x13e 0x1 /home/ashwin/pcn_compiler_lkvm/x86_64/lib/libc.a(atexit.o)
 .debug_abbrev  0x0000000000000c14       0x97 0x1 /home/ashwin/pcn_compiler_lkvm/x86_64/lib/libc.a(exit.o)
 .debug_abbrev  0x0000000000000cab      0x11a 0x1 /home/ashwin/pcn_compiler_lkvm/x86_64/lib/libc.a(fcntl.o)
 .debug_abbrev  0x0000000000000dc5      0x114 0x1 /home/ashwin/pcn_compiler_lkvm/x86_64/lib/libc.a(open.o)
 .debug_abbrev  0x0000000000000ed9       0x93 0x1 /home/ashwin/pcn_compiler_lkvm/x86_64/lib/libc.a(libc.o)
 .debug_abbrev  0x0000000000000f6c       0x45 0x1 /home/ashwin/pcn_compiler_lkvm/x86_64/lib/libc.a(syscall_ret.o)
 .debug_abbrev  0x0000000000000fb1       0x36 0x1 /home/ashwin/pcn_compiler_lkvm/x86_64/lib/libc.a(getpagesize.o)
 .debug_abbrev  0x0000000000000fe7      0x148 0x1 /home/ashwin/pcn_compiler_lkvm/x86_64/lib/libc.a(epoll.o)
 .debug_abbrev  0x000000000000112f       0xc6 0x1 /home/ashwin/pcn_compiler_lkvm/x86_64/lib/libc.a(eventfd.o)
 .debug_abbrev  0x00000000000011f5      0x108 0x1 /home/ashwin/pcn_compiler_lkvm/x86_64/lib/libc.a(prctl.o)
 .debug_abbrev  0x00000000000012fd       0xe3 0x1 /home/ashwin/pcn_compiler_lkvm/x86_64/lib/libc.a(sysinfo.o)
 .debug_abbrev  0x00000000000013e0      0x152 0x1 /home/ashwin/pcn_compiler_lkvm/x86_64/lib/libc.a(__lctrans.o)
 .debug_abbrev  0x0000000000001532       0xa3 0x1 /home/ashwin/pcn_compiler_lkvm/x86_64/lib/libc.a(calloc.o)
 .debug_abbrev  0x00000000000015d5       0xa3 0x1 /home/ashwin/pcn_compiler_lkvm/x86_64/lib/libc.a(lite_malloc.o)
 .debug_abbrev  0x0000000000001678      0x257 0x1 /home/ashwin/pcn_compiler_lkvm/x86_64/lib/libc.a(malloc.o)
 .debug_abbrev  0x00000000000018cf      0x26b 0x1 /home/ashwin/pcn_compiler_lkvm/x86_64/lib/libc.a(popcorn_malloc.o)
 .debug_abbrev  0x0000000000001b3a      0x105 0x1 /home/ashwin/pcn_compiler_lkvm/x86_64/lib/libc.a(getrlimit.o)
 .debug_abbrev  0x0000000000001c3f       0xf9 0x1 /home/ashwin/pcn_compiler_lkvm/x86_64/lib/libc.a(ioctl.o)
 .debug_abbrev  0x0000000000001d38       0xda 0x1 /home/ashwin/pcn_compiler_lkvm/x86_64/lib/libc.a(mntent.o)
 .debug_abbrev  0x0000000000001e12       0xc2 0x1 /home/ashwin/pcn_compiler_lkvm/x86_64/lib/libc.a(openpty.o)
 .debug_abbrev  0x0000000000001ed4      0x150 0x1 /home/ashwin/pcn_compiler_lkvm/x86_64/lib/libc.a(realpath.o)
 .debug_abbrev  0x0000000000002024       0xe9 0x1 /home/ashwin/pcn_compiler_lkvm/x86_64/lib/libc.a(uname.o)
 .debug_abbrev  0x000000000000210d       0xae 0x1 /home/ashwin/pcn_compiler_lkvm/x86_64/lib/libc.a(madvise.o)
 .debug_abbrev  0x00000000000021bb       0xc7 0x1 /home/ashwin/pcn_compiler_lkvm/x86_64/lib/libc.a(mmap.o)
 .debug_abbrev  0x0000000000002282       0xc4 0x1 /home/ashwin/pcn_compiler_lkvm/x86_64/lib/libc.a(mprotect.o)
 .debug_abbrev  0x0000000000002346      0x112 0x1 /home/ashwin/pcn_compiler_lkvm/x86_64/lib/libc.a(mremap.o)
 .debug_abbrev  0x0000000000002458       0xc1 0x1 /home/ashwin/pcn_compiler_lkvm/x86_64/lib/libc.a(munmap.o)
 .debug_abbrev  0x0000000000002519       0x99 0x1 /home/ashwin/pcn_compiler_lkvm/x86_64/lib/libc.a(shm_open.o)
 .debug_abbrev  0x00000000000025b2       0x97 0x1 /home/ashwin/pcn_compiler_lkvm/x86_64/lib/libc.a(accept.o)
 .debug_abbrev  0x0000000000002649       0xf7 0x1 /home/ashwin/pcn_compiler_lkvm/x86_64/lib/libc.a(bind.o)
 .debug_abbrev  0x0000000000002740       0x97 0x1 /home/ashwin/pcn_compiler_lkvm/x86_64/lib/libc.a(connect.o)
 .debug_abbrev  0x00000000000027d7       0xb3 0x1 /home/ashwin/pcn_compiler_lkvm/x86_64/lib/libc.a(htonl.o)
 .debug_abbrev  0x000000000000288a       0x7b 0x1 /home/ashwin/pcn_compiler_lkvm/x86_64/lib/libc.a(htons.o)
 .debug_abbrev  0x0000000000002905       0x8b 0x1 /home/ashwin/pcn_compiler_lkvm/x86_64/lib/libc.a(inet_addr.o)
 .debug_abbrev  0x0000000000002990       0xba 0x1 /home/ashwin/pcn_compiler_lkvm/x86_64/lib/libc.a(inet_aton.o)
 .debug_abbrev  0x0000000000002a4a       0xa5 0x1 /home/ashwin/pcn_compiler_lkvm/x86_64/lib/libc.a(listen.o)
 .debug_abbrev  0x0000000000002aef       0xb3 0x1 /home/ashwin/pcn_compiler_lkvm/x86_64/lib/libc.a(ntohl.o)
 .debug_abbrev  0x0000000000002ba2       0x7b 0x1 /home/ashwin/pcn_compiler_lkvm/x86_64/lib/libc.a(ntohs.o)
 .debug_abbrev  0x0000000000002c1d       0xa9 0x1 /home/ashwin/pcn_compiler_lkvm/x86_64/lib/libc.a(recvfrom.o)
 .debug_abbrev  0x0000000000002cc6       0xa9 0x1 /home/ashwin/pcn_compiler_lkvm/x86_64/lib/libc.a(sendto.o)
 .debug_abbrev  0x0000000000002d6f       0xa5 0x1 /home/ashwin/pcn_compiler_lkvm/x86_64/lib/libc.a(shutdown.o)
 .debug_abbrev  0x0000000000002e14       0xc4 0x1 /home/ashwin/pcn_compiler_lkvm/x86_64/lib/libc.a(socket.o)
 .debug_abbrev  0x0000000000002ed8       0xdc 0x1 /home/ashwin/pcn_compiler_lkvm/x86_64/lib/libc.a(execl.o)
 .debug_abbrev  0x0000000000002fb4       0x53 0x1 /home/ashwin/pcn_compiler_lkvm/x86_64/lib/libc.a(execv.o)
 .debug_abbrev  0x0000000000003007       0xaa 0x1 /home/ashwin/pcn_compiler_lkvm/x86_64/lib/libc.a(execve.o)
 .debug_abbrev  0x00000000000030b1      0x1a9 0x1 /home/ashwin/pcn_compiler_lkvm/x86_64/lib/libc.a(fork.o)
 .debug_abbrev  0x000000000000325a       0x59 0x1 /home/ashwin/pcn_compiler_lkvm/x86_64/lib/libc.a(waitpid.o)
 .debug_abbrev  0x00000000000032b3       0x75 0x1 /home/ashwin/pcn_compiler_lkvm/x86_64/lib/libc.a(poll.o)
 .debug_abbrev  0x0000000000003328       0xb1 0x1 /home/ashwin/pcn_compiler_lkvm/x86_64/lib/libc.a(select.o)
 .debug_abbrev  0x00000000000033d9       0xe0 0x1 /home/ashwin/pcn_compiler_lkvm/x86_64/lib/libc.a(block.o)
 .debug_abbrev  0x00000000000034b9       0xef 0x1 /home/ashwin/pcn_compiler_lkvm/x86_64/lib/libc.a(raise.o)
 .debug_abbrev  0x00000000000035a8      0x105 0x1 /home/ashwin/pcn_compiler_lkvm/x86_64/lib/libc.a(signal.o)
 .debug_abbrev  0x00000000000036ad       0x34 0x1 /home/ashwin/pcn_compiler_lkvm/x86_64/lib/libc.a(sigrtmin.o)
 .debug_abbrev  0x00000000000036e1       0xb7 0x1 /home/ashwin/pcn_compiler_lkvm/x86_64/lib/libc.a(chmod.o)
 .debug_abbrev  0x0000000000003798      0x155 0x1 /home/ashwin/pcn_compiler_lkvm/x86_64/lib/libc.a(fstat.o)
 .debug_abbrev  0x00000000000038ed      0x136 0x1 /home/ashwin/pcn_compiler_lkvm/x86_64/lib/libc.a(lstat.o)
 .debug_abbrev  0x0000000000003a23       0xb7 0x1 /home/ashwin/pcn_compiler_lkvm/x86_64/lib/libc.a(mkdir.o)
 .debug_abbrev  0x0000000000003ada       0xb7 0x1 /home/ashwin/pcn_compiler_lkvm/x86_64/lib/libc.a(mknod.o)
 .debug_abbrev  0x0000000000003b91      0x12d 0x1 /home/ashwin/pcn_compiler_lkvm/x86_64/lib/libc.a(stat.o)
 .debug_abbrev  0x0000000000003cbe      0x133 0x1 /home/ashwin/pcn_compiler_lkvm/x86_64/lib/libc.a(statvfs.o)
 .debug_abbrev  0x0000000000003df1      0x113 0x1 /home/ashwin/pcn_compiler_lkvm/x86_64/lib/libc.a(utimensat.o)
 .debug_abbrev  0x0000000000003f04       0xc6 0x1 /home/ashwin/pcn_compiler_lkvm/x86_64/lib/libc.a(dprintf.o)
 .debug_abbrev  0x0000000000003fca      0x110 0x1 /home/ashwin/pcn_compiler_lkvm/x86_64/lib/libc.a(fclose.o)
 .debug_abbrev  0x00000000000040da       0xe5 0x1 /home/ashwin/pcn_compiler_lkvm/x86_64/lib/libc.a(feof.o)
 .debug_abbrev  0x00000000000041bf       0xe5 0x1 /home/ashwin/pcn_compiler_lkvm/x86_64/lib/libc.a(ferror.o)
 .debug_abbrev  0x00000000000042a4       0xf7 0x1 /home/ashwin/pcn_compiler_lkvm/x86_64/lib/libc.a(fflush.o)
 .debug_abbrev  0x000000000000439b       0xdf 0x1 /home/ashwin/pcn_compiler_lkvm/x86_64/lib/libc.a(fgets.o)
 .debug_abbrev  0x000000000000447a      0x134 0x1 /home/ashwin/pcn_compiler_lkvm/x86_64/lib/libc.a(fopen.o)
 .debug_abbrev  0x00000000000045ae       0xdc 0x1 /home/ashwin/pcn_compiler_lkvm/x86_64/lib/libc.a(fprintf.o)
 .debug_abbrev  0x000000000000468a       0xc9 0x1 /home/ashwin/pcn_compiler_lkvm/x86_64/lib/libc.a(fputc.o)
 .debug_abbrev  0x0000000000004753       0xdc 0x1 /home/ashwin/pcn_compiler_lkvm/x86_64/lib/libc.a(fscanf.o)
 .debug_abbrev  0x000000000000482f       0xe5 0x1 /home/ashwin/pcn_compiler_lkvm/x86_64/lib/libc.a(fseek.o)
 .debug_abbrev  0x0000000000004914       0x76 0x1 /home/ashwin/pcn_compiler_lkvm/x86_64/lib/libc.a(getline.o)
 .debug_abbrev  0x000000000000498a       0xde 0x1 /home/ashwin/pcn_compiler_lkvm/x86_64/lib/libc.a(ofl.o)
 .debug_abbrev  0x0000000000004a68       0xd6 0x1 /home/ashwin/pcn_compiler_lkvm/x86_64/lib/libc.a(perror.o)
 .debug_abbrev  0x0000000000004b3e       0xc6 0x1 /home/ashwin/pcn_compiler_lkvm/x86_64/lib/libc.a(printf.o)
 .debug_abbrev  0x0000000000004c04       0x45 0x1 /home/ashwin/pcn_compiler_lkvm/x86_64/lib/libc.a(putchar.o)
 .debug_abbrev  0x0000000000004c49       0x62 0x1 /home/ashwin/pcn_compiler_lkvm/x86_64/lib/libc.a(puts.o)
 .debug_abbrev  0x0000000000004cab       0xc0 0x1 /home/ashwin/pcn_compiler_lkvm/x86_64/lib/libc.a(remove.o)
 .debug_abbrev  0x0000000000004d6b       0xaa 0x1 /home/ashwin/pcn_compiler_lkvm/x86_64/lib/libc.a(rename.o)
 .debug_abbrev  0x0000000000004e15       0xc6 0x1 /home/ashwin/pcn_compiler_lkvm/x86_64/lib/libc.a(snprintf.o)
 .debug_abbrev  0x0000000000004edb       0xc6 0x1 /home/ashwin/pcn_compiler_lkvm/x86_64/lib/libc.a(sprintf.o)
 .debug_abbrev  0x0000000000004fa1       0xc6 0x1 /home/ashwin/pcn_compiler_lkvm/x86_64/lib/libc.a(sscanf.o)
 .debug_abbrev  0x0000000000005067       0xbf 0x1 /home/ashwin/pcn_compiler_lkvm/x86_64/lib/libc.a(stderr.o)
 .debug_abbrev  0x0000000000005126       0xc8 0x1 /home/ashwin/pcn_compiler_lkvm/x86_64/lib/libc.a(stdout.o)
 .debug_abbrev  0x00000000000051ee      0x108 0x1 /home/ashwin/pcn_compiler_lkvm/x86_64/lib/libc.a(vdprintf.o)
 .debug_abbrev  0x00000000000052f6      0x26c 0x1 /home/ashwin/pcn_compiler_lkvm/x86_64/lib/libc.a(vfprintf.o)
 .debug_abbrev  0x0000000000005562      0x1cc 0x1 /home/ashwin/pcn_compiler_lkvm/x86_64/lib/libc.a(vfscanf.o)
 .debug_abbrev  0x000000000000572e      0x124 0x1 /home/ashwin/pcn_compiler_lkvm/x86_64/lib/libc.a(vsnprintf.o)
 .debug_abbrev  0x0000000000005852       0x73 0x1 /home/ashwin/pcn_compiler_lkvm/x86_64/lib/libc.a(vsprintf.o)
 .debug_abbrev  0x00000000000058c5      0x108 0x1 /home/ashwin/pcn_compiler_lkvm/x86_64/lib/libc.a(vsscanf.o)
 .debug_abbrev  0x00000000000059cd       0x98 0x1 /home/ashwin/pcn_compiler_lkvm/x86_64/lib/libc.a(atoi.o)
 .debug_abbrev  0x0000000000005a65      0x144 0x1 /home/ashwin/pcn_compiler_lkvm/x86_64/lib/libc.a(strtol.o)
 .debug_abbrev  0x0000000000005ba9       0x82 0x1 /home/ashwin/pcn_compiler_lkvm/x86_64/lib/libc.a(memchr.o)
 .debug_abbrev  0x0000000000005c2b       0x83 0x1 /home/ashwin/pcn_compiler_lkvm/x86_64/lib/libc.a(memcmp.o)
 .debug_abbrev  0x0000000000005cae       0x6f 0x1 /home/ashwin/pcn_compiler_lkvm/x86_64/lib/libc.a(strcasestr.o)
 .debug_abbrev  0x0000000000005d1d       0x5a 0x1 /home/ashwin/pcn_compiler_lkvm/x86_64/lib/libc.a(strcat.o)
 .debug_abbrev  0x0000000000005d77       0x62 0x1 /home/ashwin/pcn_compiler_lkvm/x86_64/lib/libc.a(strchr.o)
 .debug_abbrev  0x0000000000005dd9       0x74 0x1 /home/ashwin/pcn_compiler_lkvm/x86_64/lib/libc.a(strchrnul.o)
 .debug_abbrev  0x0000000000005e4d       0x62 0x1 /home/ashwin/pcn_compiler_lkvm/x86_64/lib/libc.a(strcmp.o)
 .debug_abbrev  0x0000000000005eaf       0x5a 0x1 /home/ashwin/pcn_compiler_lkvm/x86_64/lib/libc.a(strcpy.o)
 .debug_abbrev  0x0000000000005f09       0x6f 0x1 /home/ashwin/pcn_compiler_lkvm/x86_64/lib/libc.a(strdup.o)
 .debug_abbrev  0x0000000000005f78       0x83 0x1 /home/ashwin/pcn_compiler_lkvm/x86_64/lib/libc.a(strlen.o)
 .debug_abbrev  0x0000000000005ffb      0x116 0x1 /home/ashwin/pcn_compiler_lkvm/x86_64/lib/libc.a(strncasecmp.o)
 .debug_abbrev  0x0000000000006111       0x83 0x1 /home/ashwin/pcn_compiler_lkvm/x86_64/lib/libc.a(strncmp.o)
 .debug_abbrev  0x0000000000006194       0x67 0x1 /home/ashwin/pcn_compiler_lkvm/x86_64/lib/libc.a(strncpy.o)
 .debug_abbrev  0x00000000000061fb       0x6f 0x1 /home/ashwin/pcn_compiler_lkvm/x86_64/lib/libc.a(strndup.o)
 .debug_abbrev  0x000000000000626a       0x6f 0x1 /home/ashwin/pcn_compiler_lkvm/x86_64/lib/libc.a(strnlen.o)
 .debug_abbrev  0x00000000000062d9       0xa6 0x1 /home/ashwin/pcn_compiler_lkvm/x86_64/lib/libc.a(strspn.o)
 .debug_abbrev  0x000000000000637f       0xfb 0x1 /home/ashwin/pcn_compiler_lkvm/x86_64/lib/libc.a(strstr.o)
 .debug_abbrev  0x000000000000647a       0x69 0x1 /home/ashwin/pcn_compiler_lkvm/x86_64/lib/libc.a(strtok.o)
 .debug_abbrev  0x00000000000064e3       0x4c 0x1 /home/ashwin/pcn_compiler_lkvm/x86_64/lib/libc.a(mkstemp.o)
 .debug_abbrev  0x000000000000652f       0x90 0x1 /home/ashwin/pcn_compiler_lkvm/x86_64/lib/libc.a(tcgetattr.o)
 .debug_abbrev  0x00000000000065bf       0x97 0x1 /home/ashwin/pcn_compiler_lkvm/x86_64/lib/libc.a(tcsetattr.o)
 .debug_abbrev  0x0000000000006656       0xd8 0x1 /home/ashwin/pcn_compiler_lkvm/x86_64/lib/libc.a(__lock.o)
 .debug_abbrev  0x000000000000672e       0x76 0x1 /home/ashwin/pcn_compiler_lkvm/x86_64/lib/libc.a(__syscall_cp.o)
 .debug_abbrev  0x00000000000067a4       0xf1 0x1 /home/ashwin/pcn_compiler_lkvm/x86_64/lib/libc.a(__wait.o)
 .debug_abbrev  0x0000000000006895       0x9b 0x1 /home/ashwin/pcn_compiler_lkvm/x86_64/lib/libc.a(pthread_cleanup_push.o)
 .debug_abbrev  0x0000000000006930       0xda 0x1 /home/ashwin/pcn_compiler_lkvm/x86_64/lib/libc.a(pthread_cond_init.o)
 .debug_abbrev  0x0000000000006a0a      0x115 0x1 /home/ashwin/pcn_compiler_lkvm/x86_64/lib/libc.a(pthread_cond_signal.o)
 .debug_abbrev  0x0000000000006b1f      0x1e7 0x1 /home/ashwin/pcn_compiler_lkvm/x86_64/lib/libc.a(pthread_cond_timedwait.o)
 .debug_abbrev  0x0000000000006d06       0xb1 0x1 /home/ashwin/pcn_compiler_lkvm/x86_64/lib/libc.a(pthread_cond_wait.o)
 .debug_abbrev  0x0000000000006db7      0x27c 0x1 /home/ashwin/pcn_compiler_lkvm/x86_64/lib/libc.a(pthread_create.o)
 .debug_abbrev  0x0000000000007033      0x18c 0x1 /home/ashwin/pcn_compiler_lkvm/x86_64/lib/libc.a(pthread_join.o)
 .debug_abbrev  0x00000000000071bf      0x159 0x1 /home/ashwin/pcn_compiler_lkvm/x86_64/lib/libc.a(pthread_kill.o)
 .debug_abbrev  0x0000000000007318       0xda 0x1 /home/ashwin/pcn_compiler_lkvm/x86_64/lib/libc.a(pthread_mutex_init.o)
 .debug_abbrev  0x00000000000073f2       0xe4 0x1 /home/ashwin/pcn_compiler_lkvm/x86_64/lib/libc.a(pthread_mutex_lock.o)
 .debug_abbrev  0x00000000000074d6      0x1ca 0x1 /home/ashwin/pcn_compiler_lkvm/x86_64/lib/libc.a(pthread_mutex_timedlock.o)
 .debug_abbrev  0x00000000000076a0      0x181 0x1 /home/ashwin/pcn_compiler_lkvm/x86_64/lib/libc.a(pthread_mutex_trylock.o)
 .debug_abbrev  0x0000000000007821      0x199 0x1 /home/ashwin/pcn_compiler_lkvm/x86_64/lib/libc.a(pthread_mutex_unlock.o)
 .debug_abbrev  0x00000000000079ba       0xa5 0x1 /home/ashwin/pcn_compiler_lkvm/x86_64/lib/libc.a(pthread_rwlock_rdlock.o)
 .debug_abbrev  0x0000000000007a5f      0x143 0x1 /home/ashwin/pcn_compiler_lkvm/x86_64/lib/libc.a(pthread_rwlock_timedrdlock.o)
 .debug_abbrev  0x0000000000007ba2       0xec 0x1 /home/ashwin/pcn_compiler_lkvm/x86_64/lib/libc.a(pthread_rwlock_tryrdlock.o)
 .debug_abbrev  0x0000000000007c8e      0x11d 0x1 /home/ashwin/pcn_compiler_lkvm/x86_64/lib/libc.a(pthread_rwlock_unlock.o)
 .debug_abbrev  0x0000000000007dab       0xa5 0x1 /home/ashwin/pcn_compiler_lkvm/x86_64/lib/libc.a(pthread_rwlock_wrlock.o)
 .debug_abbrev  0x0000000000007e50      0x141 0x1 /home/ashwin/pcn_compiler_lkvm/x86_64/lib/libc.a(pthread_setcancelstate.o)
 .debug_abbrev  0x0000000000007f91       0x38 0x1 /home/ashwin/pcn_compiler_lkvm/x86_64/lib/libc.a(pthread_testcancel.o)
 .debug_abbrev  0x0000000000007fc9       0xeb 0x1 /home/ashwin/pcn_compiler_lkvm/x86_64/lib/libc.a(vmlock.o)
 .debug_abbrev  0x00000000000080b4       0x8b 0x1 /home/ashwin/pcn_compiler_lkvm/x86_64/lib/libc.a(gmtime.o)
 .debug_abbrev  0x000000000000813f       0x83 0x1 /home/ashwin/pcn_compiler_lkvm/x86_64/lib/libc.a(gmtime_r.o)
 .debug_abbrev  0x00000000000081c2       0x84 0x1 /home/ashwin/pcn_compiler_lkvm/x86_64/lib/libc.a(time.o)
 .debug_abbrev  0x0000000000008246       0x46 0x1 /home/ashwin/pcn_compiler_lkvm/x86_64/lib/libc.a(_exit.o)
 .debug_abbrev  0x000000000000828c       0xaa 0x1 /home/ashwin/pcn_compiler_lkvm/x86_64/lib/libc.a(access.o)
 .debug_abbrev  0x0000000000008336       0x69 0x1 /home/ashwin/pcn_compiler_lkvm/x86_64/lib/libc.a(close.o)
 .debug_abbrev  0x000000000000839f       0x45 0x1 /home/ashwin/pcn_compiler_lkvm/x86_64/lib/libc.a(fdatasync.o)
 .debug_abbrev  0x00000000000083e4       0x45 0x1 /home/ashwin/pcn_compiler_lkvm/x86_64/lib/libc.a(fsync.o)
 .debug_abbrev  0x0000000000008429       0xa9 0x1 /home/ashwin/pcn_compiler_lkvm/x86_64/lib/libc.a(ftruncate.o)
 .debug_abbrev  0x00000000000084d2       0x8f 0x1 /home/ashwin/pcn_compiler_lkvm/x86_64/lib/libc.a(getpid.o)
 .debug_abbrev  0x0000000000008561       0xb8 0x1 /home/ashwin/pcn_compiler_lkvm/x86_64/lib/libc.a(isatty.o)
 .debug_abbrev  0x0000000000008619       0xb7 0x1 /home/ashwin/pcn_compiler_lkvm/x86_64/lib/libc.a(lchown.o)
 .debug_abbrev  0x00000000000086d0       0xaa 0x1 /home/ashwin/pcn_compiler_lkvm/x86_64/lib/libc.a(link.o)
 .debug_abbrev  0x000000000000877a       0xa9 0x1 /home/ashwin/pcn_compiler_lkvm/x86_64/lib/libc.a(lseek.o)
 .debug_abbrev  0x0000000000008823       0x57 0x1 /home/ashwin/pcn_compiler_lkvm/x86_64/lib/libc.a(pread.o)
 .debug_abbrev  0x000000000000887a       0x81 0x1 /home/ashwin/pcn_compiler_lkvm/x86_64/lib/libc.a(preadv.o)
 .debug_abbrev  0x00000000000088fb       0x5e 0x1 /home/ashwin/pcn_compiler_lkvm/x86_64/lib/libc.a(pwrite.o)
 .debug_abbrev  0x0000000000008959       0x81 0x1 /home/ashwin/pcn_compiler_lkvm/x86_64/lib/libc.a(pwritev.o)
 .debug_abbrev  0x00000000000089da       0x57 0x1 /home/ashwin/pcn_compiler_lkvm/x86_64/lib/libc.a(read.o)
 .debug_abbrev  0x0000000000008a31       0xbe 0x1 /home/ashwin/pcn_compiler_lkvm/x86_64/lib/libc.a(readlink.o)
 .debug_abbrev  0x0000000000008aef       0x81 0x1 /home/ashwin/pcn_compiler_lkvm/x86_64/lib/libc.a(readv.o)
 .debug_abbrev  0x0000000000008b70       0x7d 0x1 /home/ashwin/pcn_compiler_lkvm/x86_64/lib/libc.a(sleep.o)
 .debug_abbrev  0x0000000000008bed       0xaa 0x1 /home/ashwin/pcn_compiler_lkvm/x86_64/lib/libc.a(symlink.o)
 .debug_abbrev  0x0000000000008c97       0xb7 0x1 /home/ashwin/pcn_compiler_lkvm/x86_64/lib/libc.a(truncate.o)
 .debug_abbrev  0x0000000000008d4e       0xaa 0x1 /home/ashwin/pcn_compiler_lkvm/x86_64/lib/libc.a(unlink.o)
 .debug_abbrev  0x0000000000008df8       0x7d 0x1 /home/ashwin/pcn_compiler_lkvm/x86_64/lib/libc.a(usleep.o)
 .debug_abbrev  0x0000000000008e75       0x5e 0x1 /home/ashwin/pcn_compiler_lkvm/x86_64/lib/libc.a(write.o)
 .debug_abbrev  0x0000000000008ed3       0x81 0x1 /home/ashwin/pcn_compiler_lkvm/x86_64/lib/libc.a(writev.o)
 .debug_abbrev  0x0000000000008f54       0xee 0x1 /home/ashwin/pcn_compiler_lkvm/x86_64/lib/libc.a(tolower.o)
 .debug_abbrev  0x0000000000009042       0x33 0x1 /home/ashwin/pcn_compiler_lkvm/x86_64/lib/libc.a(__environ.o)
 .debug_abbrev  0x0000000000009075      0x1ba 0x1 /home/ashwin/pcn_compiler_lkvm/x86_64/lib/libc.a(__init_tls.o)
 .debug_abbrev  0x000000000000922f       0xec 0x1 /home/ashwin/pcn_compiler_lkvm/x86_64/lib/libc.a(platform.o)
 .debug_abbrev  0x000000000000931b       0xa4 0x1 /home/ashwin/pcn_compiler_lkvm/x86_64/lib/libc.a(_Exit.o)
 .debug_abbrev  0x00000000000093bf      0x1ca 0x1 /home/ashwin/pcn_compiler_lkvm/x86_64/lib/libc.a(floatscan.o)
 .debug_abbrev  0x0000000000009589      0x147 0x1 /home/ashwin/pcn_compiler_lkvm/x86_64/lib/libc.a(intscan.o)
 .debug_abbrev  0x00000000000096d0       0x68 0x1 /home/ashwin/pcn_compiler_lkvm/x86_64/lib/libc.a(procfdname.o)
 .debug_abbrev  0x0000000000009738       0xfc 0x1 /home/ashwin/pcn_compiler_lkvm/x86_64/lib/libc.a(shgetc.o)
 .debug_abbrev  0x0000000000009834      0x13f 0x1 /home/ashwin/pcn_compiler_lkvm/x86_64/lib/libc.a(expand_heap.o)
 .debug_abbrev  0x0000000000009973       0x95 0x1 /home/ashwin/pcn_compiler_lkvm/x86_64/lib/libc.a(__fpclassifyl.o)
 .debug_abbrev  0x0000000000009a08       0x88 0x1 /home/ashwin/pcn_compiler_lkvm/x86_64/lib/libc.a(__signbitl.o)
 .debug_abbrev  0x0000000000009a90       0x97 0x1 /home/ashwin/pcn_compiler_lkvm/x86_64/lib/libc.a(copysignl.o)
 .debug_abbrev  0x0000000000009b27       0x8f 0x1 /home/ashwin/pcn_compiler_lkvm/x86_64/lib/libc.a(frexpl.o)
 .debug_abbrev  0x0000000000009bb6       0x7b 0x1 /home/ashwin/pcn_compiler_lkvm/x86_64/lib/libc.a(scalbn.o)
 .debug_abbrev  0x0000000000009c31       0x88 0x1 /home/ashwin/pcn_compiler_lkvm/x86_64/lib/libc.a(scalbnl.o)
 .debug_abbrev  0x0000000000009cb9      0x17c 0x1 /home/ashwin/pcn_compiler_lkvm/x86_64/lib/libc.a(mbrtowc.o)
 .debug_abbrev  0x0000000000009e35       0x7c 0x1 /home/ashwin/pcn_compiler_lkvm/x86_64/lib/libc.a(mbsinit.o)
 .debug_abbrev  0x0000000000009eb1       0x59 0x1 /home/ashwin/pcn_compiler_lkvm/x86_64/lib/libc.a(wctomb.o)
 .debug_abbrev  0x0000000000009f0a      0x19f 0x1 /home/ashwin/pcn_compiler_lkvm/x86_64/lib/libc.a(sigaction.o)
 .debug_abbrev  0x000000000000a0a9      0x136 0x1 /home/ashwin/pcn_compiler_lkvm/x86_64/lib/libc.a(__fdopen.o)
 .debug_abbrev  0x000000000000a1df       0x62 0x1 /home/ashwin/pcn_compiler_lkvm/x86_64/lib/libc.a(__fmodeflags.o)
 .debug_abbrev  0x000000000000a241      0x1ab 0x1 /home/ashwin/pcn_compiler_lkvm/x86_64/lib/libc.a(__lockfile.o)
 .debug_abbrev  0x000000000000a3ec       0xd8 0x1 /home/ashwin/pcn_compiler_lkvm/x86_64/lib/libc.a(__overflow.o)
 .debug_abbrev  0x000000000000a4c4      0x135 0x1 /home/ashwin/pcn_compiler_lkvm/x86_64/lib/libc.a(__stdio_close.o)
 .debug_abbrev  0x000000000000a5f9      0x15a 0x1 /home/ashwin/pcn_compiler_lkvm/x86_64/lib/libc.a(__stdio_read.o)
 .debug_abbrev  0x000000000000a753      0x120 0x1 /home/ashwin/pcn_compiler_lkvm/x86_64/lib/libc.a(__stdio_seek.o)
 .debug_abbrev  0x000000000000a873      0x14f 0x1 /home/ashwin/pcn_compiler_lkvm/x86_64/lib/libc.a(__stdio_write.o)
 .debug_abbrev  0x000000000000a9c2      0x117 0x1 /home/ashwin/pcn_compiler_lkvm/x86_64/lib/libc.a(__stdout_write.o)
 .debug_abbrev  0x000000000000aad9       0xd8 0x1 /home/ashwin/pcn_compiler_lkvm/x86_64/lib/libc.a(__string_read.o)
 .debug_abbrev  0x000000000000abb1       0xdc 0x1 /home/ashwin/pcn_compiler_lkvm/x86_64/lib/libc.a(__towrite.o)
 .debug_abbrev  0x000000000000ac8d       0xd8 0x1 /home/ashwin/pcn_compiler_lkvm/x86_64/lib/libc.a(__uflow.o)
 .debug_abbrev  0x000000000000ad65       0xdf 0x1 /home/ashwin/pcn_compiler_lkvm/x86_64/lib/libc.a(fputs.o)
 .debug_abbrev  0x000000000000ae44       0xfa 0x1 /home/ashwin/pcn_compiler_lkvm/x86_64/lib/libc.a(fwrite.o)
 .debug_abbrev  0x000000000000af3e       0xf5 0x1 /home/ashwin/pcn_compiler_lkvm/x86_64/lib/libc.a(getdelim.o)
 .debug_abbrev  0x000000000000b033       0xd8 0x1 /home/ashwin/pcn_compiler_lkvm/x86_64/lib/libc.a(ofl_add.o)
 .debug_abbrev  0x000000000000b10b       0x80 0x1 /home/ashwin/pcn_compiler_lkvm/x86_64/lib/libc.a(stpcpy.o)
 .debug_abbrev  0x000000000000b18b       0x8d 0x1 /home/ashwin/pcn_compiler_lkvm/x86_64/lib/libc.a(stpncpy.o)
 .debug_abbrev  0x000000000000b218       0x97 0x1 /home/ashwin/pcn_compiler_lkvm/x86_64/lib/libc.a(strcspn.o)
 .debug_abbrev  0x000000000000b2af       0x68 0x1 /home/ashwin/pcn_compiler_lkvm/x86_64/lib/libc.a(mkostemps.o)
 .debug_abbrev  0x000000000000b317       0xa1 0x1 /home/ashwin/pcn_compiler_lkvm/x86_64/lib/libc.a(__timedwait.o)
 .debug_abbrev  0x000000000000b3b8      0x143 0x1 /home/ashwin/pcn_compiler_lkvm/x86_64/lib/libc.a(pthread_rwlock_timedwrlock.o)
 .debug_abbrev  0x000000000000b4fb       0xef 0x1 /home/ashwin/pcn_compiler_lkvm/x86_64/lib/libc.a(pthread_rwlock_trywrlock.o)
 .debug_abbrev  0x000000000000b5ea       0xc4 0x1 /home/ashwin/pcn_compiler_lkvm/x86_64/lib/libc.a(__secs_to_tm.o)
 .debug_abbrev  0x000000000000b6ae      0x24f 0x1 /home/ashwin/pcn_compiler_lkvm/x86_64/lib/libc.a(__tz.o)
 .debug_abbrev  0x000000000000b8fd       0x62 0x1 /home/ashwin/pcn_compiler_lkvm/x86_64/lib/libc.a(__year_to_secs.o)
 .debug_abbrev  0x000000000000b95f       0xe2 0x1 /home/ashwin/pcn_compiler_lkvm/x86_64/lib/libc.a(clock_gettime.o)
 .debug_abbrev  0x000000000000ba41       0x7c 0x1 /home/ashwin/pcn_compiler_lkvm/x86_64/lib/libc.a(nanosleep.o)
 .debug_abbrev  0x000000000000babd       0x5b 0x1 /home/ashwin/pcn_compiler_lkvm/x86_64/lib/libc.a(internal.o)
 .debug_abbrev  0x000000000000bb18      0x151 0x1 /home/ashwin/pcn_compiler_lkvm/x86_64/lib/libc.a(wcrtomb.o)
 .debug_abbrev  0x000000000000bc69       0xf8 0x1 /home/ashwin/pcn_compiler_lkvm/x86_64/lib/libc.a(__stdio_exit.o)
 .debug_abbrev  0x000000000000bd61       0xdc 0x1 /home/ashwin/pcn_compiler_lkvm/x86_64/lib/libc.a(__toread.o)
 .debug_abbrev  0x000000000000be3d       0x93 0x1 /home/ashwin/pcn_compiler_lkvm/x86_64/lib/libc.a(__randname.o)
 .debug_abbrev  0x000000000000bed0      0x129 0x1 /home/ashwin/pcn_compiler_lkvm/x86_64/lib/libc.a(__map_file.o)
 .debug_abbrev  0x000000000000bff9       0x85 0x1 /home/ashwin/pcn_compiler_lkvm/x86_64/lib/libc.a(__month_to_secs.o)

.debug_info     0x0000000000000000    0x233d6
 .debug_info    0x0000000000000000       0x93 0x1 /home/ashwin/pcn_compiler_lkvm/x86_64/lib/crt1.o
 .debug_info    0x0000000000000093      0x2ba 0x1 /home/ashwin/pcn_compiler_lkvm/x86_64/lib/libc.a(sysconf.o)
 .debug_info    0x000000000000034d      0x10a 0x1 /home/ashwin/pcn_compiler_lkvm/x86_64/lib/libc.a(closedir.o)
 .debug_info    0x0000000000000457       0xf9 0x1 /home/ashwin/pcn_compiler_lkvm/x86_64/lib/libc.a(dirfd.o)
 .debug_info    0x0000000000000550      0x184 0x1 /home/ashwin/pcn_compiler_lkvm/x86_64/lib/libc.a(opendir.o)
 .debug_info    0x00000000000006d4      0x21e 0x1 /home/ashwin/pcn_compiler_lkvm/x86_64/lib/libc.a(readdir.o)
 .debug_info    0x00000000000008f2      0x1d2 0x1 /home/ashwin/pcn_compiler_lkvm/x86_64/lib/libc.a(readdir_r.o)
 .debug_info    0x0000000000000ac4      0x106 0x1 /home/ashwin/pcn_compiler_lkvm/x86_64/lib/libc.a(seekdir.o)
 .debug_info    0x0000000000000bca      0x323 0x1 /home/ashwin/pcn_compiler_lkvm/x86_64/lib/libc.a(__libc_start_main.o)
 .debug_info    0x0000000000000eed       0xa1 0x1 /home/ashwin/pcn_compiler_lkvm/x86_64/lib/libc.a(getenv.o)
 .debug_info    0x0000000000000f8e      0x3a8 0x1 /home/ashwin/pcn_compiler_lkvm/x86_64/lib/libc.a(__errno_location.o)
 .debug_info    0x0000000000001336      0x4a0 0x1 /home/ashwin/pcn_compiler_lkvm/x86_64/lib/libc.a(strerror.o)
 .debug_info    0x00000000000017d6      0x214 0x1 /home/ashwin/pcn_compiler_lkvm/x86_64/lib/libc.a(atexit.o)
 .debug_info    0x00000000000019ea       0xb0 0x1 /home/ashwin/pcn_compiler_lkvm/x86_64/lib/libc.a(exit.o)
 .debug_info    0x0000000000001a9a      0x418 0x1 /home/ashwin/pcn_compiler_lkvm/x86_64/lib/libc.a(fcntl.o)
 .debug_info    0x0000000000001eb2      0x1bb 0x1 /home/ashwin/pcn_compiler_lkvm/x86_64/lib/libc.a(open.o)
 .debug_info    0x000000000000206d      0x1d7 0x1 /home/ashwin/pcn_compiler_lkvm/x86_64/lib/libc.a(libc.o)
 .debug_info    0x0000000000002244       0x62 0x1 /home/ashwin/pcn_compiler_lkvm/x86_64/lib/libc.a(syscall_ret.o)
 .debug_info    0x00000000000022a6       0x4b 0x1 /home/ashwin/pcn_compiler_lkvm/x86_64/lib/libc.a(getpagesize.o)
 .debug_info    0x00000000000022f1      0x503 0x1 /home/ashwin/pcn_compiler_lkvm/x86_64/lib/libc.a(epoll.o)
 .debug_info    0x00000000000027f4      0x1e3 0x1 /home/ashwin/pcn_compiler_lkvm/x86_64/lib/libc.a(eventfd.o)
 .debug_info    0x00000000000029d7      0x1e0 0x1 /home/ashwin/pcn_compiler_lkvm/x86_64/lib/libc.a(prctl.o)
 .debug_info    0x0000000000002bb7      0x1b1 0x1 /home/ashwin/pcn_compiler_lkvm/x86_64/lib/libc.a(sysinfo.o)
 .debug_info    0x0000000000002d68      0x470 0x1 /home/ashwin/pcn_compiler_lkvm/x86_64/lib/libc.a(__lctrans.o)
 .debug_info    0x00000000000031d8      0x136 0x1 /home/ashwin/pcn_compiler_lkvm/x86_64/lib/libc.a(calloc.o)
 .debug_info    0x000000000000330e      0x12d 0x1 /home/ashwin/pcn_compiler_lkvm/x86_64/lib/libc.a(lite_malloc.o)
 .debug_info    0x000000000000343b     0x1ad0 0x1 /home/ashwin/pcn_compiler_lkvm/x86_64/lib/libc.a(malloc.o)
 .debug_info    0x0000000000004f0b     0x1a06 0x1 /home/ashwin/pcn_compiler_lkvm/x86_64/lib/libc.a(popcorn_malloc.o)
 .debug_info    0x0000000000006911      0x1f8 0x1 /home/ashwin/pcn_compiler_lkvm/x86_64/lib/libc.a(getrlimit.o)
 .debug_info    0x0000000000006b09      0x17f 0x1 /home/ashwin/pcn_compiler_lkvm/x86_64/lib/libc.a(ioctl.o)
 .debug_info    0x0000000000006c88      0x29e 0x1 /home/ashwin/pcn_compiler_lkvm/x86_64/lib/libc.a(mntent.o)
 .debug_info    0x0000000000006f26      0x20c 0x1 /home/ashwin/pcn_compiler_lkvm/x86_64/lib/libc.a(openpty.o)
 .debug_info    0x0000000000007132      0x371 0x1 /home/ashwin/pcn_compiler_lkvm/x86_64/lib/libc.a(realpath.o)
 .debug_info    0x00000000000074a3      0x137 0x1 /home/ashwin/pcn_compiler_lkvm/x86_64/lib/libc.a(uname.o)
 .debug_info    0x00000000000075da      0x116 0x1 /home/ashwin/pcn_compiler_lkvm/x86_64/lib/libc.a(madvise.o)
 .debug_info    0x00000000000076f0      0x1ed 0x1 /home/ashwin/pcn_compiler_lkvm/x86_64/lib/libc.a(mmap.o)
 .debug_info    0x00000000000078dd      0x140 0x1 /home/ashwin/pcn_compiler_lkvm/x86_64/lib/libc.a(mprotect.o)
 .debug_info    0x0000000000007a1d      0x211 0x1 /home/ashwin/pcn_compiler_lkvm/x86_64/lib/libc.a(mremap.o)
 .debug_info    0x0000000000007c2e      0x108 0x1 /home/ashwin/pcn_compiler_lkvm/x86_64/lib/libc.a(munmap.o)
 .debug_info    0x0000000000007d36      0x15f 0x1 /home/ashwin/pcn_compiler_lkvm/x86_64/lib/libc.a(shm_open.o)
 .debug_info    0x0000000000007e95       0xf8 0x1 /home/ashwin/pcn_compiler_lkvm/x86_64/lib/libc.a(accept.o)
 .debug_info    0x0000000000007f8d      0x1de 0x1 /home/ashwin/pcn_compiler_lkvm/x86_64/lib/libc.a(bind.o)
 .debug_info    0x000000000000816b       0xee 0x1 /home/ashwin/pcn_compiler_lkvm/x86_64/lib/libc.a(connect.o)
 .debug_info    0x0000000000008259       0xd7 0x1 /home/ashwin/pcn_compiler_lkvm/x86_64/lib/libc.a(htonl.o)
 .debug_info    0x0000000000008330       0xa1 0x1 /home/ashwin/pcn_compiler_lkvm/x86_64/lib/libc.a(htons.o)
 .debug_info    0x00000000000083d1       0xa5 0x1 /home/ashwin/pcn_compiler_lkvm/x86_64/lib/libc.a(inet_addr.o)
 .debug_info    0x0000000000008476      0x127 0x1 /home/ashwin/pcn_compiler_lkvm/x86_64/lib/libc.a(inet_aton.o)
 .debug_info    0x000000000000859d      0x15e 0x1 /home/ashwin/pcn_compiler_lkvm/x86_64/lib/libc.a(listen.o)
 .debug_info    0x00000000000086fb       0xd7 0x1 /home/ashwin/pcn_compiler_lkvm/x86_64/lib/libc.a(ntohl.o)
 .debug_info    0x00000000000087d2       0xa1 0x1 /home/ashwin/pcn_compiler_lkvm/x86_64/lib/libc.a(ntohs.o)
 .debug_info    0x0000000000008873      0x148 0x1 /home/ashwin/pcn_compiler_lkvm/x86_64/lib/libc.a(recvfrom.o)
 .debug_info    0x00000000000089bb      0x13e 0x1 /home/ashwin/pcn_compiler_lkvm/x86_64/lib/libc.a(sendto.o)
 .debug_info    0x0000000000008af9      0x15e 0x1 /home/ashwin/pcn_compiler_lkvm/x86_64/lib/libc.a(shutdown.o)
 .debug_info    0x0000000000008c57      0x2ae 0x1 /home/ashwin/pcn_compiler_lkvm/x86_64/lib/libc.a(socket.o)
 .debug_info    0x0000000000008f05      0x150 0x1 /home/ashwin/pcn_compiler_lkvm/x86_64/lib/libc.a(execl.o)
 .debug_info    0x0000000000009055       0x8a 0x1 /home/ashwin/pcn_compiler_lkvm/x86_64/lib/libc.a(execv.o)
 .debug_info    0x00000000000090df      0x12a 0x1 /home/ashwin/pcn_compiler_lkvm/x86_64/lib/libc.a(execve.o)
 .debug_info    0x0000000000009209      0x4a6 0x1 /home/ashwin/pcn_compiler_lkvm/x86_64/lib/libc.a(fork.o)
 .debug_info    0x00000000000096af       0x91 0x1 /home/ashwin/pcn_compiler_lkvm/x86_64/lib/libc.a(waitpid.o)
 .debug_info    0x0000000000009740       0xcb 0x1 /home/ashwin/pcn_compiler_lkvm/x86_64/lib/libc.a(poll.o)
 .debug_info    0x000000000000980b      0x122 0x1 /home/ashwin/pcn_compiler_lkvm/x86_64/lib/libc.a(select.o)
 .debug_info    0x000000000000992d      0x208 0x1 /home/ashwin/pcn_compiler_lkvm/x86_64/lib/libc.a(block.o)
 .debug_info    0x0000000000009b35      0x17c 0x1 /home/ashwin/pcn_compiler_lkvm/x86_64/lib/libc.a(raise.o)
 .debug_info    0x0000000000009cb1      0x39a 0x1 /home/ashwin/pcn_compiler_lkvm/x86_64/lib/libc.a(signal.o)
 .debug_info    0x000000000000a04b       0x4b 0x1 /home/ashwin/pcn_compiler_lkvm/x86_64/lib/libc.a(sigrtmin.o)
 .debug_info    0x000000000000a096      0x10b 0x1 /home/ashwin/pcn_compiler_lkvm/x86_64/lib/libc.a(chmod.o)
 .debug_info    0x000000000000a1a1      0x45a 0x1 /home/ashwin/pcn_compiler_lkvm/x86_64/lib/libc.a(fstat.o)
 .debug_info    0x000000000000a5fb      0x34b 0x1 /home/ashwin/pcn_compiler_lkvm/x86_64/lib/libc.a(lstat.o)
 .debug_info    0x000000000000a946      0x10b 0x1 /home/ashwin/pcn_compiler_lkvm/x86_64/lib/libc.a(mkdir.o)
 .debug_info    0x000000000000aa51      0x139 0x1 /home/ashwin/pcn_compiler_lkvm/x86_64/lib/libc.a(mknod.o)
 .debug_info    0x000000000000ab8a      0x34d 0x1 /home/ashwin/pcn_compiler_lkvm/x86_64/lib/libc.a(stat.o)
 .debug_info    0x000000000000aed7      0x4f4 0x1 /home/ashwin/pcn_compiler_lkvm/x86_64/lib/libc.a(statvfs.o)
 .debug_info    0x000000000000b3cb      0x30c 0x1 /home/ashwin/pcn_compiler_lkvm/x86_64/lib/libc.a(utimensat.o)
 .debug_info    0x000000000000b6d7      0x109 0x1 /home/ashwin/pcn_compiler_lkvm/x86_64/lib/libc.a(dprintf.o)
 .debug_info    0x000000000000b7e0      0x36f 0x1 /home/ashwin/pcn_compiler_lkvm/x86_64/lib/libc.a(fclose.o)
 .debug_info    0x000000000000bb4f      0x31b 0x1 /home/ashwin/pcn_compiler_lkvm/x86_64/lib/libc.a(feof.o)
 .debug_info    0x000000000000be6a      0x31b 0x1 /home/ashwin/pcn_compiler_lkvm/x86_64/lib/libc.a(ferror.o)
 .debug_info    0x000000000000c185      0x35c 0x1 /home/ashwin/pcn_compiler_lkvm/x86_64/lib/libc.a(fflush.o)
 .debug_info    0x000000000000c4e1      0x374 0x1 /home/ashwin/pcn_compiler_lkvm/x86_64/lib/libc.a(fgets.o)
 .debug_info    0x000000000000c855      0x46a 0x1 /home/ashwin/pcn_compiler_lkvm/x86_64/lib/libc.a(fopen.o)
 .debug_info    0x000000000000ccbf      0x124 0x1 /home/ashwin/pcn_compiler_lkvm/x86_64/lib/libc.a(fprintf.o)
 .debug_info    0x000000000000cde3      0x310 0x1 /home/ashwin/pcn_compiler_lkvm/x86_64/lib/libc.a(fputc.o)
 .debug_info    0x000000000000d0f3      0x124 0x1 /home/ashwin/pcn_compiler_lkvm/x86_64/lib/libc.a(fscanf.o)
 .debug_info    0x000000000000d217      0x3c7 0x1 /home/ashwin/pcn_compiler_lkvm/x86_64/lib/libc.a(fseek.o)
 .debug_info    0x000000000000d5de       0xd1 0x1 /home/ashwin/pcn_compiler_lkvm/x86_64/lib/libc.a(getline.o)
 .debug_info    0x000000000000d6af      0x341 0x1 /home/ashwin/pcn_compiler_lkvm/x86_64/lib/libc.a(ofl.o)
 .debug_info    0x000000000000d9f0      0x334 0x1 /home/ashwin/pcn_compiler_lkvm/x86_64/lib/libc.a(perror.o)
 .debug_info    0x000000000000dd24       0xfa 0x1 /home/ashwin/pcn_compiler_lkvm/x86_64/lib/libc.a(printf.o)
 .debug_info    0x000000000000de1e       0x5b 0x1 /home/ashwin/pcn_compiler_lkvm/x86_64/lib/libc.a(putchar.o)
 .debug_info    0x000000000000de79       0x91 0x1 /home/ashwin/pcn_compiler_lkvm/x86_64/lib/libc.a(puts.o)
 .debug_info    0x000000000000df0a      0x111 0x1 /home/ashwin/pcn_compiler_lkvm/x86_64/lib/libc.a(remove.o)
 .debug_info    0x000000000000e01b       0xf9 0x1 /home/ashwin/pcn_compiler_lkvm/x86_64/lib/libc.a(rename.o)
 .debug_info    0x000000000000e114      0x134 0x1 /home/ashwin/pcn_compiler_lkvm/x86_64/lib/libc.a(snprintf.o)
 .debug_info    0x000000000000e248      0x113 0x1 /home/ashwin/pcn_compiler_lkvm/x86_64/lib/libc.a(sprintf.o)
 .debug_info    0x000000000000e35b      0x109 0x1 /home/ashwin/pcn_compiler_lkvm/x86_64/lib/libc.a(sscanf.o)
 .debug_info    0x000000000000e464      0x336 0x1 /home/ashwin/pcn_compiler_lkvm/x86_64/lib/libc.a(stderr.o)
 .debug_info    0x000000000000e79a      0x337 0x1 /home/ashwin/pcn_compiler_lkvm/x86_64/lib/libc.a(stdout.o)
 .debug_info    0x000000000000ead1      0x3b8 0x1 /home/ashwin/pcn_compiler_lkvm/x86_64/lib/libc.a(vdprintf.o)
 .debug_info    0x000000000000ee89     0x119d 0x1 /home/ashwin/pcn_compiler_lkvm/x86_64/lib/libc.a(vfprintf.o)
 .debug_info    0x0000000000010026      0x786 0x1 /home/ashwin/pcn_compiler_lkvm/x86_64/lib/libc.a(vfscanf.o)
 .debug_info    0x00000000000107ac      0x44f 0x1 /home/ashwin/pcn_compiler_lkvm/x86_64/lib/libc.a(vsnprintf.o)
 .debug_info    0x0000000000010bfb       0xd5 0x1 /home/ashwin/pcn_compiler_lkvm/x86_64/lib/libc.a(vsprintf.o)
 .debug_info    0x0000000000010cd0      0x3b8 0x1 /home/ashwin/pcn_compiler_lkvm/x86_64/lib/libc.a(vsscanf.o)
 .debug_info    0x0000000000011088       0xbf 0x1 /home/ashwin/pcn_compiler_lkvm/x86_64/lib/libc.a(atoi.o)
 .debug_info    0x0000000000011147      0x5dc 0x1 /home/ashwin/pcn_compiler_lkvm/x86_64/lib/libc.a(strtol.o)
 .debug_info    0x0000000000011723       0xf3 0x1 /home/ashwin/pcn_compiler_lkvm/x86_64/lib/libc.a(memchr.o)
 .debug_info    0x0000000000011816       0xbe 0x1 /home/ashwin/pcn_compiler_lkvm/x86_64/lib/libc.a(memcmp.o)
 .debug_info    0x00000000000118d4       0x9a 0x1 /home/ashwin/pcn_compiler_lkvm/x86_64/lib/libc.a(strcasestr.o)
 .debug_info    0x000000000001196e       0x83 0x1 /home/ashwin/pcn_compiler_lkvm/x86_64/lib/libc.a(strcat.o)
 .debug_info    0x00000000000119f1       0x9b 0x1 /home/ashwin/pcn_compiler_lkvm/x86_64/lib/libc.a(strchr.o)
 .debug_info    0x0000000000011a8c       0xcd 0x1 /home/ashwin/pcn_compiler_lkvm/x86_64/lib/libc.a(strchrnul.o)
 .debug_info    0x0000000000011b59       0x85 0x1 /home/ashwin/pcn_compiler_lkvm/x86_64/lib/libc.a(strcmp.o)
 .debug_info    0x0000000000011bde       0x83 0x1 /home/ashwin/pcn_compiler_lkvm/x86_64/lib/libc.a(strcpy.o)
 .debug_info    0x0000000000011c61       0x9a 0x1 /home/ashwin/pcn_compiler_lkvm/x86_64/lib/libc.a(strdup.o)
 .debug_info    0x0000000000011cfb       0xae 0x1 /home/ashwin/pcn_compiler_lkvm/x86_64/lib/libc.a(strlen.o)
 .debug_info    0x0000000000011da9      0x1cd 0x1 /home/ashwin/pcn_compiler_lkvm/x86_64/lib/libc.a(strncasecmp.o)
 .debug_info    0x0000000000011f76       0xca 0x1 /home/ashwin/pcn_compiler_lkvm/x86_64/lib/libc.a(strncmp.o)
 .debug_info    0x0000000000012040       0xa4 0x1 /home/ashwin/pcn_compiler_lkvm/x86_64/lib/libc.a(strncpy.o)
 .debug_info    0x00000000000120e4       0xa9 0x1 /home/ashwin/pcn_compiler_lkvm/x86_64/lib/libc.a(strndup.o)
 .debug_info    0x000000000001218d       0x95 0x1 /home/ashwin/pcn_compiler_lkvm/x86_64/lib/libc.a(strnlen.o)
 .debug_info    0x0000000000012222       0xbc 0x1 /home/ashwin/pcn_compiler_lkvm/x86_64/lib/libc.a(strspn.o)
 .debug_info    0x00000000000122de      0x363 0x1 /home/ashwin/pcn_compiler_lkvm/x86_64/lib/libc.a(strstr.o)
 .debug_info    0x0000000000012641       0x98 0x1 /home/ashwin/pcn_compiler_lkvm/x86_64/lib/libc.a(strtok.o)
 .debug_info    0x00000000000126d9       0x67 0x1 /home/ashwin/pcn_compiler_lkvm/x86_64/lib/libc.a(mkstemp.o)
 .debug_info    0x0000000000012740      0x11a 0x1 /home/ashwin/pcn_compiler_lkvm/x86_64/lib/libc.a(tcgetattr.o)
 .debug_info    0x000000000001285a      0x12e 0x1 /home/ashwin/pcn_compiler_lkvm/x86_64/lib/libc.a(tcsetattr.o)
 .debug_info    0x0000000000012988      0x23e 0x1 /home/ashwin/pcn_compiler_lkvm/x86_64/lib/libc.a(__lock.o)
 .debug_info    0x0000000000012bc6      0x141 0x1 /home/ashwin/pcn_compiler_lkvm/x86_64/lib/libc.a(__syscall_cp.o)
 .debug_info    0x0000000000012d07      0x227 0x1 /home/ashwin/pcn_compiler_lkvm/x86_64/lib/libc.a(__wait.o)
 .debug_info    0x0000000000012f2e      0x10b 0x1 /home/ashwin/pcn_compiler_lkvm/x86_64/lib/libc.a(pthread_cleanup_push.o)
 .debug_info    0x0000000000013039      0x11b 0x1 /home/ashwin/pcn_compiler_lkvm/x86_64/lib/libc.a(pthread_cond_init.o)
 .debug_info    0x0000000000013154      0x23b 0x1 /home/ashwin/pcn_compiler_lkvm/x86_64/lib/libc.a(pthread_cond_signal.o)
 .debug_info    0x000000000001338f     0x12ac 0x1 /home/ashwin/pcn_compiler_lkvm/x86_64/lib/libc.a(pthread_cond_timedwait.o)
 .debug_info    0x000000000001463b      0x168 0x1 /home/ashwin/pcn_compiler_lkvm/x86_64/lib/libc.a(pthread_cond_wait.o)
 .debug_info    0x00000000000147a3     0x109a 0x1 /home/ashwin/pcn_compiler_lkvm/x86_64/lib/libc.a(pthread_create.o)
 .debug_info    0x000000000001583d      0x4ec 0x1 /home/ashwin/pcn_compiler_lkvm/x86_64/lib/libc.a(pthread_join.o)
 .debug_info    0x0000000000015d29      0x418 0x1 /home/ashwin/pcn_compiler_lkvm/x86_64/lib/libc.a(pthread_kill.o)
 .debug_info    0x0000000000016141      0x125 0x1 /home/ashwin/pcn_compiler_lkvm/x86_64/lib/libc.a(pthread_mutex_init.o)
 .debug_info    0x0000000000016266      0x13f 0x1 /home/ashwin/pcn_compiler_lkvm/x86_64/lib/libc.a(pthread_mutex_lock.o)
 .debug_info    0x00000000000163a5      0x5bd 0x1 /home/ashwin/pcn_compiler_lkvm/x86_64/lib/libc.a(pthread_mutex_timedlock.o)
 .debug_info    0x0000000000016962      0x5b8 0x1 /home/ashwin/pcn_compiler_lkvm/x86_64/lib/libc.a(pthread_mutex_trylock.o)
 .debug_info    0x0000000000016f1a      0x60d 0x1 /home/ashwin/pcn_compiler_lkvm/x86_64/lib/libc.a(pthread_mutex_unlock.o)
 .debug_info    0x0000000000017527       0xd6 0x1 /home/ashwin/pcn_compiler_lkvm/x86_64/lib/libc.a(pthread_rwlock_rdlock.o)
 .debug_info    0x00000000000175fd      0x23f 0x1 /home/ashwin/pcn_compiler_lkvm/x86_64/lib/libc.a(pthread_rwlock_timedrdlock.o)
 .debug_info    0x000000000001783c      0x157 0x1 /home/ashwin/pcn_compiler_lkvm/x86_64/lib/libc.a(pthread_rwlock_tryrdlock.o)
 .debug_info    0x0000000000017993      0x2b0 0x1 /home/ashwin/pcn_compiler_lkvm/x86_64/lib/libc.a(pthread_rwlock_unlock.o)
 .debug_info    0x0000000000017c43       0xd6 0x1 /home/ashwin/pcn_compiler_lkvm/x86_64/lib/libc.a(pthread_rwlock_wrlock.o)
 .debug_info    0x0000000000017d19      0x3d1 0x1 /home/ashwin/pcn_compiler_lkvm/x86_64/lib/libc.a(pthread_setcancelstate.o)
 .debug_info    0x00000000000180ea       0x55 0x1 /home/ashwin/pcn_compiler_lkvm/x86_64/lib/libc.a(pthread_testcancel.o)
 .debug_info    0x000000000001813f      0x252 0x1 /home/ashwin/pcn_compiler_lkvm/x86_64/lib/libc.a(vmlock.o)
 .debug_info    0x0000000000018391      0x12f 0x1 /home/ashwin/pcn_compiler_lkvm/x86_64/lib/libc.a(gmtime.o)
 .debug_info    0x00000000000184c0      0x133 0x1 /home/ashwin/pcn_compiler_lkvm/x86_64/lib/libc.a(gmtime_r.o)
 .debug_info    0x00000000000185f3       0x9d 0x1 /home/ashwin/pcn_compiler_lkvm/x86_64/lib/libc.a(time.o)
 .debug_info    0x0000000000018690       0x57 0x1 /home/ashwin/pcn_compiler_lkvm/x86_64/lib/libc.a(_exit.o)
 .debug_info    0x00000000000186e7       0xf8 0x1 /home/ashwin/pcn_compiler_lkvm/x86_64/lib/libc.a(access.o)
 .debug_info    0x00000000000187df       0x9a 0x1 /home/ashwin/pcn_compiler_lkvm/x86_64/lib/libc.a(close.o)
 .debug_info    0x0000000000018879       0x62 0x1 /home/ashwin/pcn_compiler_lkvm/x86_64/lib/libc.a(fdatasync.o)
 .debug_info    0x00000000000188db       0x62 0x1 /home/ashwin/pcn_compiler_lkvm/x86_64/lib/libc.a(fsync.o)
 .debug_info    0x000000000001893d       0xf3 0x1 /home/ashwin/pcn_compiler_lkvm/x86_64/lib/libc.a(ftruncate.o)
 .debug_info    0x0000000000018a30       0xa9 0x1 /home/ashwin/pcn_compiler_lkvm/x86_64/lib/libc.a(getpid.o)
 .debug_info    0x0000000000018ad9      0x134 0x1 /home/ashwin/pcn_compiler_lkvm/x86_64/lib/libc.a(isatty.o)
 .debug_info    0x0000000000018c0d      0x13b 0x1 /home/ashwin/pcn_compiler_lkvm/x86_64/lib/libc.a(lchown.o)
 .debug_info    0x0000000000018d48       0xf9 0x1 /home/ashwin/pcn_compiler_lkvm/x86_64/lib/libc.a(link.o)
 .debug_info    0x0000000000018e41      0x115 0x1 /home/ashwin/pcn_compiler_lkvm/x86_64/lib/libc.a(lseek.o)
 .debug_info    0x0000000000018f56       0xb8 0x1 /home/ashwin/pcn_compiler_lkvm/x86_64/lib/libc.a(pread.o)
 .debug_info    0x000000000001900e       0xe6 0x1 /home/ashwin/pcn_compiler_lkvm/x86_64/lib/libc.a(preadv.o)
 .debug_info    0x00000000000190f4       0xbd 0x1 /home/ashwin/pcn_compiler_lkvm/x86_64/lib/libc.a(pwrite.o)
 .debug_info    0x00000000000191b1       0xe6 0x1 /home/ashwin/pcn_compiler_lkvm/x86_64/lib/libc.a(pwritev.o)
 .debug_info    0x0000000000019297       0x9e 0x1 /home/ashwin/pcn_compiler_lkvm/x86_64/lib/libc.a(read.o)
 .debug_info    0x0000000000019335      0x13a 0x1 /home/ashwin/pcn_compiler_lkvm/x86_64/lib/libc.a(readlink.o)
 .debug_info    0x000000000001946f       0xcc 0x1 /home/ashwin/pcn_compiler_lkvm/x86_64/lib/libc.a(readv.o)
 .debug_info    0x000000000001953b       0xa0 0x1 /home/ashwin/pcn_compiler_lkvm/x86_64/lib/libc.a(sleep.o)
 .debug_info    0x00000000000195db       0xf9 0x1 /home/ashwin/pcn_compiler_lkvm/x86_64/lib/libc.a(symlink.o)
 .debug_info    0x00000000000196d4      0x104 0x1 /home/ashwin/pcn_compiler_lkvm/x86_64/lib/libc.a(truncate.o)
 .debug_info    0x00000000000197d8       0xd6 0x1 /home/ashwin/pcn_compiler_lkvm/x86_64/lib/libc.a(unlink.o)
 .debug_info    0x00000000000198ae       0xa7 0x1 /home/ashwin/pcn_compiler_lkvm/x86_64/lib/libc.a(usleep.o)
 .debug_info    0x0000000000019955       0xa3 0x1 /home/ashwin/pcn_compiler_lkvm/x86_64/lib/libc.a(write.o)
 .debug_info    0x00000000000199f8       0xcc 0x1 /home/ashwin/pcn_compiler_lkvm/x86_64/lib/libc.a(writev.o)
 .debug_info    0x0000000000019ac4      0x107 0x1 /home/ashwin/pcn_compiler_lkvm/x86_64/lib/libc.a(tolower.o)
 .debug_info    0x0000000000019bcb       0x45 0x1 /home/ashwin/pcn_compiler_lkvm/x86_64/lib/libc.a(__environ.o)
 .debug_info    0x0000000000019c10      0x79d 0x1 /home/ashwin/pcn_compiler_lkvm/x86_64/lib/libc.a(__init_tls.o)
 .debug_info    0x000000000001a3ad      0x25a 0x1 /home/ashwin/pcn_compiler_lkvm/x86_64/lib/libc.a(platform.o)
 .debug_info    0x000000000001a607       0xe4 0x1 /home/ashwin/pcn_compiler_lkvm/x86_64/lib/libc.a(_Exit.o)
 .debug_info    0x000000000001a6eb      0x940 0x1 /home/ashwin/pcn_compiler_lkvm/x86_64/lib/libc.a(floatscan.o)
 .debug_info    0x000000000001b02b      0x3f0 0x1 /home/ashwin/pcn_compiler_lkvm/x86_64/lib/libc.a(intscan.o)
 .debug_info    0x000000000001b41b       0x8e 0x1 /home/ashwin/pcn_compiler_lkvm/x86_64/lib/libc.a(procfdname.o)
 .debug_info    0x000000000001b4a9      0x340 0x1 /home/ashwin/pcn_compiler_lkvm/x86_64/lib/libc.a(shgetc.o)
 .debug_info    0x000000000001b7e9      0x622 0x1 /home/ashwin/pcn_compiler_lkvm/x86_64/lib/libc.a(expand_heap.o)
 .debug_info    0x000000000001be0b       0xec 0x1 /home/ashwin/pcn_compiler_lkvm/x86_64/lib/libc.a(__fpclassifyl.o)
 .debug_info    0x000000000001bef7       0xd3 0x1 /home/ashwin/pcn_compiler_lkvm/x86_64/lib/libc.a(__signbitl.o)
 .debug_info    0x000000000001bfca       0xe9 0x1 /home/ashwin/pcn_compiler_lkvm/x86_64/lib/libc.a(copysignl.o)
 .debug_info    0x000000000001c0b3       0xf6 0x1 /home/ashwin/pcn_compiler_lkvm/x86_64/lib/libc.a(frexpl.o)
 .debug_info    0x000000000001c1a9       0xc9 0x1 /home/ashwin/pcn_compiler_lkvm/x86_64/lib/libc.a(scalbn.o)
 .debug_info    0x000000000001c272       0xe2 0x1 /home/ashwin/pcn_compiler_lkvm/x86_64/lib/libc.a(scalbnl.o)
 .debug_info    0x000000000001c354      0x517 0x1 /home/ashwin/pcn_compiler_lkvm/x86_64/lib/libc.a(mbrtowc.o)
 .debug_info    0x000000000001c86b       0x9f 0x1 /home/ashwin/pcn_compiler_lkvm/x86_64/lib/libc.a(mbsinit.o)
 .debug_info    0x000000000001c90a       0x81 0x1 /home/ashwin/pcn_compiler_lkvm/x86_64/lib/libc.a(wctomb.o)
 .debug_info    0x000000000001c98b      0x651 0x1 /home/ashwin/pcn_compiler_lkvm/x86_64/lib/libc.a(sigaction.o)
 .debug_info    0x000000000001cfdc      0x501 0x1 /home/ashwin/pcn_compiler_lkvm/x86_64/lib/libc.a(__fdopen.o)
 .debug_info    0x000000000001d4dd       0x7b 0x1 /home/ashwin/pcn_compiler_lkvm/x86_64/lib/libc.a(__fmodeflags.o)
 .debug_info    0x000000000001d558      0x7df 0x1 /home/ashwin/pcn_compiler_lkvm/x86_64/lib/libc.a(__lockfile.o)
 .debug_info    0x000000000001dd37      0x31f 0x1 /home/ashwin/pcn_compiler_lkvm/x86_64/lib/libc.a(__overflow.o)
 .debug_info    0x000000000001e056      0x385 0x1 /home/ashwin/pcn_compiler_lkvm/x86_64/lib/libc.a(__stdio_close.o)
 .debug_info    0x000000000001e3db      0x3f7 0x1 /home/ashwin/pcn_compiler_lkvm/x86_64/lib/libc.a(__stdio_read.o)
 .debug_info    0x000000000001e7d2      0x3ad 0x1 /home/ashwin/pcn_compiler_lkvm/x86_64/lib/libc.a(__stdio_seek.o)
 .debug_info    0x000000000001eb7f      0x427 0x1 /home/ashwin/pcn_compiler_lkvm/x86_64/lib/libc.a(__stdio_write.o)
 .debug_info    0x000000000001efa6      0x3f0 0x1 /home/ashwin/pcn_compiler_lkvm/x86_64/lib/libc.a(__stdout_write.o)
 .debug_info    0x000000000001f396      0x34c 0x1 /home/ashwin/pcn_compiler_lkvm/x86_64/lib/libc.a(__string_read.o)
 .debug_info    0x000000000001f6e2      0x314 0x1 /home/ashwin/pcn_compiler_lkvm/x86_64/lib/libc.a(__towrite.o)
 .debug_info    0x000000000001f9f6      0x310 0x1 /home/ashwin/pcn_compiler_lkvm/x86_64/lib/libc.a(__uflow.o)
 .debug_info    0x000000000001fd06      0x333 0x1 /home/ashwin/pcn_compiler_lkvm/x86_64/lib/libc.a(fputs.o)
 .debug_info    0x0000000000020039      0x3df 0x1 /home/ashwin/pcn_compiler_lkvm/x86_64/lib/libc.a(fwrite.o)
 .debug_info    0x0000000000020418      0x3d8 0x1 /home/ashwin/pcn_compiler_lkvm/x86_64/lib/libc.a(getdelim.o)
 .debug_info    0x00000000000207f0      0x315 0x1 /home/ashwin/pcn_compiler_lkvm/x86_64/lib/libc.a(ofl_add.o)
 .debug_info    0x0000000000020b05       0xd4 0x1 /home/ashwin/pcn_compiler_lkvm/x86_64/lib/libc.a(stpcpy.o)
 .debug_info    0x0000000000020bd9       0xf2 0x1 /home/ashwin/pcn_compiler_lkvm/x86_64/lib/libc.a(stpncpy.o)
 .debug_info    0x0000000000020ccb       0xbe 0x1 /home/ashwin/pcn_compiler_lkvm/x86_64/lib/libc.a(strcspn.o)
 .debug_info    0x0000000000020d89       0xc4 0x1 /home/ashwin/pcn_compiler_lkvm/x86_64/lib/libc.a(mkostemps.o)
 .debug_info    0x0000000000020e4d      0x19f 0x1 /home/ashwin/pcn_compiler_lkvm/x86_64/lib/libc.a(__timedwait.o)
 .debug_info    0x0000000000020fec      0x23f 0x1 /home/ashwin/pcn_compiler_lkvm/x86_64/lib/libc.a(pthread_rwlock_timedwrlock.o)
 .debug_info    0x000000000002122b      0x136 0x1 /home/ashwin/pcn_compiler_lkvm/x86_64/lib/libc.a(pthread_rwlock_trywrlock.o)
 .debug_info    0x0000000000021361      0x200 0x1 /home/ashwin/pcn_compiler_lkvm/x86_64/lib/libc.a(__secs_to_tm.o)
 .debug_info    0x0000000000021561      0xbc3 0x1 /home/ashwin/pcn_compiler_lkvm/x86_64/lib/libc.a(__tz.o)
 .debug_info    0x0000000000022124       0xd6 0x1 /home/ashwin/pcn_compiler_lkvm/x86_64/lib/libc.a(__year_to_secs.o)
 .debug_info    0x00000000000221fa      0x16b 0x1 /home/ashwin/pcn_compiler_lkvm/x86_64/lib/libc.a(clock_gettime.o)
 .debug_info    0x0000000000022365       0xaf 0x1 /home/ashwin/pcn_compiler_lkvm/x86_64/lib/libc.a(nanosleep.o)
 .debug_info    0x0000000000022414       0x5e 0x1 /home/ashwin/pcn_compiler_lkvm/x86_64/lib/libc.a(internal.o)
 .debug_info    0x0000000000022472      0x467 0x1 /home/ashwin/pcn_compiler_lkvm/x86_64/lib/libc.a(wcrtomb.o)
 .debug_info    0x00000000000228d9      0x33c 0x1 /home/ashwin/pcn_compiler_lkvm/x86_64/lib/libc.a(__stdio_exit.o)
 .debug_info    0x0000000000022c15      0x316 0x1 /home/ashwin/pcn_compiler_lkvm/x86_64/lib/libc.a(__toread.o)
 .debug_info    0x0000000000022f2b       0xdb 0x1 /home/ashwin/pcn_compiler_lkvm/x86_64/lib/libc.a(__randname.o)
 .debug_info    0x0000000000023006      0x32e 0x1 /home/ashwin/pcn_compiler_lkvm/x86_64/lib/libc.a(__map_file.o)
 .debug_info    0x0000000000023334       0xa2 0x1 /home/ashwin/pcn_compiler_lkvm/x86_64/lib/libc.a(__month_to_secs.o)

.debug_macinfo  0x0000000000000000       0xe9
 .debug_macinfo
                0x0000000000000000        0x1 0x1 /home/ashwin/pcn_compiler_lkvm/x86_64/lib/crt1.o
 .debug_macinfo
                0x0000000000000001        0x1 0x1 /home/ashwin/pcn_compiler_lkvm/x86_64/lib/libc.a(sysconf.o)
 .debug_macinfo
                0x0000000000000002        0x1 0x1 /home/ashwin/pcn_compiler_lkvm/x86_64/lib/libc.a(closedir.o)
 .debug_macinfo
                0x0000000000000003        0x1 0x1 /home/ashwin/pcn_compiler_lkvm/x86_64/lib/libc.a(dirfd.o)
 .debug_macinfo
                0x0000000000000004        0x1 0x1 /home/ashwin/pcn_compiler_lkvm/x86_64/lib/libc.a(opendir.o)
 .debug_macinfo
                0x0000000000000005        0x1 0x1 /home/ashwin/pcn_compiler_lkvm/x86_64/lib/libc.a(readdir.o)
 .debug_macinfo
                0x0000000000000006        0x1 0x1 /home/ashwin/pcn_compiler_lkvm/x86_64/lib/libc.a(readdir_r.o)
 .debug_macinfo
                0x0000000000000007        0x1 0x1 /home/ashwin/pcn_compiler_lkvm/x86_64/lib/libc.a(seekdir.o)
 .debug_macinfo
                0x0000000000000008        0x1 0x1 /home/ashwin/pcn_compiler_lkvm/x86_64/lib/libc.a(__libc_start_main.o)
 .debug_macinfo
                0x0000000000000009        0x1 0x1 /home/ashwin/pcn_compiler_lkvm/x86_64/lib/libc.a(getenv.o)
 .debug_macinfo
                0x000000000000000a        0x1 0x1 /home/ashwin/pcn_compiler_lkvm/x86_64/lib/libc.a(__errno_location.o)
 .debug_macinfo
                0x000000000000000b        0x1 0x1 /home/ashwin/pcn_compiler_lkvm/x86_64/lib/libc.a(strerror.o)
 .debug_macinfo
                0x000000000000000c        0x1 0x1 /home/ashwin/pcn_compiler_lkvm/x86_64/lib/libc.a(atexit.o)
 .debug_macinfo
                0x000000000000000d        0x1 0x1 /home/ashwin/pcn_compiler_lkvm/x86_64/lib/libc.a(exit.o)
 .debug_macinfo
                0x000000000000000e        0x1 0x1 /home/ashwin/pcn_compiler_lkvm/x86_64/lib/libc.a(fcntl.o)
 .debug_macinfo
                0x000000000000000f        0x1 0x1 /home/ashwin/pcn_compiler_lkvm/x86_64/lib/libc.a(open.o)
 .debug_macinfo
                0x0000000000000010        0x1 0x1 /home/ashwin/pcn_compiler_lkvm/x86_64/lib/libc.a(libc.o)
 .debug_macinfo
                0x0000000000000011        0x1 0x1 /home/ashwin/pcn_compiler_lkvm/x86_64/lib/libc.a(syscall_ret.o)
 .debug_macinfo
                0x0000000000000012        0x1 0x1 /home/ashwin/pcn_compiler_lkvm/x86_64/lib/libc.a(getpagesize.o)
 .debug_macinfo
                0x0000000000000013        0x1 0x1 /home/ashwin/pcn_compiler_lkvm/x86_64/lib/libc.a(epoll.o)
 .debug_macinfo
                0x0000000000000014        0x1 0x1 /home/ashwin/pcn_compiler_lkvm/x86_64/lib/libc.a(eventfd.o)
 .debug_macinfo
                0x0000000000000015        0x1 0x1 /home/ashwin/pcn_compiler_lkvm/x86_64/lib/libc.a(prctl.o)
 .debug_macinfo
                0x0000000000000016        0x1 0x1 /home/ashwin/pcn_compiler_lkvm/x86_64/lib/libc.a(sysinfo.o)
 .debug_macinfo
                0x0000000000000017        0x1 0x1 /home/ashwin/pcn_compiler_lkvm/x86_64/lib/libc.a(__lctrans.o)
 .debug_macinfo
                0x0000000000000018        0x1 0x1 /home/ashwin/pcn_compiler_lkvm/x86_64/lib/libc.a(calloc.o)
 .debug_macinfo
                0x0000000000000019        0x1 0x1 /home/ashwin/pcn_compiler_lkvm/x86_64/lib/libc.a(lite_malloc.o)
 .debug_macinfo
                0x000000000000001a        0x1 0x1 /home/ashwin/pcn_compiler_lkvm/x86_64/lib/libc.a(malloc.o)
 .debug_macinfo
                0x000000000000001b        0x1 0x1 /home/ashwin/pcn_compiler_lkvm/x86_64/lib/libc.a(popcorn_malloc.o)
 .debug_macinfo
                0x000000000000001c        0x1 0x1 /home/ashwin/pcn_compiler_lkvm/x86_64/lib/libc.a(getrlimit.o)
 .debug_macinfo
                0x000000000000001d        0x1 0x1 /home/ashwin/pcn_compiler_lkvm/x86_64/lib/libc.a(ioctl.o)
 .debug_macinfo
                0x000000000000001e        0x1 0x1 /home/ashwin/pcn_compiler_lkvm/x86_64/lib/libc.a(mntent.o)
 .debug_macinfo
                0x000000000000001f        0x1 0x1 /home/ashwin/pcn_compiler_lkvm/x86_64/lib/libc.a(openpty.o)
 .debug_macinfo
                0x0000000000000020        0x1 0x1 /home/ashwin/pcn_compiler_lkvm/x86_64/lib/libc.a(realpath.o)
 .debug_macinfo
                0x0000000000000021        0x1 0x1 /home/ashwin/pcn_compiler_lkvm/x86_64/lib/libc.a(uname.o)
 .debug_macinfo
                0x0000000000000022        0x1 0x1 /home/ashwin/pcn_compiler_lkvm/x86_64/lib/libc.a(madvise.o)
 .debug_macinfo
                0x0000000000000023        0x1 0x1 /home/ashwin/pcn_compiler_lkvm/x86_64/lib/libc.a(mmap.o)
 .debug_macinfo
                0x0000000000000024        0x1 0x1 /home/ashwin/pcn_compiler_lkvm/x86_64/lib/libc.a(mprotect.o)
 .debug_macinfo
                0x0000000000000025        0x1 0x1 /home/ashwin/pcn_compiler_lkvm/x86_64/lib/libc.a(mremap.o)
 .debug_macinfo
                0x0000000000000026        0x1 0x1 /home/ashwin/pcn_compiler_lkvm/x86_64/lib/libc.a(munmap.o)
 .debug_macinfo
                0x0000000000000027        0x1 0x1 /home/ashwin/pcn_compiler_lkvm/x86_64/lib/libc.a(shm_open.o)
 .debug_macinfo
                0x0000000000000028        0x1 0x1 /home/ashwin/pcn_compiler_lkvm/x86_64/lib/libc.a(accept.o)
 .debug_macinfo
                0x0000000000000029        0x1 0x1 /home/ashwin/pcn_compiler_lkvm/x86_64/lib/libc.a(bind.o)
 .debug_macinfo
                0x000000000000002a        0x1 0x1 /home/ashwin/pcn_compiler_lkvm/x86_64/lib/libc.a(connect.o)
 .debug_macinfo
                0x000000000000002b        0x1 0x1 /home/ashwin/pcn_compiler_lkvm/x86_64/lib/libc.a(htonl.o)
 .debug_macinfo
                0x000000000000002c        0x1 0x1 /home/ashwin/pcn_compiler_lkvm/x86_64/lib/libc.a(htons.o)
 .debug_macinfo
                0x000000000000002d        0x1 0x1 /home/ashwin/pcn_compiler_lkvm/x86_64/lib/libc.a(inet_addr.o)
 .debug_macinfo
                0x000000000000002e        0x1 0x1 /home/ashwin/pcn_compiler_lkvm/x86_64/lib/libc.a(inet_aton.o)
 .debug_macinfo
                0x000000000000002f        0x1 0x1 /home/ashwin/pcn_compiler_lkvm/x86_64/lib/libc.a(listen.o)
 .debug_macinfo
                0x0000000000000030        0x1 0x1 /home/ashwin/pcn_compiler_lkvm/x86_64/lib/libc.a(ntohl.o)
 .debug_macinfo
                0x0000000000000031        0x1 0x1 /home/ashwin/pcn_compiler_lkvm/x86_64/lib/libc.a(ntohs.o)
 .debug_macinfo
                0x0000000000000032        0x1 0x1 /home/ashwin/pcn_compiler_lkvm/x86_64/lib/libc.a(recvfrom.o)
 .debug_macinfo
                0x0000000000000033        0x1 0x1 /home/ashwin/pcn_compiler_lkvm/x86_64/lib/libc.a(sendto.o)
 .debug_macinfo
                0x0000000000000034        0x1 0x1 /home/ashwin/pcn_compiler_lkvm/x86_64/lib/libc.a(shutdown.o)
 .debug_macinfo
                0x0000000000000035        0x1 0x1 /home/ashwin/pcn_compiler_lkvm/x86_64/lib/libc.a(socket.o)
 .debug_macinfo
                0x0000000000000036        0x1 0x1 /home/ashwin/pcn_compiler_lkvm/x86_64/lib/libc.a(execl.o)
 .debug_macinfo
                0x0000000000000037        0x1 0x1 /home/ashwin/pcn_compiler_lkvm/x86_64/lib/libc.a(execv.o)
 .debug_macinfo
                0x0000000000000038        0x1 0x1 /home/ashwin/pcn_compiler_lkvm/x86_64/lib/libc.a(execve.o)
 .debug_macinfo
                0x0000000000000039        0x1 0x1 /home/ashwin/pcn_compiler_lkvm/x86_64/lib/libc.a(fork.o)
 .debug_macinfo
                0x000000000000003a        0x1 0x1 /home/ashwin/pcn_compiler_lkvm/x86_64/lib/libc.a(waitpid.o)
 .debug_macinfo
                0x000000000000003b        0x1 0x1 /home/ashwin/pcn_compiler_lkvm/x86_64/lib/libc.a(poll.o)
 .debug_macinfo
                0x000000000000003c        0x1 0x1 /home/ashwin/pcn_compiler_lkvm/x86_64/lib/libc.a(select.o)
 .debug_macinfo
                0x000000000000003d        0x1 0x1 /home/ashwin/pcn_compiler_lkvm/x86_64/lib/libc.a(block.o)
 .debug_macinfo
                0x000000000000003e        0x1 0x1 /home/ashwin/pcn_compiler_lkvm/x86_64/lib/libc.a(raise.o)
 .debug_macinfo
                0x000000000000003f        0x1 0x1 /home/ashwin/pcn_compiler_lkvm/x86_64/lib/libc.a(signal.o)
 .debug_macinfo
                0x0000000000000040        0x1 0x1 /home/ashwin/pcn_compiler_lkvm/x86_64/lib/libc.a(sigrtmin.o)
 .debug_macinfo
                0x0000000000000041        0x1 0x1 /home/ashwin/pcn_compiler_lkvm/x86_64/lib/libc.a(chmod.o)
 .debug_macinfo
                0x0000000000000042        0x1 0x1 /home/ashwin/pcn_compiler_lkvm/x86_64/lib/libc.a(fstat.o)
 .debug_macinfo
                0x0000000000000043        0x1 0x1 /home/ashwin/pcn_compiler_lkvm/x86_64/lib/libc.a(lstat.o)
 .debug_macinfo
                0x0000000000000044        0x1 0x1 /home/ashwin/pcn_compiler_lkvm/x86_64/lib/libc.a(mkdir.o)
 .debug_macinfo
                0x0000000000000045        0x1 0x1 /home/ashwin/pcn_compiler_lkvm/x86_64/lib/libc.a(mknod.o)
 .debug_macinfo
                0x0000000000000046        0x1 0x1 /home/ashwin/pcn_compiler_lkvm/x86_64/lib/libc.a(stat.o)
 .debug_macinfo
                0x0000000000000047        0x1 0x1 /home/ashwin/pcn_compiler_lkvm/x86_64/lib/libc.a(statvfs.o)
 .debug_macinfo
                0x0000000000000048        0x1 0x1 /home/ashwin/pcn_compiler_lkvm/x86_64/lib/libc.a(utimensat.o)
 .debug_macinfo
                0x0000000000000049        0x1 0x1 /home/ashwin/pcn_compiler_lkvm/x86_64/lib/libc.a(dprintf.o)
 .debug_macinfo
                0x000000000000004a        0x1 0x1 /home/ashwin/pcn_compiler_lkvm/x86_64/lib/libc.a(fclose.o)
 .debug_macinfo
                0x000000000000004b        0x1 0x1 /home/ashwin/pcn_compiler_lkvm/x86_64/lib/libc.a(feof.o)
 .debug_macinfo
                0x000000000000004c        0x1 0x1 /home/ashwin/pcn_compiler_lkvm/x86_64/lib/libc.a(ferror.o)
 .debug_macinfo
                0x000000000000004d        0x1 0x1 /home/ashwin/pcn_compiler_lkvm/x86_64/lib/libc.a(fflush.o)
 .debug_macinfo
                0x000000000000004e        0x1 0x1 /home/ashwin/pcn_compiler_lkvm/x86_64/lib/libc.a(fgets.o)
 .debug_macinfo
                0x000000000000004f        0x1 0x1 /home/ashwin/pcn_compiler_lkvm/x86_64/lib/libc.a(fopen.o)
 .debug_macinfo
                0x0000000000000050        0x1 0x1 /home/ashwin/pcn_compiler_lkvm/x86_64/lib/libc.a(fprintf.o)
 .debug_macinfo
                0x0000000000000051        0x1 0x1 /home/ashwin/pcn_compiler_lkvm/x86_64/lib/libc.a(fputc.o)
 .debug_macinfo
                0x0000000000000052        0x1 0x1 /home/ashwin/pcn_compiler_lkvm/x86_64/lib/libc.a(fscanf.o)
 .debug_macinfo
                0x0000000000000053        0x1 0x1 /home/ashwin/pcn_compiler_lkvm/x86_64/lib/libc.a(fseek.o)
 .debug_macinfo
                0x0000000000000054        0x1 0x1 /home/ashwin/pcn_compiler_lkvm/x86_64/lib/libc.a(getline.o)
 .debug_macinfo
                0x0000000000000055        0x1 0x1 /home/ashwin/pcn_compiler_lkvm/x86_64/lib/libc.a(ofl.o)
 .debug_macinfo
                0x0000000000000056        0x1 0x1 /home/ashwin/pcn_compiler_lkvm/x86_64/lib/libc.a(perror.o)
 .debug_macinfo
                0x0000000000000057        0x1 0x1 /home/ashwin/pcn_compiler_lkvm/x86_64/lib/libc.a(printf.o)
 .debug_macinfo
                0x0000000000000058        0x1 0x1 /home/ashwin/pcn_compiler_lkvm/x86_64/lib/libc.a(putchar.o)
 .debug_macinfo
                0x0000000000000059        0x1 0x1 /home/ashwin/pcn_compiler_lkvm/x86_64/lib/libc.a(puts.o)
 .debug_macinfo
                0x000000000000005a        0x1 0x1 /home/ashwin/pcn_compiler_lkvm/x86_64/lib/libc.a(remove.o)
 .debug_macinfo
                0x000000000000005b        0x1 0x1 /home/ashwin/pcn_compiler_lkvm/x86_64/lib/libc.a(rename.o)
 .debug_macinfo
                0x000000000000005c        0x1 0x1 /home/ashwin/pcn_compiler_lkvm/x86_64/lib/libc.a(snprintf.o)
 .debug_macinfo
                0x000000000000005d        0x1 0x1 /home/ashwin/pcn_compiler_lkvm/x86_64/lib/libc.a(sprintf.o)
 .debug_macinfo
                0x000000000000005e        0x1 0x1 /home/ashwin/pcn_compiler_lkvm/x86_64/lib/libc.a(sscanf.o)
 .debug_macinfo
                0x000000000000005f        0x1 0x1 /home/ashwin/pcn_compiler_lkvm/x86_64/lib/libc.a(stderr.o)
 .debug_macinfo
                0x0000000000000060        0x1 0x1 /home/ashwin/pcn_compiler_lkvm/x86_64/lib/libc.a(stdout.o)
 .debug_macinfo
                0x0000000000000061        0x1 0x1 /home/ashwin/pcn_compiler_lkvm/x86_64/lib/libc.a(vdprintf.o)
 .debug_macinfo
                0x0000000000000062        0x1 0x1 /home/ashwin/pcn_compiler_lkvm/x86_64/lib/libc.a(vfprintf.o)
 .debug_macinfo
                0x0000000000000063        0x1 0x1 /home/ashwin/pcn_compiler_lkvm/x86_64/lib/libc.a(vfscanf.o)
 .debug_macinfo
                0x0000000000000064        0x1 0x1 /home/ashwin/pcn_compiler_lkvm/x86_64/lib/libc.a(vsnprintf.o)
 .debug_macinfo
                0x0000000000000065        0x1 0x1 /home/ashwin/pcn_compiler_lkvm/x86_64/lib/libc.a(vsprintf.o)
 .debug_macinfo
                0x0000000000000066        0x1 0x1 /home/ashwin/pcn_compiler_lkvm/x86_64/lib/libc.a(vsscanf.o)
 .debug_macinfo
                0x0000000000000067        0x1 0x1 /home/ashwin/pcn_compiler_lkvm/x86_64/lib/libc.a(atoi.o)
 .debug_macinfo
                0x0000000000000068        0x1 0x1 /home/ashwin/pcn_compiler_lkvm/x86_64/lib/libc.a(strtol.o)
 .debug_macinfo
                0x0000000000000069        0x1 0x1 /home/ashwin/pcn_compiler_lkvm/x86_64/lib/libc.a(memchr.o)
 .debug_macinfo
                0x000000000000006a        0x1 0x1 /home/ashwin/pcn_compiler_lkvm/x86_64/lib/libc.a(memcmp.o)
 .debug_macinfo
                0x000000000000006b        0x1 0x1 /home/ashwin/pcn_compiler_lkvm/x86_64/lib/libc.a(strcasestr.o)
 .debug_macinfo
                0x000000000000006c        0x1 0x1 /home/ashwin/pcn_compiler_lkvm/x86_64/lib/libc.a(strcat.o)
 .debug_macinfo
                0x000000000000006d        0x1 0x1 /home/ashwin/pcn_compiler_lkvm/x86_64/lib/libc.a(strchr.o)
 .debug_macinfo
                0x000000000000006e        0x1 0x1 /home/ashwin/pcn_compiler_lkvm/x86_64/lib/libc.a(strchrnul.o)
 .debug_macinfo
                0x000000000000006f        0x1 0x1 /home/ashwin/pcn_compiler_lkvm/x86_64/lib/libc.a(strcmp.o)
 .debug_macinfo
                0x0000000000000070        0x1 0x1 /home/ashwin/pcn_compiler_lkvm/x86_64/lib/libc.a(strcpy.o)
 .debug_macinfo
                0x0000000000000071        0x1 0x1 /home/ashwin/pcn_compiler_lkvm/x86_64/lib/libc.a(strdup.o)
 .debug_macinfo
                0x0000000000000072        0x1 0x1 /home/ashwin/pcn_compiler_lkvm/x86_64/lib/libc.a(strlen.o)
 .debug_macinfo
                0x0000000000000073        0x1 0x1 /home/ashwin/pcn_compiler_lkvm/x86_64/lib/libc.a(strncasecmp.o)
 .debug_macinfo
                0x0000000000000074        0x1 0x1 /home/ashwin/pcn_compiler_lkvm/x86_64/lib/libc.a(strncmp.o)
 .debug_macinfo
                0x0000000000000075        0x1 0x1 /home/ashwin/pcn_compiler_lkvm/x86_64/lib/libc.a(strncpy.o)
 .debug_macinfo
                0x0000000000000076        0x1 0x1 /home/ashwin/pcn_compiler_lkvm/x86_64/lib/libc.a(strndup.o)
 .debug_macinfo
                0x0000000000000077        0x1 0x1 /home/ashwin/pcn_compiler_lkvm/x86_64/lib/libc.a(strnlen.o)
 .debug_macinfo
                0x0000000000000078        0x1 0x1 /home/ashwin/pcn_compiler_lkvm/x86_64/lib/libc.a(strspn.o)
 .debug_macinfo
                0x0000000000000079        0x1 0x1 /home/ashwin/pcn_compiler_lkvm/x86_64/lib/libc.a(strstr.o)
 .debug_macinfo
                0x000000000000007a        0x1 0x1 /home/ashwin/pcn_compiler_lkvm/x86_64/lib/libc.a(strtok.o)
 .debug_macinfo
                0x000000000000007b        0x1 0x1 /home/ashwin/pcn_compiler_lkvm/x86_64/lib/libc.a(mkstemp.o)
 .debug_macinfo
                0x000000000000007c        0x1 0x1 /home/ashwin/pcn_compiler_lkvm/x86_64/lib/libc.a(tcgetattr.o)
 .debug_macinfo
                0x000000000000007d        0x1 0x1 /home/ashwin/pcn_compiler_lkvm/x86_64/lib/libc.a(tcsetattr.o)
 .debug_macinfo
                0x000000000000007e        0x1 0x1 /home/ashwin/pcn_compiler_lkvm/x86_64/lib/libc.a(__lock.o)
 .debug_macinfo
                0x000000000000007f        0x1 0x1 /home/ashwin/pcn_compiler_lkvm/x86_64/lib/libc.a(__syscall_cp.o)
 .debug_macinfo
                0x0000000000000080        0x1 0x1 /home/ashwin/pcn_compiler_lkvm/x86_64/lib/libc.a(__wait.o)
 .debug_macinfo
                0x0000000000000081        0x1 0x1 /home/ashwin/pcn_compiler_lkvm/x86_64/lib/libc.a(pthread_cleanup_push.o)
 .debug_macinfo
                0x0000000000000082        0x1 0x1 /home/ashwin/pcn_compiler_lkvm/x86_64/lib/libc.a(pthread_cond_init.o)
 .debug_macinfo
                0x0000000000000083        0x1 0x1 /home/ashwin/pcn_compiler_lkvm/x86_64/lib/libc.a(pthread_cond_signal.o)
 .debug_macinfo
                0x0000000000000084        0x1 0x1 /home/ashwin/pcn_compiler_lkvm/x86_64/lib/libc.a(pthread_cond_timedwait.o)
 .debug_macinfo
                0x0000000000000085        0x1 0x1 /home/ashwin/pcn_compiler_lkvm/x86_64/lib/libc.a(pthread_cond_wait.o)
 .debug_macinfo
                0x0000000000000086        0x1 0x1 /home/ashwin/pcn_compiler_lkvm/x86_64/lib/libc.a(pthread_create.o)
 .debug_macinfo
                0x0000000000000087        0x1 0x1 /home/ashwin/pcn_compiler_lkvm/x86_64/lib/libc.a(pthread_join.o)
 .debug_macinfo
                0x0000000000000088        0x1 0x1 /home/ashwin/pcn_compiler_lkvm/x86_64/lib/libc.a(pthread_kill.o)
 .debug_macinfo
                0x0000000000000089        0x1 0x1 /home/ashwin/pcn_compiler_lkvm/x86_64/lib/libc.a(pthread_mutex_init.o)
 .debug_macinfo
                0x000000000000008a        0x1 0x1 /home/ashwin/pcn_compiler_lkvm/x86_64/lib/libc.a(pthread_mutex_lock.o)
 .debug_macinfo
                0x000000000000008b        0x1 0x1 /home/ashwin/pcn_compiler_lkvm/x86_64/lib/libc.a(pthread_mutex_timedlock.o)
 .debug_macinfo
                0x000000000000008c        0x1 0x1 /home/ashwin/pcn_compiler_lkvm/x86_64/lib/libc.a(pthread_mutex_trylock.o)
 .debug_macinfo
                0x000000000000008d        0x1 0x1 /home/ashwin/pcn_compiler_lkvm/x86_64/lib/libc.a(pthread_mutex_unlock.o)
 .debug_macinfo
                0x000000000000008e        0x1 0x1 /home/ashwin/pcn_compiler_lkvm/x86_64/lib/libc.a(pthread_rwlock_rdlock.o)
 .debug_macinfo
                0x000000000000008f        0x1 0x1 /home/ashwin/pcn_compiler_lkvm/x86_64/lib/libc.a(pthread_rwlock_timedrdlock.o)
 .debug_macinfo
                0x0000000000000090        0x1 0x1 /home/ashwin/pcn_compiler_lkvm/x86_64/lib/libc.a(pthread_rwlock_tryrdlock.o)
 .debug_macinfo
                0x0000000000000091        0x1 0x1 /home/ashwin/pcn_compiler_lkvm/x86_64/lib/libc.a(pthread_rwlock_unlock.o)
 .debug_macinfo
                0x0000000000000092        0x1 0x1 /home/ashwin/pcn_compiler_lkvm/x86_64/lib/libc.a(pthread_rwlock_wrlock.o)
 .debug_macinfo
                0x0000000000000093        0x1 0x1 /home/ashwin/pcn_compiler_lkvm/x86_64/lib/libc.a(pthread_setcancelstate.o)
 .debug_macinfo
                0x0000000000000094        0x1 0x1 /home/ashwin/pcn_compiler_lkvm/x86_64/lib/libc.a(pthread_testcancel.o)
 .debug_macinfo
                0x0000000000000095        0x1 0x1 /home/ashwin/pcn_compiler_lkvm/x86_64/lib/libc.a(vmlock.o)
 .debug_macinfo
                0x0000000000000096        0x1 0x1 /home/ashwin/pcn_compiler_lkvm/x86_64/lib/libc.a(gmtime.o)
 .debug_macinfo
                0x0000000000000097        0x1 0x1 /home/ashwin/pcn_compiler_lkvm/x86_64/lib/libc.a(gmtime_r.o)
 .debug_macinfo
                0x0000000000000098        0x1 0x1 /home/ashwin/pcn_compiler_lkvm/x86_64/lib/libc.a(time.o)
 .debug_macinfo
                0x0000000000000099        0x1 0x1 /home/ashwin/pcn_compiler_lkvm/x86_64/lib/libc.a(_exit.o)
 .debug_macinfo
                0x000000000000009a        0x1 0x1 /home/ashwin/pcn_compiler_lkvm/x86_64/lib/libc.a(access.o)
 .debug_macinfo
                0x000000000000009b        0x1 0x1 /home/ashwin/pcn_compiler_lkvm/x86_64/lib/libc.a(close.o)
 .debug_macinfo
                0x000000000000009c        0x1 0x1 /home/ashwin/pcn_compiler_lkvm/x86_64/lib/libc.a(fdatasync.o)
 .debug_macinfo
                0x000000000000009d        0x1 0x1 /home/ashwin/pcn_compiler_lkvm/x86_64/lib/libc.a(fsync.o)
 .debug_macinfo
                0x000000000000009e        0x1 0x1 /home/ashwin/pcn_compiler_lkvm/x86_64/lib/libc.a(ftruncate.o)
 .debug_macinfo
                0x000000000000009f        0x1 0x1 /home/ashwin/pcn_compiler_lkvm/x86_64/lib/libc.a(getpid.o)
 .debug_macinfo
                0x00000000000000a0        0x1 0x1 /home/ashwin/pcn_compiler_lkvm/x86_64/lib/libc.a(isatty.o)
 .debug_macinfo
                0x00000000000000a1        0x1 0x1 /home/ashwin/pcn_compiler_lkvm/x86_64/lib/libc.a(lchown.o)
 .debug_macinfo
                0x00000000000000a2        0x1 0x1 /home/ashwin/pcn_compiler_lkvm/x86_64/lib/libc.a(link.o)
 .debug_macinfo
                0x00000000000000a3        0x1 0x1 /home/ashwin/pcn_compiler_lkvm/x86_64/lib/libc.a(lseek.o)
 .debug_macinfo
                0x00000000000000a4        0x1 0x1 /home/ashwin/pcn_compiler_lkvm/x86_64/lib/libc.a(pread.o)
 .debug_macinfo
                0x00000000000000a5        0x1 0x1 /home/ashwin/pcn_compiler_lkvm/x86_64/lib/libc.a(preadv.o)
 .debug_macinfo
                0x00000000000000a6        0x1 0x1 /home/ashwin/pcn_compiler_lkvm/x86_64/lib/libc.a(pwrite.o)
 .debug_macinfo
                0x00000000000000a7        0x1 0x1 /home/ashwin/pcn_compiler_lkvm/x86_64/lib/libc.a(pwritev.o)
 .debug_macinfo
                0x00000000000000a8        0x1 0x1 /home/ashwin/pcn_compiler_lkvm/x86_64/lib/libc.a(read.o)
 .debug_macinfo
                0x00000000000000a9        0x1 0x1 /home/ashwin/pcn_compiler_lkvm/x86_64/lib/libc.a(readlink.o)
 .debug_macinfo
                0x00000000000000aa        0x1 0x1 /home/ashwin/pcn_compiler_lkvm/x86_64/lib/libc.a(readv.o)
 .debug_macinfo
                0x00000000000000ab        0x1 0x1 /home/ashwin/pcn_compiler_lkvm/x86_64/lib/libc.a(sleep.o)
 .debug_macinfo
                0x00000000000000ac        0x1 0x1 /home/ashwin/pcn_compiler_lkvm/x86_64/lib/libc.a(symlink.o)
 .debug_macinfo
                0x00000000000000ad        0x1 0x1 /home/ashwin/pcn_compiler_lkvm/x86_64/lib/libc.a(truncate.o)
 .debug_macinfo
                0x00000000000000ae        0x1 0x1 /home/ashwin/pcn_compiler_lkvm/x86_64/lib/libc.a(unlink.o)
 .debug_macinfo
                0x00000000000000af        0x1 0x1 /home/ashwin/pcn_compiler_lkvm/x86_64/lib/libc.a(usleep.o)
 .debug_macinfo
                0x00000000000000b0        0x1 0x1 /home/ashwin/pcn_compiler_lkvm/x86_64/lib/libc.a(write.o)
 .debug_macinfo
                0x00000000000000b1        0x1 0x1 /home/ashwin/pcn_compiler_lkvm/x86_64/lib/libc.a(writev.o)
 .debug_macinfo
                0x00000000000000b2        0x1 0x1 /home/ashwin/pcn_compiler_lkvm/x86_64/lib/libc.a(tolower.o)
 .debug_macinfo
                0x00000000000000b3        0x1 0x1 /home/ashwin/pcn_compiler_lkvm/x86_64/lib/libc.a(__environ.o)
 .debug_macinfo
                0x00000000000000b4        0x1 0x1 /home/ashwin/pcn_compiler_lkvm/x86_64/lib/libc.a(__init_tls.o)
 .debug_macinfo
                0x00000000000000b5        0x1 0x1 /home/ashwin/pcn_compiler_lkvm/x86_64/lib/libc.a(platform.o)
 .debug_macinfo
                0x00000000000000b6        0x1 0x1 /home/ashwin/pcn_compiler_lkvm/x86_64/lib/libc.a(_Exit.o)
 .debug_macinfo
                0x00000000000000b7        0x1 0x1 /home/ashwin/pcn_compiler_lkvm/x86_64/lib/libc.a(floatscan.o)
 .debug_macinfo
                0x00000000000000b8        0x1 0x1 /home/ashwin/pcn_compiler_lkvm/x86_64/lib/libc.a(intscan.o)
 .debug_macinfo
                0x00000000000000b9        0x1 0x1 /home/ashwin/pcn_compiler_lkvm/x86_64/lib/libc.a(procfdname.o)
 .debug_macinfo
                0x00000000000000ba        0x1 0x1 /home/ashwin/pcn_compiler_lkvm/x86_64/lib/libc.a(shgetc.o)
 .debug_macinfo
                0x00000000000000bb        0x1 0x1 /home/ashwin/pcn_compiler_lkvm/x86_64/lib/libc.a(expand_heap.o)
 .debug_macinfo
                0x00000000000000bc        0x1 0x1 /home/ashwin/pcn_compiler_lkvm/x86_64/lib/libc.a(__fpclassifyl.o)
 .debug_macinfo
                0x00000000000000bd        0x1 0x1 /home/ashwin/pcn_compiler_lkvm/x86_64/lib/libc.a(__signbitl.o)
 .debug_macinfo
                0x00000000000000be        0x1 0x1 /home/ashwin/pcn_compiler_lkvm/x86_64/lib/libc.a(copysignl.o)
 .debug_macinfo
                0x00000000000000bf        0x1 0x1 /home/ashwin/pcn_compiler_lkvm/x86_64/lib/libc.a(frexpl.o)
 .debug_macinfo
                0x00000000000000c0        0x1 0x1 /home/ashwin/pcn_compiler_lkvm/x86_64/lib/libc.a(scalbn.o)
 .debug_macinfo
                0x00000000000000c1        0x1 0x1 /home/ashwin/pcn_compiler_lkvm/x86_64/lib/libc.a(scalbnl.o)
 .debug_macinfo
                0x00000000000000c2        0x1 0x1 /home/ashwin/pcn_compiler_lkvm/x86_64/lib/libc.a(mbrtowc.o)
 .debug_macinfo
                0x00000000000000c3        0x1 0x1 /home/ashwin/pcn_compiler_lkvm/x86_64/lib/libc.a(mbsinit.o)
 .debug_macinfo
                0x00000000000000c4        0x1 0x1 /home/ashwin/pcn_compiler_lkvm/x86_64/lib/libc.a(wctomb.o)
 .debug_macinfo
                0x00000000000000c5        0x1 0x1 /home/ashwin/pcn_compiler_lkvm/x86_64/lib/libc.a(sigaction.o)
 .debug_macinfo
                0x00000000000000c6        0x1 0x1 /home/ashwin/pcn_compiler_lkvm/x86_64/lib/libc.a(__fdopen.o)
 .debug_macinfo
                0x00000000000000c7        0x1 0x1 /home/ashwin/pcn_compiler_lkvm/x86_64/lib/libc.a(__fmodeflags.o)
 .debug_macinfo
                0x00000000000000c8        0x1 0x1 /home/ashwin/pcn_compiler_lkvm/x86_64/lib/libc.a(__lockfile.o)
 .debug_macinfo
                0x00000000000000c9        0x1 0x1 /home/ashwin/pcn_compiler_lkvm/x86_64/lib/libc.a(__overflow.o)
 .debug_macinfo
                0x00000000000000ca        0x1 0x1 /home/ashwin/pcn_compiler_lkvm/x86_64/lib/libc.a(__stdio_close.o)
 .debug_macinfo
                0x00000000000000cb        0x1 0x1 /home/ashwin/pcn_compiler_lkvm/x86_64/lib/libc.a(__stdio_read.o)
 .debug_macinfo
                0x00000000000000cc        0x1 0x1 /home/ashwin/pcn_compiler_lkvm/x86_64/lib/libc.a(__stdio_seek.o)
 .debug_macinfo
                0x00000000000000cd        0x1 0x1 /home/ashwin/pcn_compiler_lkvm/x86_64/lib/libc.a(__stdio_write.o)
 .debug_macinfo
                0x00000000000000ce        0x1 0x1 /home/ashwin/pcn_compiler_lkvm/x86_64/lib/libc.a(__stdout_write.o)
 .debug_macinfo
                0x00000000000000cf        0x1 0x1 /home/ashwin/pcn_compiler_lkvm/x86_64/lib/libc.a(__string_read.o)
 .debug_macinfo
                0x00000000000000d0        0x1 0x1 /home/ashwin/pcn_compiler_lkvm/x86_64/lib/libc.a(__towrite.o)
 .debug_macinfo
                0x00000000000000d1        0x1 0x1 /home/ashwin/pcn_compiler_lkvm/x86_64/lib/libc.a(__uflow.o)
 .debug_macinfo
                0x00000000000000d2        0x1 0x1 /home/ashwin/pcn_compiler_lkvm/x86_64/lib/libc.a(fputs.o)
 .debug_macinfo
                0x00000000000000d3        0x1 0x1 /home/ashwin/pcn_compiler_lkvm/x86_64/lib/libc.a(fwrite.o)
 .debug_macinfo
                0x00000000000000d4        0x1 0x1 /home/ashwin/pcn_compiler_lkvm/x86_64/lib/libc.a(getdelim.o)
 .debug_macinfo
                0x00000000000000d5        0x1 0x1 /home/ashwin/pcn_compiler_lkvm/x86_64/lib/libc.a(ofl_add.o)
 .debug_macinfo
                0x00000000000000d6        0x1 0x1 /home/ashwin/pcn_compiler_lkvm/x86_64/lib/libc.a(stpcpy.o)
 .debug_macinfo
                0x00000000000000d7        0x1 0x1 /home/ashwin/pcn_compiler_lkvm/x86_64/lib/libc.a(stpncpy.o)
 .debug_macinfo
                0x00000000000000d8        0x1 0x1 /home/ashwin/pcn_compiler_lkvm/x86_64/lib/libc.a(strcspn.o)
 .debug_macinfo
                0x00000000000000d9        0x1 0x1 /home/ashwin/pcn_compiler_lkvm/x86_64/lib/libc.a(mkostemps.o)
 .debug_macinfo
                0x00000000000000da        0x1 0x1 /home/ashwin/pcn_compiler_lkvm/x86_64/lib/libc.a(__timedwait.o)
 .debug_macinfo
                0x00000000000000db        0x1 0x1 /home/ashwin/pcn_compiler_lkvm/x86_64/lib/libc.a(pthread_rwlock_timedwrlock.o)
 .debug_macinfo
                0x00000000000000dc        0x1 0x1 /home/ashwin/pcn_compiler_lkvm/x86_64/lib/libc.a(pthread_rwlock_trywrlock.o)
 .debug_macinfo
                0x00000000000000dd        0x1 0x1 /home/ashwin/pcn_compiler_lkvm/x86_64/lib/libc.a(__secs_to_tm.o)
 .debug_macinfo
                0x00000000000000de        0x1 0x1 /home/ashwin/pcn_compiler_lkvm/x86_64/lib/libc.a(__tz.o)
 .debug_macinfo
                0x00000000000000df        0x1 0x1 /home/ashwin/pcn_compiler_lkvm/x86_64/lib/libc.a(__year_to_secs.o)
 .debug_macinfo
                0x00000000000000e0        0x1 0x1 /home/ashwin/pcn_compiler_lkvm/x86_64/lib/libc.a(clock_gettime.o)
 .debug_macinfo
                0x00000000000000e1        0x1 0x1 /home/ashwin/pcn_compiler_lkvm/x86_64/lib/libc.a(nanosleep.o)
 .debug_macinfo
                0x00000000000000e2        0x1 0x1 /home/ashwin/pcn_compiler_lkvm/x86_64/lib/libc.a(internal.o)
 .debug_macinfo
                0x00000000000000e3        0x1 0x1 /home/ashwin/pcn_compiler_lkvm/x86_64/lib/libc.a(wcrtomb.o)
 .debug_macinfo
                0x00000000000000e4        0x1 0x1 /home/ashwin/pcn_compiler_lkvm/x86_64/lib/libc.a(__stdio_exit.o)
 .debug_macinfo
                0x00000000000000e5        0x1 0x1 /home/ashwin/pcn_compiler_lkvm/x86_64/lib/libc.a(__toread.o)
 .debug_macinfo
                0x00000000000000e6        0x1 0x1 /home/ashwin/pcn_compiler_lkvm/x86_64/lib/libc.a(__randname.o)
 .debug_macinfo
                0x00000000000000e7        0x1 0x1 /home/ashwin/pcn_compiler_lkvm/x86_64/lib/libc.a(__map_file.o)
 .debug_macinfo
                0x00000000000000e8        0x1 0x1 /home/ashwin/pcn_compiler_lkvm/x86_64/lib/libc.a(__month_to_secs.o)

.debug_frame    0x0000000000000000     0x4ee8
 .debug_frame   0x0000000000000000       0x38 0x8 /home/ashwin/pcn_compiler_lkvm/x86_64/lib/crt1.o
 .debug_frame   0x0000000000000038       0x50 0x8 /home/ashwin/pcn_compiler_lkvm/x86_64/lib/libc.a(sysconf.o)
 .debug_frame   0x0000000000000088       0x48 0x8 /home/ashwin/pcn_compiler_lkvm/x86_64/lib/libc.a(closedir.o)
 .debug_frame   0x00000000000000d0       0x30 0x8 /home/ashwin/pcn_compiler_lkvm/x86_64/lib/libc.a(dirfd.o)
 .debug_frame   0x0000000000000100       0x48 0x8 /home/ashwin/pcn_compiler_lkvm/x86_64/lib/libc.a(opendir.o)
 .debug_frame   0x0000000000000148       0x40 0x8 /home/ashwin/pcn_compiler_lkvm/x86_64/lib/libc.a(readdir.o)
 .debug_frame   0x0000000000000188       0x68 0x8 /home/ashwin/pcn_compiler_lkvm/x86_64/lib/libc.a(readdir_r.o)
 .debug_frame   0x00000000000001f0       0x48 0x8 /home/ashwin/pcn_compiler_lkvm/x86_64/lib/libc.a(seekdir.o)
 .debug_frame   0x0000000000000238       0xe8 0x8 /home/ashwin/pcn_compiler_lkvm/x86_64/lib/libc.a(__libc_start_main.o)
 .debug_frame   0x0000000000000320       0x60 0x8 /home/ashwin/pcn_compiler_lkvm/x86_64/lib/libc.a(getenv.o)
 .debug_frame   0x0000000000000380       0x30 0x8 /home/ashwin/pcn_compiler_lkvm/x86_64/lib/libc.a(__errno_location.o)
 .debug_frame   0x00000000000003b0       0x48 0x8 /home/ashwin/pcn_compiler_lkvm/x86_64/lib/libc.a(strerror.o)
 .debug_frame   0x00000000000003f8       0xc0 0x8 /home/ashwin/pcn_compiler_lkvm/x86_64/lib/libc.a(atexit.o)
 .debug_frame   0x00000000000004b8       0x80 0x8 /home/ashwin/pcn_compiler_lkvm/x86_64/lib/libc.a(exit.o)
 .debug_frame   0x0000000000000538       0x40 0x8 /home/ashwin/pcn_compiler_lkvm/x86_64/lib/libc.a(fcntl.o)
 .debug_frame   0x0000000000000578       0x48 0x8 /home/ashwin/pcn_compiler_lkvm/x86_64/lib/libc.a(open.o)
 .debug_frame   0x00000000000005c0       0x38 0x8 /home/ashwin/pcn_compiler_lkvm/x86_64/lib/libc.a(syscall_ret.o)
 .debug_frame   0x00000000000005f8       0x30 0x8 /home/ashwin/pcn_compiler_lkvm/x86_64/lib/libc.a(getpagesize.o)
 .debug_frame   0x0000000000000628       0x90 0x8 /home/ashwin/pcn_compiler_lkvm/x86_64/lib/libc.a(epoll.o)
 .debug_frame   0x00000000000006b8       0x70 0x8 /home/ashwin/pcn_compiler_lkvm/x86_64/lib/libc.a(eventfd.o)
 .debug_frame   0x0000000000000728       0x38 0x8 /home/ashwin/pcn_compiler_lkvm/x86_64/lib/libc.a(prctl.o)
 .debug_frame   0x0000000000000760       0x30 0x8 /home/ashwin/pcn_compiler_lkvm/x86_64/lib/libc.a(sysinfo.o)
 .debug_frame   0x0000000000000790       0x60 0x8 /home/ashwin/pcn_compiler_lkvm/x86_64/lib/libc.a(__lctrans.o)
 .debug_frame   0x00000000000007f0       0xa8 0x8 /home/ashwin/pcn_compiler_lkvm/x86_64/lib/libc.a(calloc.o)
 .debug_frame   0x0000000000000898       0x50 0x8 /home/ashwin/pcn_compiler_lkvm/x86_64/lib/libc.a(lite_malloc.o)
 .debug_frame   0x00000000000008e8      0x200 0x8 /home/ashwin/pcn_compiler_lkvm/x86_64/lib/libc.a(malloc.o)
 .debug_frame   0x0000000000000ae8      0x298 0x8 /home/ashwin/pcn_compiler_lkvm/x86_64/lib/libc.a(popcorn_malloc.o)
 .debug_frame   0x0000000000000d80       0x50 0x8 /home/ashwin/pcn_compiler_lkvm/x86_64/lib/libc.a(getrlimit.o)
 .debug_frame   0x0000000000000dd0       0x38 0x8 /home/ashwin/pcn_compiler_lkvm/x86_64/lib/libc.a(ioctl.o)
 .debug_frame   0x0000000000000e08      0x128 0x8 /home/ashwin/pcn_compiler_lkvm/x86_64/lib/libc.a(mntent.o)
 .debug_frame   0x0000000000000f30       0x70 0x8 /home/ashwin/pcn_compiler_lkvm/x86_64/lib/libc.a(openpty.o)
 .debug_frame   0x0000000000000fa0       0x60 0x8 /home/ashwin/pcn_compiler_lkvm/x86_64/lib/libc.a(realpath.o)
 .debug_frame   0x0000000000001000       0x30 0x8 /home/ashwin/pcn_compiler_lkvm/x86_64/lib/libc.a(uname.o)
 .debug_frame   0x0000000000001030       0x30 0x8 /home/ashwin/pcn_compiler_lkvm/x86_64/lib/libc.a(madvise.o)
 .debug_frame   0x0000000000001060       0x88 0x8 /home/ashwin/pcn_compiler_lkvm/x86_64/lib/libc.a(mmap.o)
 .debug_frame   0x00000000000010e8       0x30 0x8 /home/ashwin/pcn_compiler_lkvm/x86_64/lib/libc.a(mprotect.o)
 .debug_frame   0x0000000000001118       0x78 0x8 /home/ashwin/pcn_compiler_lkvm/x86_64/lib/libc.a(mremap.o)
 .debug_frame   0x0000000000001190       0x60 0x8 /home/ashwin/pcn_compiler_lkvm/x86_64/lib/libc.a(munmap.o)
 .debug_frame   0x00000000000011f0       0xb0 0x8 /home/ashwin/pcn_compiler_lkvm/x86_64/lib/libc.a(shm_open.o)
 .debug_frame   0x00000000000012a0       0x38 0x8 /home/ashwin/pcn_compiler_lkvm/x86_64/lib/libc.a(accept.o)
 .debug_frame   0x00000000000012d8       0x30 0x8 /home/ashwin/pcn_compiler_lkvm/x86_64/lib/libc.a(bind.o)
 .debug_frame   0x0000000000001308       0x38 0x8 /home/ashwin/pcn_compiler_lkvm/x86_64/lib/libc.a(connect.o)
 .debug_frame   0x0000000000001340       0x30 0x8 /home/ashwin/pcn_compiler_lkvm/x86_64/lib/libc.a(htonl.o)
 .debug_frame   0x0000000000001370       0x30 0x8 /home/ashwin/pcn_compiler_lkvm/x86_64/lib/libc.a(htons.o)
 .debug_frame   0x00000000000013a0       0x40 0x8 /home/ashwin/pcn_compiler_lkvm/x86_64/lib/libc.a(inet_addr.o)
 .debug_frame   0x00000000000013e0       0x68 0x8 /home/ashwin/pcn_compiler_lkvm/x86_64/lib/libc.a(inet_aton.o)
 .debug_frame   0x0000000000001448       0x30 0x8 /home/ashwin/pcn_compiler_lkvm/x86_64/lib/libc.a(listen.o)
 .debug_frame   0x0000000000001478       0x30 0x8 /home/ashwin/pcn_compiler_lkvm/x86_64/lib/libc.a(ntohl.o)
 .debug_frame   0x00000000000014a8       0x30 0x8 /home/ashwin/pcn_compiler_lkvm/x86_64/lib/libc.a(ntohs.o)
 .debug_frame   0x00000000000014d8       0x38 0x8 /home/ashwin/pcn_compiler_lkvm/x86_64/lib/libc.a(recvfrom.o)
 .debug_frame   0x0000000000001510       0x38 0x8 /home/ashwin/pcn_compiler_lkvm/x86_64/lib/libc.a(sendto.o)
 .debug_frame   0x0000000000001548       0x30 0x8 /home/ashwin/pcn_compiler_lkvm/x86_64/lib/libc.a(shutdown.o)
 .debug_frame   0x0000000000001578       0x60 0x8 /home/ashwin/pcn_compiler_lkvm/x86_64/lib/libc.a(socket.o)
 .debug_frame   0x00000000000015d8       0x48 0x8 /home/ashwin/pcn_compiler_lkvm/x86_64/lib/libc.a(execl.o)
 .debug_frame   0x0000000000001620       0x30 0x8 /home/ashwin/pcn_compiler_lkvm/x86_64/lib/libc.a(execv.o)
 .debug_frame   0x0000000000001650       0x30 0x8 /home/ashwin/pcn_compiler_lkvm/x86_64/lib/libc.a(execve.o)
 .debug_frame   0x0000000000001680       0x68 0x8 /home/ashwin/pcn_compiler_lkvm/x86_64/lib/libc.a(fork.o)
 .debug_frame   0x00000000000016e8       0x38 0x8 /home/ashwin/pcn_compiler_lkvm/x86_64/lib/libc.a(waitpid.o)
 .debug_frame   0x0000000000001720       0x38 0x8 /home/ashwin/pcn_compiler_lkvm/x86_64/lib/libc.a(poll.o)
 .debug_frame   0x0000000000001758       0x38 0x8 /home/ashwin/pcn_compiler_lkvm/x86_64/lib/libc.a(select.o)
 .debug_frame   0x0000000000001790       0x60 0x8 /home/ashwin/pcn_compiler_lkvm/x86_64/lib/libc.a(block.o)
 .debug_frame   0x00000000000017f0       0x48 0x8 /home/ashwin/pcn_compiler_lkvm/x86_64/lib/libc.a(raise.o)
 .debug_frame   0x0000000000001838       0x50 0x8 /home/ashwin/pcn_compiler_lkvm/x86_64/lib/libc.a(signal.o)
 .debug_frame   0x0000000000001888       0x30 0x8 /home/ashwin/pcn_compiler_lkvm/x86_64/lib/libc.a(sigrtmin.o)
 .debug_frame   0x00000000000018b8       0x30 0x8 /home/ashwin/pcn_compiler_lkvm/x86_64/lib/libc.a(chmod.o)
 .debug_frame   0x00000000000018e8       0x88 0x8 /home/ashwin/pcn_compiler_lkvm/x86_64/lib/libc.a(fstat.o)
 .debug_frame   0x0000000000001970       0x50 0x8 /home/ashwin/pcn_compiler_lkvm/x86_64/lib/libc.a(lstat.o)
 .debug_frame   0x00000000000019c0       0x30 0x8 /home/ashwin/pcn_compiler_lkvm/x86_64/lib/libc.a(mkdir.o)
 .debug_frame   0x00000000000019f0       0x30 0x8 /home/ashwin/pcn_compiler_lkvm/x86_64/lib/libc.a(mknod.o)
 .debug_frame   0x0000000000001a20       0x48 0x8 /home/ashwin/pcn_compiler_lkvm/x86_64/lib/libc.a(stat.o)
 .debug_frame   0x0000000000001a68       0xa8 0x8 /home/ashwin/pcn_compiler_lkvm/x86_64/lib/libc.a(statvfs.o)
 .debug_frame   0x0000000000001b10       0x40 0x8 /home/ashwin/pcn_compiler_lkvm/x86_64/lib/libc.a(utimensat.o)
 .debug_frame   0x0000000000001b50       0x38 0x8 /home/ashwin/pcn_compiler_lkvm/x86_64/lib/libc.a(dprintf.o)
 .debug_frame   0x0000000000001b88       0x78 0x8 /home/ashwin/pcn_compiler_lkvm/x86_64/lib/libc.a(fclose.o)
 .debug_frame   0x0000000000001c00       0x48 0x8 /home/ashwin/pcn_compiler_lkvm/x86_64/lib/libc.a(feof.o)
 .debug_frame   0x0000000000001c48       0x48 0x8 /home/ashwin/pcn_compiler_lkvm/x86_64/lib/libc.a(ferror.o)
 .debug_frame   0x0000000000001c90       0x58 0x8 /home/ashwin/pcn_compiler_lkvm/x86_64/lib/libc.a(fflush.o)
 .debug_frame   0x0000000000001ce8       0x68 0x8 /home/ashwin/pcn_compiler_lkvm/x86_64/lib/libc.a(fgets.o)
 .debug_frame   0x0000000000001d50       0x50 0x8 /home/ashwin/pcn_compiler_lkvm/x86_64/lib/libc.a(fopen.o)
 .debug_frame   0x0000000000001da0       0x38 0x8 /home/ashwin/pcn_compiler_lkvm/x86_64/lib/libc.a(fprintf.o)
 .debug_frame   0x0000000000001dd8       0x50 0x8 /home/ashwin/pcn_compiler_lkvm/x86_64/lib/libc.a(fputc.o)
 .debug_frame   0x0000000000001e28       0x38 0x8 /home/ashwin/pcn_compiler_lkvm/x86_64/lib/libc.a(fscanf.o)
 .debug_frame   0x0000000000001e60       0xb0 0x8 /home/ashwin/pcn_compiler_lkvm/x86_64/lib/libc.a(fseek.o)
 .debug_frame   0x0000000000001f10       0x30 0x8 /home/ashwin/pcn_compiler_lkvm/x86_64/lib/libc.a(getline.o)
 .debug_frame   0x0000000000001f40       0x50 0x8 /home/ashwin/pcn_compiler_lkvm/x86_64/lib/libc.a(ofl.o)
 .debug_frame   0x0000000000001f90       0x58 0x8 /home/ashwin/pcn_compiler_lkvm/x86_64/lib/libc.a(perror.o)
 .debug_frame   0x0000000000001fe8       0x38 0x8 /home/ashwin/pcn_compiler_lkvm/x86_64/lib/libc.a(printf.o)
 .debug_frame   0x0000000000002020       0x30 0x8 /home/ashwin/pcn_compiler_lkvm/x86_64/lib/libc.a(putchar.o)
 .debug_frame   0x0000000000002050       0x50 0x8 /home/ashwin/pcn_compiler_lkvm/x86_64/lib/libc.a(puts.o)
 .debug_frame   0x00000000000020a0       0x30 0x8 /home/ashwin/pcn_compiler_lkvm/x86_64/lib/libc.a(remove.o)
 .debug_frame   0x00000000000020d0       0x30 0x8 /home/ashwin/pcn_compiler_lkvm/x86_64/lib/libc.a(rename.o)
 .debug_frame   0x0000000000002100       0x38 0x8 /home/ashwin/pcn_compiler_lkvm/x86_64/lib/libc.a(snprintf.o)
 .debug_frame   0x0000000000002138       0x38 0x8 /home/ashwin/pcn_compiler_lkvm/x86_64/lib/libc.a(sprintf.o)
 .debug_frame   0x0000000000002170       0x38 0x8 /home/ashwin/pcn_compiler_lkvm/x86_64/lib/libc.a(sscanf.o)
 .debug_frame   0x00000000000021a8       0x70 0x8 /home/ashwin/pcn_compiler_lkvm/x86_64/lib/libc.a(vdprintf.o)
 .debug_frame   0x0000000000002218      0x130 0x8 /home/ashwin/pcn_compiler_lkvm/x86_64/lib/libc.a(vfprintf.o)
 .debug_frame   0x0000000000002348       0x70 0x8 /home/ashwin/pcn_compiler_lkvm/x86_64/lib/libc.a(vfscanf.o)
 .debug_frame   0x00000000000023b8       0xb8 0x8 /home/ashwin/pcn_compiler_lkvm/x86_64/lib/libc.a(vsnprintf.o)
 .debug_frame   0x0000000000002470       0x30 0x8 /home/ashwin/pcn_compiler_lkvm/x86_64/lib/libc.a(vsprintf.o)
 .debug_frame   0x00000000000024a0       0x70 0x8 /home/ashwin/pcn_compiler_lkvm/x86_64/lib/libc.a(vsscanf.o)
 .debug_frame   0x0000000000002510       0x30 0x8 /home/ashwin/pcn_compiler_lkvm/x86_64/lib/libc.a(atoi.o)
 .debug_frame   0x0000000000002540       0xf0 0x8 /home/ashwin/pcn_compiler_lkvm/x86_64/lib/libc.a(strtol.o)
 .debug_frame   0x0000000000002630       0x30 0x8 /home/ashwin/pcn_compiler_lkvm/x86_64/lib/libc.a(memchr.o)
 .debug_frame   0x0000000000002660       0x30 0x8 /home/ashwin/pcn_compiler_lkvm/x86_64/lib/libc.a(memcmp.o)
 .debug_frame   0x0000000000002690       0x48 0x8 /home/ashwin/pcn_compiler_lkvm/x86_64/lib/libc.a(strcasestr.o)
 .debug_frame   0x00000000000026d8       0x48 0x8 /home/ashwin/pcn_compiler_lkvm/x86_64/lib/libc.a(strcat.o)
 .debug_frame   0x0000000000002720       0x38 0x8 /home/ashwin/pcn_compiler_lkvm/x86_64/lib/libc.a(strchr.o)
 .debug_frame   0x0000000000002758       0x40 0x8 /home/ashwin/pcn_compiler_lkvm/x86_64/lib/libc.a(strchrnul.o)
 .debug_frame   0x0000000000002798       0x30 0x8 /home/ashwin/pcn_compiler_lkvm/x86_64/lib/libc.a(strcmp.o)
 .debug_frame   0x00000000000027c8       0x38 0x8 /home/ashwin/pcn_compiler_lkvm/x86_64/lib/libc.a(strcpy.o)
 .debug_frame   0x0000000000002800       0x58 0x8 /home/ashwin/pcn_compiler_lkvm/x86_64/lib/libc.a(strdup.o)
 .debug_frame   0x0000000000002858       0x30 0x8 /home/ashwin/pcn_compiler_lkvm/x86_64/lib/libc.a(strlen.o)
 .debug_frame   0x0000000000002888       0x98 0x8 /home/ashwin/pcn_compiler_lkvm/x86_64/lib/libc.a(strncasecmp.o)
 .debug_frame   0x0000000000002920       0x30 0x8 /home/ashwin/pcn_compiler_lkvm/x86_64/lib/libc.a(strncmp.o)
 .debug_frame   0x0000000000002950       0x38 0x8 /home/ashwin/pcn_compiler_lkvm/x86_64/lib/libc.a(strncpy.o)
 .debug_frame   0x0000000000002988       0x48 0x8 /home/ashwin/pcn_compiler_lkvm/x86_64/lib/libc.a(strndup.o)
 .debug_frame   0x00000000000029d0       0x48 0x8 /home/ashwin/pcn_compiler_lkvm/x86_64/lib/libc.a(strnlen.o)
 .debug_frame   0x0000000000002a18       0x30 0x8 /home/ashwin/pcn_compiler_lkvm/x86_64/lib/libc.a(strspn.o)
 .debug_frame   0x0000000000002a48       0x70 0x8 /home/ashwin/pcn_compiler_lkvm/x86_64/lib/libc.a(strstr.o)
 .debug_frame   0x0000000000002ab8       0x48 0x8 /home/ashwin/pcn_compiler_lkvm/x86_64/lib/libc.a(strtok.o)
 .debug_frame   0x0000000000002b00       0x40 0x8 /home/ashwin/pcn_compiler_lkvm/x86_64/lib/libc.a(memcpy.o)
 .debug_frame   0x0000000000002b40       0x40 0x8 /home/ashwin/pcn_compiler_lkvm/x86_64/lib/libc.a(memmove.o)
 .debug_frame   0x0000000000002b80       0x40 0x8 /home/ashwin/pcn_compiler_lkvm/x86_64/lib/libc.a(memset.o)
 .debug_frame   0x0000000000002bc0       0x30 0x8 /home/ashwin/pcn_compiler_lkvm/x86_64/lib/libc.a(mkstemp.o)
 .debug_frame   0x0000000000002bf0       0x38 0x8 /home/ashwin/pcn_compiler_lkvm/x86_64/lib/libc.a(tcgetattr.o)
 .debug_frame   0x0000000000002c28       0x38 0x8 /home/ashwin/pcn_compiler_lkvm/x86_64/lib/libc.a(tcsetattr.o)
 .debug_frame   0x0000000000002c60       0x60 0x8 /home/ashwin/pcn_compiler_lkvm/x86_64/lib/libc.a(__lock.o)
 .debug_frame   0x0000000000002cc0       0x50 0x8 /home/ashwin/pcn_compiler_lkvm/x86_64/lib/libc.a(__syscall_cp.o)
 .debug_frame   0x0000000000002d10       0x40 0x8 /home/ashwin/pcn_compiler_lkvm/x86_64/lib/libc.a(__wait.o)
 .debug_frame   0x0000000000002d50       0x78 0x8 /home/ashwin/pcn_compiler_lkvm/x86_64/lib/libc.a(pthread_cleanup_push.o)
 .debug_frame   0x0000000000002dc8       0x30 0x8 /home/ashwin/pcn_compiler_lkvm/x86_64/lib/libc.a(pthread_cond_init.o)
 .debug_frame   0x0000000000002df8       0x38 0x8 /home/ashwin/pcn_compiler_lkvm/x86_64/lib/libc.a(pthread_cond_signal.o)
 .debug_frame   0x0000000000002e30       0xb0 0x8 /home/ashwin/pcn_compiler_lkvm/x86_64/lib/libc.a(pthread_cond_timedwait.o)
 .debug_frame   0x0000000000002ee0       0x30 0x8 /home/ashwin/pcn_compiler_lkvm/x86_64/lib/libc.a(pthread_cond_wait.o)
 .debug_frame   0x0000000000002f10      0x130 0x8 /home/ashwin/pcn_compiler_lkvm/x86_64/lib/libc.a(pthread_create.o)
 .debug_frame   0x0000000000003040       0x98 0x8 /home/ashwin/pcn_compiler_lkvm/x86_64/lib/libc.a(pthread_join.o)
 .debug_frame   0x00000000000030d8       0x58 0x8 /home/ashwin/pcn_compiler_lkvm/x86_64/lib/libc.a(pthread_kill.o)
 .debug_frame   0x0000000000003130       0x30 0x8 /home/ashwin/pcn_compiler_lkvm/x86_64/lib/libc.a(pthread_mutex_init.o)
 .debug_frame   0x0000000000003160       0x38 0x8 /home/ashwin/pcn_compiler_lkvm/x86_64/lib/libc.a(pthread_mutex_lock.o)
 .debug_frame   0x0000000000003198       0x60 0x8 /home/ashwin/pcn_compiler_lkvm/x86_64/lib/libc.a(pthread_mutex_timedlock.o)
 .debug_frame   0x00000000000031f8       0x68 0x8 /home/ashwin/pcn_compiler_lkvm/x86_64/lib/libc.a(pthread_mutex_trylock.o)
 .debug_frame   0x0000000000003260       0x68 0x8 /home/ashwin/pcn_compiler_lkvm/x86_64/lib/libc.a(pthread_mutex_unlock.o)
 .debug_frame   0x00000000000032c8       0x30 0x8 /home/ashwin/pcn_compiler_lkvm/x86_64/lib/libc.a(pthread_rwlock_rdlock.o)
 .debug_frame   0x00000000000032f8       0x68 0x8 /home/ashwin/pcn_compiler_lkvm/x86_64/lib/libc.a(pthread_rwlock_timedrdlock.o)
 .debug_frame   0x0000000000003360       0x30 0x8 /home/ashwin/pcn_compiler_lkvm/x86_64/lib/libc.a(pthread_rwlock_tryrdlock.o)
 .debug_frame   0x0000000000003390       0x30 0x8 /home/ashwin/pcn_compiler_lkvm/x86_64/lib/libc.a(pthread_rwlock_unlock.o)
 .debug_frame   0x00000000000033c0       0x30 0x8 /home/ashwin/pcn_compiler_lkvm/x86_64/lib/libc.a(pthread_rwlock_wrlock.o)
 .debug_frame   0x00000000000033f0       0x30 0x8 /home/ashwin/pcn_compiler_lkvm/x86_64/lib/libc.a(pthread_setcancelstate.o)
 .debug_frame   0x0000000000003420       0x48 0x8 /home/ashwin/pcn_compiler_lkvm/x86_64/lib/libc.a(pthread_testcancel.o)
 .debug_frame   0x0000000000003468       0x68 0x8 /home/ashwin/pcn_compiler_lkvm/x86_64/lib/libc.a(vmlock.o)
 .debug_frame   0x00000000000034d0       0x30 0x8 /home/ashwin/pcn_compiler_lkvm/x86_64/lib/libc.a(__unmapself.o)
 .debug_frame   0x0000000000003500       0x50 0x8 /home/ashwin/pcn_compiler_lkvm/x86_64/lib/libc.a(clone.o)
 .debug_frame   0x0000000000003550       0x30 0x8 /home/ashwin/pcn_compiler_lkvm/x86_64/lib/libc.a(gmtime.o)
 .debug_frame   0x0000000000003580       0x38 0x8 /home/ashwin/pcn_compiler_lkvm/x86_64/lib/libc.a(gmtime_r.o)
 .debug_frame   0x00000000000035b8       0x48 0x8 /home/ashwin/pcn_compiler_lkvm/x86_64/lib/libc.a(time.o)
 .debug_frame   0x0000000000003600       0x38 0x8 /home/ashwin/pcn_compiler_lkvm/x86_64/lib/libc.a(_exit.o)
 .debug_frame   0x0000000000003638       0x30 0x8 /home/ashwin/pcn_compiler_lkvm/x86_64/lib/libc.a(access.o)
 .debug_frame   0x0000000000003668       0x58 0x8 /home/ashwin/pcn_compiler_lkvm/x86_64/lib/libc.a(close.o)
 .debug_frame   0x00000000000036c0       0x38 0x8 /home/ashwin/pcn_compiler_lkvm/x86_64/lib/libc.a(fdatasync.o)
 .debug_frame   0x00000000000036f8       0x38 0x8 /home/ashwin/pcn_compiler_lkvm/x86_64/lib/libc.a(fsync.o)
 .debug_frame   0x0000000000003730       0x30 0x8 /home/ashwin/pcn_compiler_lkvm/x86_64/lib/libc.a(ftruncate.o)
 .debug_frame   0x0000000000003760       0x30 0x8 /home/ashwin/pcn_compiler_lkvm/x86_64/lib/libc.a(getpid.o)
 .debug_frame   0x0000000000003790       0x30 0x8 /home/ashwin/pcn_compiler_lkvm/x86_64/lib/libc.a(isatty.o)
 .debug_frame   0x00000000000037c0       0x30 0x8 /home/ashwin/pcn_compiler_lkvm/x86_64/lib/libc.a(lchown.o)
 .debug_frame   0x00000000000037f0       0x30 0x8 /home/ashwin/pcn_compiler_lkvm/x86_64/lib/libc.a(link.o)
 .debug_frame   0x0000000000003820       0x30 0x8 /home/ashwin/pcn_compiler_lkvm/x86_64/lib/libc.a(lseek.o)
 .debug_frame   0x0000000000003850       0x38 0x8 /home/ashwin/pcn_compiler_lkvm/x86_64/lib/libc.a(pread.o)
 .debug_frame   0x0000000000003888       0x38 0x8 /home/ashwin/pcn_compiler_lkvm/x86_64/lib/libc.a(preadv.o)
 .debug_frame   0x00000000000038c0       0x38 0x8 /home/ashwin/pcn_compiler_lkvm/x86_64/lib/libc.a(pwrite.o)
 .debug_frame   0x00000000000038f8       0x38 0x8 /home/ashwin/pcn_compiler_lkvm/x86_64/lib/libc.a(pwritev.o)
 .debug_frame   0x0000000000003930       0x38 0x8 /home/ashwin/pcn_compiler_lkvm/x86_64/lib/libc.a(read.o)
 .debug_frame   0x0000000000003968       0x30 0x8 /home/ashwin/pcn_compiler_lkvm/x86_64/lib/libc.a(readlink.o)
 .debug_frame   0x0000000000003998       0x38 0x8 /home/ashwin/pcn_compiler_lkvm/x86_64/lib/libc.a(readv.o)
 .debug_frame   0x00000000000039d0       0x38 0x8 /home/ashwin/pcn_compiler_lkvm/x86_64/lib/libc.a(sleep.o)
 .debug_frame   0x0000000000003a08       0x30 0x8 /home/ashwin/pcn_compiler_lkvm/x86_64/lib/libc.a(symlink.o)
 .debug_frame   0x0000000000003a38       0x30 0x8 /home/ashwin/pcn_compiler_lkvm/x86_64/lib/libc.a(truncate.o)
 .debug_frame   0x0000000000003a68       0x30 0x8 /home/ashwin/pcn_compiler_lkvm/x86_64/lib/libc.a(unlink.o)
 .debug_frame   0x0000000000003a98       0x38 0x8 /home/ashwin/pcn_compiler_lkvm/x86_64/lib/libc.a(usleep.o)
 .debug_frame   0x0000000000003ad0       0x38 0x8 /home/ashwin/pcn_compiler_lkvm/x86_64/lib/libc.a(write.o)
 .debug_frame   0x0000000000003b08       0x38 0x8 /home/ashwin/pcn_compiler_lkvm/x86_64/lib/libc.a(writev.o)
 .debug_frame   0x0000000000003b40       0x48 0x8 /home/ashwin/pcn_compiler_lkvm/x86_64/lib/libc.a(tolower.o)
 .debug_frame   0x0000000000003b88       0xa8 0x8 /home/ashwin/pcn_compiler_lkvm/x86_64/lib/libc.a(__init_tls.o)
 .debug_frame   0x0000000000003c30       0x88 0x8 /home/ashwin/pcn_compiler_lkvm/x86_64/lib/libc.a(platform.o)
 .debug_frame   0x0000000000003cb8       0x30 0x8 /home/ashwin/pcn_compiler_lkvm/x86_64/lib/libc.a(_Exit.o)
 .debug_frame   0x0000000000003ce8       0xc0 0x8 /home/ashwin/pcn_compiler_lkvm/x86_64/lib/libc.a(floatscan.o)
 .debug_frame   0x0000000000003da8       0x70 0x8 /home/ashwin/pcn_compiler_lkvm/x86_64/lib/libc.a(intscan.o)
 .debug_frame   0x0000000000003e18       0x30 0x8 /home/ashwin/pcn_compiler_lkvm/x86_64/lib/libc.a(procfdname.o)
 .debug_frame   0x0000000000003e48       0x58 0x8 /home/ashwin/pcn_compiler_lkvm/x86_64/lib/libc.a(shgetc.o)
 .debug_frame   0x0000000000003ea0       0x48 0x8 /home/ashwin/pcn_compiler_lkvm/x86_64/lib/libc.a(syscall.o)
 .debug_frame   0x0000000000003ee8       0xc0 0x8 /home/ashwin/pcn_compiler_lkvm/x86_64/lib/libc.a(expand_heap.o)
 .debug_frame   0x0000000000003fa8       0x30 0x8 /home/ashwin/pcn_compiler_lkvm/x86_64/lib/libc.a(__fpclassifyl.o)
 .debug_frame   0x0000000000003fd8       0x30 0x8 /home/ashwin/pcn_compiler_lkvm/x86_64/lib/libc.a(__signbitl.o)
 .debug_frame   0x0000000000004008       0x30 0x8 /home/ashwin/pcn_compiler_lkvm/x86_64/lib/libc.a(copysignl.o)
 .debug_frame   0x0000000000004038       0x40 0x8 /home/ashwin/pcn_compiler_lkvm/x86_64/lib/libc.a(frexpl.o)
 .debug_frame   0x0000000000004078       0x30 0x8 /home/ashwin/pcn_compiler_lkvm/x86_64/lib/libc.a(scalbn.o)
 .debug_frame   0x00000000000040a8       0x30 0x8 /home/ashwin/pcn_compiler_lkvm/x86_64/lib/libc.a(scalbnl.o)
 .debug_frame   0x00000000000040d8       0x38 0x8 /home/ashwin/pcn_compiler_lkvm/x86_64/lib/libc.a(fabs.o)
 .debug_frame   0x0000000000004110       0x30 0x8 /home/ashwin/pcn_compiler_lkvm/x86_64/lib/libc.a(fmodl.o)
 .debug_frame   0x0000000000004140       0x40 0x8 /home/ashwin/pcn_compiler_lkvm/x86_64/lib/libc.a(mbrtowc.o)
 .debug_frame   0x0000000000004180       0x30 0x8 /home/ashwin/pcn_compiler_lkvm/x86_64/lib/libc.a(mbsinit.o)
 .debug_frame   0x00000000000041b0       0x38 0x8 /home/ashwin/pcn_compiler_lkvm/x86_64/lib/libc.a(wctomb.o)
 .debug_frame   0x00000000000041e8       0x90 0x8 /home/ashwin/pcn_compiler_lkvm/x86_64/lib/libc.a(sigaction.o)
 .debug_frame   0x0000000000004278       0x38 0x8 /home/ashwin/pcn_compiler_lkvm/x86_64/lib/libc.a(restore.o)
 .debug_frame   0x00000000000042b0       0x50 0x8 /home/ashwin/pcn_compiler_lkvm/x86_64/lib/libc.a(__fdopen.o)
 .debug_frame   0x0000000000004300       0x50 0x8 /home/ashwin/pcn_compiler_lkvm/x86_64/lib/libc.a(__fmodeflags.o)
 .debug_frame   0x0000000000004350       0x70 0x8 /home/ashwin/pcn_compiler_lkvm/x86_64/lib/libc.a(__lockfile.o)
 .debug_frame   0x00000000000043c0       0x48 0x8 /home/ashwin/pcn_compiler_lkvm/x86_64/lib/libc.a(__overflow.o)
 .debug_frame   0x0000000000004408       0x50 0x8 /home/ashwin/pcn_compiler_lkvm/x86_64/lib/libc.a(__stdio_close.o)
 .debug_frame   0x0000000000004458       0x50 0x8 /home/ashwin/pcn_compiler_lkvm/x86_64/lib/libc.a(__stdio_read.o)
 .debug_frame   0x00000000000044a8       0x30 0x8 /home/ashwin/pcn_compiler_lkvm/x86_64/lib/libc.a(__stdio_seek.o)
 .debug_frame   0x00000000000044d8       0x70 0x8 /home/ashwin/pcn_compiler_lkvm/x86_64/lib/libc.a(__stdio_write.o)
 .debug_frame   0x0000000000004548       0x38 0x8 /home/ashwin/pcn_compiler_lkvm/x86_64/lib/libc.a(__stdout_write.o)
 .debug_frame   0x0000000000004580       0x68 0x8 /home/ashwin/pcn_compiler_lkvm/x86_64/lib/libc.a(__string_read.o)
 .debug_frame   0x00000000000045e8       0x48 0x8 /home/ashwin/pcn_compiler_lkvm/x86_64/lib/libc.a(__towrite.o)
 .debug_frame   0x0000000000004630       0x40 0x8 /home/ashwin/pcn_compiler_lkvm/x86_64/lib/libc.a(__uflow.o)
 .debug_frame   0x0000000000004670       0x48 0x8 /home/ashwin/pcn_compiler_lkvm/x86_64/lib/libc.a(fputs.o)
 .debug_frame   0x00000000000046b8       0xb0 0x8 /home/ashwin/pcn_compiler_lkvm/x86_64/lib/libc.a(fwrite.o)
 .debug_frame   0x0000000000004768       0x70 0x8 /home/ashwin/pcn_compiler_lkvm/x86_64/lib/libc.a(getdelim.o)
 .debug_frame   0x00000000000047d8       0x38 0x8 /home/ashwin/pcn_compiler_lkvm/x86_64/lib/libc.a(ofl_add.o)
 .debug_frame   0x0000000000004810       0x30 0x8 /home/ashwin/pcn_compiler_lkvm/x86_64/lib/libc.a(stpcpy.o)
 .debug_frame   0x0000000000004840       0x40 0x8 /home/ashwin/pcn_compiler_lkvm/x86_64/lib/libc.a(stpncpy.o)
 .debug_frame   0x0000000000004880       0x48 0x8 /home/ashwin/pcn_compiler_lkvm/x86_64/lib/libc.a(strcspn.o)
 .debug_frame   0x00000000000048c8       0x60 0x8 /home/ashwin/pcn_compiler_lkvm/x86_64/lib/libc.a(mkostemps.o)
 .debug_frame   0x0000000000004928       0x98 0x8 /home/ashwin/pcn_compiler_lkvm/x86_64/lib/libc.a(__timedwait.o)
 .debug_frame   0x00000000000049c0       0x60 0x8 /home/ashwin/pcn_compiler_lkvm/x86_64/lib/libc.a(pthread_rwlock_timedwrlock.o)
 .debug_frame   0x0000000000004a20       0x30 0x8 /home/ashwin/pcn_compiler_lkvm/x86_64/lib/libc.a(pthread_rwlock_trywrlock.o)
 .debug_frame   0x0000000000004a50       0x30 0x8 /home/ashwin/pcn_compiler_lkvm/x86_64/lib/libc.a(__set_thread_area.o)
 .debug_frame   0x0000000000004a80       0x50 0x8 /home/ashwin/pcn_compiler_lkvm/x86_64/lib/libc.a(__secs_to_tm.o)
 .debug_frame   0x0000000000004ad0      0x1b0 0x8 /home/ashwin/pcn_compiler_lkvm/x86_64/lib/libc.a(__tz.o)
 .debug_frame   0x0000000000004c80       0x30 0x8 /home/ashwin/pcn_compiler_lkvm/x86_64/lib/libc.a(__year_to_secs.o)
 .debug_frame   0x0000000000004cb0       0x38 0x8 /home/ashwin/pcn_compiler_lkvm/x86_64/lib/libc.a(clock_gettime.o)
 .debug_frame   0x0000000000004ce8       0x38 0x8 /home/ashwin/pcn_compiler_lkvm/x86_64/lib/libc.a(nanosleep.o)
 .debug_frame   0x0000000000004d20       0x40 0x8 /home/ashwin/pcn_compiler_lkvm/x86_64/lib/libc.a(wcrtomb.o)
 .debug_frame   0x0000000000004d60       0x60 0x8 /home/ashwin/pcn_compiler_lkvm/x86_64/lib/libc.a(__stdio_exit.o)
 .debug_frame   0x0000000000004dc0       0x60 0x8 /home/ashwin/pcn_compiler_lkvm/x86_64/lib/libc.a(__toread.o)
 .debug_frame   0x0000000000004e20       0x50 0x8 /home/ashwin/pcn_compiler_lkvm/x86_64/lib/libc.a(__randname.o)
 .debug_frame   0x0000000000004e70       0x48 0x8 /home/ashwin/pcn_compiler_lkvm/x86_64/lib/libc.a(__map_file.o)
 .debug_frame   0x0000000000004eb8       0x30 0x8 /home/ashwin/pcn_compiler_lkvm/x86_64/lib/libc.a(__month_to_secs.o)

.debug_line     0x0000000000000000    0x11fa8
 .debug_line    0x0000000000000000       0x49 0x1 /home/ashwin/pcn_compiler_lkvm/x86_64/lib/crt1.o
 .debug_line    0x0000000000000049      0x17f 0x1 /home/ashwin/pcn_compiler_lkvm/x86_64/lib/libc.a(sysconf.o)
 .debug_line    0x00000000000001c8       0x98 0x1 /home/ashwin/pcn_compiler_lkvm/x86_64/lib/libc.a(closedir.o)
 .debug_line    0x0000000000000260       0x90 0x1 /home/ashwin/pcn_compiler_lkvm/x86_64/lib/libc.a(dirfd.o)
 .debug_line    0x00000000000002f0       0xe6 0x1 /home/ashwin/pcn_compiler_lkvm/x86_64/lib/libc.a(opendir.o)
 .debug_line    0x00000000000003d6      0x103 0x1 /home/ashwin/pcn_compiler_lkvm/x86_64/lib/libc.a(readdir.o)
 .debug_line    0x00000000000004d9       0xcc 0x1 /home/ashwin/pcn_compiler_lkvm/x86_64/lib/libc.a(readdir_r.o)
 .debug_line    0x00000000000005a5       0x9f 0x1 /home/ashwin/pcn_compiler_lkvm/x86_64/lib/libc.a(seekdir.o)
 .debug_line    0x0000000000000644      0x24b 0x1 /home/ashwin/pcn_compiler_lkvm/x86_64/lib/libc.a(__libc_start_main.o)
 .debug_line    0x000000000000088f       0xb7 0x1 /home/ashwin/pcn_compiler_lkvm/x86_64/lib/libc.a(getenv.o)
 .debug_line    0x0000000000000946       0xdf 0x1 /home/ashwin/pcn_compiler_lkvm/x86_64/lib/libc.a(__errno_location.o)
 .debug_line    0x0000000000000a25      0x13f 0x1 /home/ashwin/pcn_compiler_lkvm/x86_64/lib/libc.a(strerror.o)
 .debug_line    0x0000000000000b64      0x141 0x1 /home/ashwin/pcn_compiler_lkvm/x86_64/lib/libc.a(atexit.o)
 .debug_line    0x0000000000000ca5       0xb4 0x1 /home/ashwin/pcn_compiler_lkvm/x86_64/lib/libc.a(exit.o)
 .debug_line    0x0000000000000d59      0x1a3 0x1 /home/ashwin/pcn_compiler_lkvm/x86_64/lib/libc.a(fcntl.o)
 .debug_line    0x0000000000000efc       0xcf 0x1 /home/ashwin/pcn_compiler_lkvm/x86_64/lib/libc.a(open.o)
 .debug_line    0x0000000000000fcb       0x6d 0x1 /home/ashwin/pcn_compiler_lkvm/x86_64/lib/libc.a(libc.o)
 .debug_line    0x0000000000001038       0x64 0x1 /home/ashwin/pcn_compiler_lkvm/x86_64/lib/libc.a(syscall_ret.o)
 .debug_line    0x000000000000109c       0x4f 0x1 /home/ashwin/pcn_compiler_lkvm/x86_64/lib/libc.a(getpagesize.o)
 .debug_line    0x00000000000010eb      0x14c 0x1 /home/ashwin/pcn_compiler_lkvm/x86_64/lib/libc.a(epoll.o)
 .debug_line    0x0000000000001237      0x107 0x1 /home/ashwin/pcn_compiler_lkvm/x86_64/lib/libc.a(eventfd.o)
 .debug_line    0x000000000000133e       0xba 0x1 /home/ashwin/pcn_compiler_lkvm/x86_64/lib/libc.a(prctl.o)
 .debug_line    0x00000000000013f8       0x8e 0x1 /home/ashwin/pcn_compiler_lkvm/x86_64/lib/libc.a(sysinfo.o)
 .debug_line    0x0000000000001486      0x11c 0x1 /home/ashwin/pcn_compiler_lkvm/x86_64/lib/libc.a(__lctrans.o)
 .debug_line    0x00000000000015a2      0x10e 0x1 /home/ashwin/pcn_compiler_lkvm/x86_64/lib/libc.a(calloc.o)
 .debug_line    0x00000000000016b0      0x111 0x1 /home/ashwin/pcn_compiler_lkvm/x86_64/lib/libc.a(lite_malloc.o)
 .debug_line    0x00000000000017c1      0xffa 0x1 /home/ashwin/pcn_compiler_lkvm/x86_64/lib/libc.a(malloc.o)
 .debug_line    0x00000000000027bb      0xf03 0x1 /home/ashwin/pcn_compiler_lkvm/x86_64/lib/libc.a(popcorn_malloc.o)
 .debug_line    0x00000000000036be       0xf8 0x1 /home/ashwin/pcn_compiler_lkvm/x86_64/lib/libc.a(getrlimit.o)
 .debug_line    0x00000000000037b6       0xac 0x1 /home/ashwin/pcn_compiler_lkvm/x86_64/lib/libc.a(ioctl.o)
 .debug_line    0x0000000000003862      0x1d7 0x1 /home/ashwin/pcn_compiler_lkvm/x86_64/lib/libc.a(mntent.o)
 .debug_line    0x0000000000003a39      0x118 0x1 /home/ashwin/pcn_compiler_lkvm/x86_64/lib/libc.a(openpty.o)
 .debug_line    0x0000000000003b51      0x14d 0x1 /home/ashwin/pcn_compiler_lkvm/x86_64/lib/libc.a(realpath.o)
 .debug_line    0x0000000000003c9e       0x8d 0x1 /home/ashwin/pcn_compiler_lkvm/x86_64/lib/libc.a(uname.o)
 .debug_line    0x0000000000003d2b       0x96 0x1 /home/ashwin/pcn_compiler_lkvm/x86_64/lib/libc.a(madvise.o)
 .debug_line    0x0000000000003dc1       0xf9 0x1 /home/ashwin/pcn_compiler_lkvm/x86_64/lib/libc.a(mmap.o)
 .debug_line    0x0000000000003eba       0xa2 0x1 /home/ashwin/pcn_compiler_lkvm/x86_64/lib/libc.a(mprotect.o)
 .debug_line    0x0000000000003f5c       0xe3 0x1 /home/ashwin/pcn_compiler_lkvm/x86_64/lib/libc.a(mremap.o)
 .debug_line    0x000000000000403f       0xa8 0x1 /home/ashwin/pcn_compiler_lkvm/x86_64/lib/libc.a(munmap.o)
 .debug_line    0x00000000000040e7      0x133 0x1 /home/ashwin/pcn_compiler_lkvm/x86_64/lib/libc.a(shm_open.o)
 .debug_line    0x000000000000421a       0x84 0x1 /home/ashwin/pcn_compiler_lkvm/x86_64/lib/libc.a(accept.o)
 .debug_line    0x000000000000429e       0xb0 0x1 /home/ashwin/pcn_compiler_lkvm/x86_64/lib/libc.a(bind.o)
 .debug_line    0x000000000000434e       0x85 0x1 /home/ashwin/pcn_compiler_lkvm/x86_64/lib/libc.a(connect.o)
 .debug_line    0x00000000000043d3       0x8c 0x1 /home/ashwin/pcn_compiler_lkvm/x86_64/lib/libc.a(htonl.o)
 .debug_line    0x000000000000445f       0x69 0x1 /home/ashwin/pcn_compiler_lkvm/x86_64/lib/libc.a(htons.o)
 .debug_line    0x00000000000044c8       0x8f 0x1 /home/ashwin/pcn_compiler_lkvm/x86_64/lib/libc.a(inet_addr.o)
 .debug_line    0x0000000000004557      0x127 0x1 /home/ashwin/pcn_compiler_lkvm/x86_64/lib/libc.a(inet_aton.o)
 .debug_line    0x000000000000467e       0x7a 0x1 /home/ashwin/pcn_compiler_lkvm/x86_64/lib/libc.a(listen.o)
 .debug_line    0x00000000000046f8       0x8c 0x1 /home/ashwin/pcn_compiler_lkvm/x86_64/lib/libc.a(ntohl.o)
 .debug_line    0x0000000000004784       0x69 0x1 /home/ashwin/pcn_compiler_lkvm/x86_64/lib/libc.a(ntohs.o)
 .debug_line    0x00000000000047ed       0x86 0x1 /home/ashwin/pcn_compiler_lkvm/x86_64/lib/libc.a(recvfrom.o)
 .debug_line    0x0000000000004873       0x84 0x1 /home/ashwin/pcn_compiler_lkvm/x86_64/lib/libc.a(sendto.o)
 .debug_line    0x00000000000048f7       0x7c 0x1 /home/ashwin/pcn_compiler_lkvm/x86_64/lib/libc.a(shutdown.o)
 .debug_line    0x0000000000004973       0xed 0x1 /home/ashwin/pcn_compiler_lkvm/x86_64/lib/libc.a(socket.o)
 .debug_line    0x0000000000004a60       0xbf 0x1 /home/ashwin/pcn_compiler_lkvm/x86_64/lib/libc.a(execl.o)
 .debug_line    0x0000000000004b1f       0x4e 0x1 /home/ashwin/pcn_compiler_lkvm/x86_64/lib/libc.a(execv.o)
 .debug_line    0x0000000000004b6d       0x76 0x1 /home/ashwin/pcn_compiler_lkvm/x86_64/lib/libc.a(execve.o)
 .debug_line    0x0000000000004be3      0x12e 0x1 /home/ashwin/pcn_compiler_lkvm/x86_64/lib/libc.a(fork.o)
 .debug_line    0x0000000000004d11       0x6b 0x1 /home/ashwin/pcn_compiler_lkvm/x86_64/lib/libc.a(waitpid.o)
 .debug_line    0x0000000000004d7c       0x5c 0x1 /home/ashwin/pcn_compiler_lkvm/x86_64/lib/libc.a(poll.o)
 .debug_line    0x0000000000004dd8       0x83 0x1 /home/ashwin/pcn_compiler_lkvm/x86_64/lib/libc.a(select.o)
 .debug_line    0x0000000000004e5b       0xb1 0x1 /home/ashwin/pcn_compiler_lkvm/x86_64/lib/libc.a(block.o)
 .debug_line    0x0000000000004f0c       0xa3 0x1 /home/ashwin/pcn_compiler_lkvm/x86_64/lib/libc.a(raise.o)
 .debug_line    0x0000000000004faf       0xa2 0x1 /home/ashwin/pcn_compiler_lkvm/x86_64/lib/libc.a(signal.o)
 .debug_line    0x0000000000005051       0x4c 0x1 /home/ashwin/pcn_compiler_lkvm/x86_64/lib/libc.a(sigrtmin.o)
 .debug_line    0x000000000000509d       0x94 0x1 /home/ashwin/pcn_compiler_lkvm/x86_64/lib/libc.a(chmod.o)
 .debug_line    0x0000000000005131      0x1c2 0x1 /home/ashwin/pcn_compiler_lkvm/x86_64/lib/libc.a(fstat.o)
 .debug_line    0x00000000000052f3       0xb3 0x1 /home/ashwin/pcn_compiler_lkvm/x86_64/lib/libc.a(lstat.o)
 .debug_line    0x00000000000053a6       0x94 0x1 /home/ashwin/pcn_compiler_lkvm/x86_64/lib/libc.a(mkdir.o)
 .debug_line    0x000000000000543a       0x94 0x1 /home/ashwin/pcn_compiler_lkvm/x86_64/lib/libc.a(mknod.o)
 .debug_line    0x00000000000054ce       0xb8 0x1 /home/ashwin/pcn_compiler_lkvm/x86_64/lib/libc.a(stat.o)
 .debug_line    0x0000000000005586      0x20c 0x1 /home/ashwin/pcn_compiler_lkvm/x86_64/lib/libc.a(statvfs.o)
 .debug_line    0x0000000000005792      0x11b 0x1 /home/ashwin/pcn_compiler_lkvm/x86_64/lib/libc.a(utimensat.o)
 .debug_line    0x00000000000058ad       0x72 0x1 /home/ashwin/pcn_compiler_lkvm/x86_64/lib/libc.a(dprintf.o)
 .debug_line    0x000000000000591f      0x10c 0x1 /home/ashwin/pcn_compiler_lkvm/x86_64/lib/libc.a(fclose.o)
 .debug_line    0x0000000000005a2b       0xaa 0x1 /home/ashwin/pcn_compiler_lkvm/x86_64/lib/libc.a(feof.o)
 .debug_line    0x0000000000005ad5       0xac 0x1 /home/ashwin/pcn_compiler_lkvm/x86_64/lib/libc.a(ferror.o)
 .debug_line    0x0000000000005b81      0x14f 0x1 /home/ashwin/pcn_compiler_lkvm/x86_64/lib/libc.a(fflush.o)
 .debug_line    0x0000000000005cd0      0x151 0x1 /home/ashwin/pcn_compiler_lkvm/x86_64/lib/libc.a(fgets.o)
 .debug_line    0x0000000000005e21      0x105 0x1 /home/ashwin/pcn_compiler_lkvm/x86_64/lib/libc.a(fopen.o)
 .debug_line    0x0000000000005f26       0x72 0x1 /home/ashwin/pcn_compiler_lkvm/x86_64/lib/libc.a(fprintf.o)
 .debug_line    0x0000000000005f98       0xac 0x1 /home/ashwin/pcn_compiler_lkvm/x86_64/lib/libc.a(fputc.o)
 .debug_line    0x0000000000006044       0x71 0x1 /home/ashwin/pcn_compiler_lkvm/x86_64/lib/libc.a(fscanf.o)
 .debug_line    0x00000000000060b5      0x11e 0x1 /home/ashwin/pcn_compiler_lkvm/x86_64/lib/libc.a(fseek.o)
 .debug_line    0x00000000000061d3       0x69 0x1 /home/ashwin/pcn_compiler_lkvm/x86_64/lib/libc.a(getline.o)
 .debug_line    0x000000000000623c       0xaa 0x1 /home/ashwin/pcn_compiler_lkvm/x86_64/lib/libc.a(ofl.o)
 .debug_line    0x00000000000062e6       0xcf 0x1 /home/ashwin/pcn_compiler_lkvm/x86_64/lib/libc.a(perror.o)
 .debug_line    0x00000000000063b5       0x76 0x1 /home/ashwin/pcn_compiler_lkvm/x86_64/lib/libc.a(printf.o)
 .debug_line    0x000000000000642b       0x4e 0x1 /home/ashwin/pcn_compiler_lkvm/x86_64/lib/libc.a(putchar.o)
 .debug_line    0x0000000000006479       0x6d 0x1 /home/ashwin/pcn_compiler_lkvm/x86_64/lib/libc.a(puts.o)
 .debug_line    0x00000000000064e6       0x83 0x1 /home/ashwin/pcn_compiler_lkvm/x86_64/lib/libc.a(remove.o)
 .debug_line    0x0000000000006569       0x74 0x1 /home/ashwin/pcn_compiler_lkvm/x86_64/lib/libc.a(rename.o)
 .debug_line    0x00000000000065dd       0x73 0x1 /home/ashwin/pcn_compiler_lkvm/x86_64/lib/libc.a(snprintf.o)
 .debug_line    0x0000000000006650       0x72 0x1 /home/ashwin/pcn_compiler_lkvm/x86_64/lib/libc.a(sprintf.o)
 .debug_line    0x00000000000066c2       0x71 0x1 /home/ashwin/pcn_compiler_lkvm/x86_64/lib/libc.a(sscanf.o)
 .debug_line    0x0000000000006733       0x7c 0x1 /home/ashwin/pcn_compiler_lkvm/x86_64/lib/libc.a(stderr.o)
 .debug_line    0x00000000000067af       0x7c 0x1 /home/ashwin/pcn_compiler_lkvm/x86_64/lib/libc.a(stdout.o)
 .debug_line    0x000000000000682b       0xb7 0x1 /home/ashwin/pcn_compiler_lkvm/x86_64/lib/libc.a(vdprintf.o)
 .debug_line    0x00000000000068e2     0x1396 0x1 /home/ashwin/pcn_compiler_lkvm/x86_64/lib/libc.a(vfprintf.o)
 .debug_line    0x0000000000007c78      0x709 0x1 /home/ashwin/pcn_compiler_lkvm/x86_64/lib/libc.a(vfscanf.o)
 .debug_line    0x0000000000008381      0x134 0x1 /home/ashwin/pcn_compiler_lkvm/x86_64/lib/libc.a(vsnprintf.o)
 .debug_line    0x00000000000084b5       0x4b 0x1 /home/ashwin/pcn_compiler_lkvm/x86_64/lib/libc.a(vsprintf.o)
 .debug_line    0x0000000000008500       0xb7 0x1 /home/ashwin/pcn_compiler_lkvm/x86_64/lib/libc.a(vsscanf.o)
 .debug_line    0x00000000000085b7       0xad 0x1 /home/ashwin/pcn_compiler_lkvm/x86_64/lib/libc.a(atoi.o)
 .debug_line    0x0000000000008664      0x16c 0x1 /home/ashwin/pcn_compiler_lkvm/x86_64/lib/libc.a(strtol.o)
 .debug_line    0x00000000000087d0       0xd9 0x1 /home/ashwin/pcn_compiler_lkvm/x86_64/lib/libc.a(memchr.o)
 .debug_line    0x00000000000088a9       0x99 0x1 /home/ashwin/pcn_compiler_lkvm/x86_64/lib/libc.a(memcmp.o)
 .debug_line    0x0000000000008942       0x8c 0x1 /home/ashwin/pcn_compiler_lkvm/x86_64/lib/libc.a(strcasestr.o)
 .debug_line    0x00000000000089ce       0x53 0x1 /home/ashwin/pcn_compiler_lkvm/x86_64/lib/libc.a(strcat.o)
 .debug_line    0x0000000000008a21       0x59 0x1 /home/ashwin/pcn_compiler_lkvm/x86_64/lib/libc.a(strchr.o)
 .debug_line    0x0000000000008a7a       0xd9 0x1 /home/ashwin/pcn_compiler_lkvm/x86_64/lib/libc.a(strchrnul.o)
 .debug_line    0x0000000000008b53       0x6e 0x1 /home/ashwin/pcn_compiler_lkvm/x86_64/lib/libc.a(strcmp.o)
 .debug_line    0x0000000000008bc1       0x4b 0x1 /home/ashwin/pcn_compiler_lkvm/x86_64/lib/libc.a(strcpy.o)
 .debug_line    0x0000000000008c0c       0x86 0x1 /home/ashwin/pcn_compiler_lkvm/x86_64/lib/libc.a(strdup.o)
 .debug_line    0x0000000000008c92       0xb8 0x1 /home/ashwin/pcn_compiler_lkvm/x86_64/lib/libc.a(strlen.o)
 .debug_line    0x0000000000008d4a      0x190 0x1 /home/ashwin/pcn_compiler_lkvm/x86_64/lib/libc.a(strncasecmp.o)
 .debug_line    0x0000000000008eda       0xaf 0x1 /home/ashwin/pcn_compiler_lkvm/x86_64/lib/libc.a(strncmp.o)
 .debug_line    0x0000000000008f89       0x6b 0x1 /home/ashwin/pcn_compiler_lkvm/x86_64/lib/libc.a(strncpy.o)
 .debug_line    0x0000000000008ff4       0x83 0x1 /home/ashwin/pcn_compiler_lkvm/x86_64/lib/libc.a(strndup.o)
 .debug_line    0x0000000000009077       0x71 0x1 /home/ashwin/pcn_compiler_lkvm/x86_64/lib/libc.a(strnlen.o)
 .debug_line    0x00000000000090e8       0xd4 0x1 /home/ashwin/pcn_compiler_lkvm/x86_64/lib/libc.a(strspn.o)
 .debug_line    0x00000000000091bc      0x4c3 0x1 /home/ashwin/pcn_compiler_lkvm/x86_64/lib/libc.a(strstr.o)
 .debug_line    0x000000000000967f       0x8f 0x1 /home/ashwin/pcn_compiler_lkvm/x86_64/lib/libc.a(strtok.o)
 .debug_line    0x000000000000970e       0x61 0x1 /home/ashwin/pcn_compiler_lkvm/x86_64/lib/libc.a(memcpy.o)
 .debug_line    0x000000000000976f       0x5a 0x1 /home/ashwin/pcn_compiler_lkvm/x86_64/lib/libc.a(memmove.o)
 .debug_line    0x00000000000097c9       0x86 0x1 /home/ashwin/pcn_compiler_lkvm/x86_64/lib/libc.a(memset.o)
 .debug_line    0x000000000000984f       0x49 0x1 /home/ashwin/pcn_compiler_lkvm/x86_64/lib/libc.a(mkstemp.o)
 .debug_line    0x0000000000009898       0x92 0x1 /home/ashwin/pcn_compiler_lkvm/x86_64/lib/libc.a(tcgetattr.o)
 .debug_line    0x000000000000992a       0x99 0x1 /home/ashwin/pcn_compiler_lkvm/x86_64/lib/libc.a(tcsetattr.o)
 .debug_line    0x00000000000099c3      0x11f 0x1 /home/ashwin/pcn_compiler_lkvm/x86_64/lib/libc.a(__lock.o)
 .debug_line    0x0000000000009ae2       0x89 0x1 /home/ashwin/pcn_compiler_lkvm/x86_64/lib/libc.a(__syscall_cp.o)
 .debug_line    0x0000000000009b6b      0x100 0x1 /home/ashwin/pcn_compiler_lkvm/x86_64/lib/libc.a(__wait.o)
 .debug_line    0x0000000000009c6b       0xb0 0x1 /home/ashwin/pcn_compiler_lkvm/x86_64/lib/libc.a(pthread_cleanup_push.o)
 .debug_line    0x0000000000009d1b       0x95 0x1 /home/ashwin/pcn_compiler_lkvm/x86_64/lib/libc.a(pthread_cond_init.o)
 .debug_line    0x0000000000009db0      0x114 0x1 /home/ashwin/pcn_compiler_lkvm/x86_64/lib/libc.a(pthread_cond_signal.o)
 .debug_line    0x0000000000009ec4      0x62d 0x1 /home/ashwin/pcn_compiler_lkvm/x86_64/lib/libc.a(pthread_cond_timedwait.o)
 .debug_line    0x000000000000a4f1       0x74 0x1 /home/ashwin/pcn_compiler_lkvm/x86_64/lib/libc.a(pthread_cond_wait.o)
 .debug_line    0x000000000000a565      0x6a8 0x1 /home/ashwin/pcn_compiler_lkvm/x86_64/lib/libc.a(pthread_create.o)
 .debug_line    0x000000000000ac0d      0x182 0x1 /home/ashwin/pcn_compiler_lkvm/x86_64/lib/libc.a(pthread_join.o)
 .debug_line    0x000000000000ad8f       0xf0 0x1 /home/ashwin/pcn_compiler_lkvm/x86_64/lib/libc.a(pthread_kill.o)
 .debug_line    0x000000000000ae7f       0x86 0x1 /home/ashwin/pcn_compiler_lkvm/x86_64/lib/libc.a(pthread_mutex_init.o)
 .debug_line    0x000000000000af05       0xaf 0x1 /home/ashwin/pcn_compiler_lkvm/x86_64/lib/libc.a(pthread_mutex_lock.o)
 .debug_line    0x000000000000afb4      0x1d4 0x1 /home/ashwin/pcn_compiler_lkvm/x86_64/lib/libc.a(pthread_mutex_timedlock.o)
 .debug_line    0x000000000000b188      0x201 0x1 /home/ashwin/pcn_compiler_lkvm/x86_64/lib/libc.a(pthread_mutex_trylock.o)
 .debug_line    0x000000000000b389      0x1cd 0x1 /home/ashwin/pcn_compiler_lkvm/x86_64/lib/libc.a(pthread_mutex_unlock.o)
 .debug_line    0x000000000000b556       0x78 0x1 /home/ashwin/pcn_compiler_lkvm/x86_64/lib/libc.a(pthread_rwlock_rdlock.o)
 .debug_line    0x000000000000b5ce      0x126 0x1 /home/ashwin/pcn_compiler_lkvm/x86_64/lib/libc.a(pthread_rwlock_timedrdlock.o)
 .debug_line    0x000000000000b6f4       0xc9 0x1 /home/ashwin/pcn_compiler_lkvm/x86_64/lib/libc.a(pthread_rwlock_tryrdlock.o)
 .debug_line    0x000000000000b7bd      0x127 0x1 /home/ashwin/pcn_compiler_lkvm/x86_64/lib/libc.a(pthread_rwlock_unlock.o)
 .debug_line    0x000000000000b8e4       0x78 0x1 /home/ashwin/pcn_compiler_lkvm/x86_64/lib/libc.a(pthread_rwlock_wrlock.o)
 .debug_line    0x000000000000b95c       0xf9 0x1 /home/ashwin/pcn_compiler_lkvm/x86_64/lib/libc.a(pthread_setcancelstate.o)
 .debug_line    0x000000000000ba55       0x6d 0x1 /home/ashwin/pcn_compiler_lkvm/x86_64/lib/libc.a(pthread_testcancel.o)
 .debug_line    0x000000000000bac2      0x123 0x1 /home/ashwin/pcn_compiler_lkvm/x86_64/lib/libc.a(vmlock.o)
 .debug_line    0x000000000000bbe5       0x7e 0x1 /home/ashwin/pcn_compiler_lkvm/x86_64/lib/libc.a(__cleartid_exit_nostack.o)
 .debug_line    0x000000000000bc63       0x66 0x1 /home/ashwin/pcn_compiler_lkvm/x86_64/lib/libc.a(__unmapself.o)
 .debug_line    0x000000000000bcc9       0x63 0x1 /home/ashwin/pcn_compiler_lkvm/x86_64/lib/libc.a(clone.o)
 .debug_line    0x000000000000bd2c       0x7d 0x1 /home/ashwin/pcn_compiler_lkvm/x86_64/lib/libc.a(gmtime.o)
 .debug_line    0x000000000000bda9       0x9c 0x1 /home/ashwin/pcn_compiler_lkvm/x86_64/lib/libc.a(gmtime_r.o)
 .debug_line    0x000000000000be45       0x7a 0x1 /home/ashwin/pcn_compiler_lkvm/x86_64/lib/libc.a(time.o)
 .debug_line    0x000000000000bebf       0x49 0x1 /home/ashwin/pcn_compiler_lkvm/x86_64/lib/libc.a(_exit.o)
 .debug_line    0x000000000000bf08       0x78 0x1 /home/ashwin/pcn_compiler_lkvm/x86_64/lib/libc.a(access.o)
 .debug_line    0x000000000000bf80       0x6e 0x1 /home/ashwin/pcn_compiler_lkvm/x86_64/lib/libc.a(close.o)
 .debug_line    0x000000000000bfee       0x4d 0x1 /home/ashwin/pcn_compiler_lkvm/x86_64/lib/libc.a(fdatasync.o)
 .debug_line    0x000000000000c03b       0x49 0x1 /home/ashwin/pcn_compiler_lkvm/x86_64/lib/libc.a(fsync.o)
 .debug_line    0x000000000000c084       0x9a 0x1 /home/ashwin/pcn_compiler_lkvm/x86_64/lib/libc.a(ftruncate.o)
 .debug_line    0x000000000000c11e       0x8e 0x1 /home/ashwin/pcn_compiler_lkvm/x86_64/lib/libc.a(getpid.o)
 .debug_line    0x000000000000c1ac       0xa0 0x1 /home/ashwin/pcn_compiler_lkvm/x86_64/lib/libc.a(isatty.o)
 .debug_line    0x000000000000c24c       0x97 0x1 /home/ashwin/pcn_compiler_lkvm/x86_64/lib/libc.a(lchown.o)
 .debug_line    0x000000000000c2e3       0x73 0x1 /home/ashwin/pcn_compiler_lkvm/x86_64/lib/libc.a(link.o)
 .debug_line    0x000000000000c356       0x96 0x1 /home/ashwin/pcn_compiler_lkvm/x86_64/lib/libc.a(lseek.o)
 .debug_line    0x000000000000c3ec       0x68 0x1 /home/ashwin/pcn_compiler_lkvm/x86_64/lib/libc.a(pread.o)
 .debug_line    0x000000000000c454       0x69 0x1 /home/ashwin/pcn_compiler_lkvm/x86_64/lib/libc.a(preadv.o)
 .debug_line    0x000000000000c4bd       0x69 0x1 /home/ashwin/pcn_compiler_lkvm/x86_64/lib/libc.a(pwrite.o)
 .debug_line    0x000000000000c526       0x6a 0x1 /home/ashwin/pcn_compiler_lkvm/x86_64/lib/libc.a(pwritev.o)
 .debug_line    0x000000000000c590       0x67 0x1 /home/ashwin/pcn_compiler_lkvm/x86_64/lib/libc.a(read.o)
 .debug_line    0x000000000000c5f7       0x96 0x1 /home/ashwin/pcn_compiler_lkvm/x86_64/lib/libc.a(readlink.o)
 .debug_line    0x000000000000c68d       0x68 0x1 /home/ashwin/pcn_compiler_lkvm/x86_64/lib/libc.a(readv.o)
 .debug_line    0x000000000000c6f5       0x7b 0x1 /home/ashwin/pcn_compiler_lkvm/x86_64/lib/libc.a(sleep.o)
 .debug_line    0x000000000000c770       0x76 0x1 /home/ashwin/pcn_compiler_lkvm/x86_64/lib/libc.a(symlink.o)
 .debug_line    0x000000000000c7e6       0x96 0x1 /home/ashwin/pcn_compiler_lkvm/x86_64/lib/libc.a(truncate.o)
 .debug_line    0x000000000000c87c       0x73 0x1 /home/ashwin/pcn_compiler_lkvm/x86_64/lib/libc.a(unlink.o)
 .debug_line    0x000000000000c8ef       0x7b 0x1 /home/ashwin/pcn_compiler_lkvm/x86_64/lib/libc.a(usleep.o)
 .debug_line    0x000000000000c96a       0x68 0x1 /home/ashwin/pcn_compiler_lkvm/x86_64/lib/libc.a(write.o)
 .debug_line    0x000000000000c9d2       0x69 0x1 /home/ashwin/pcn_compiler_lkvm/x86_64/lib/libc.a(writev.o)
 .debug_line    0x000000000000ca3b       0xa9 0x1 /home/ashwin/pcn_compiler_lkvm/x86_64/lib/libc.a(tolower.o)
 .debug_line    0x000000000000cae4       0x35 0x1 /home/ashwin/pcn_compiler_lkvm/x86_64/lib/libc.a(__environ.o)
 .debug_line    0x000000000000cb19      0x293 0x1 /home/ashwin/pcn_compiler_lkvm/x86_64/lib/libc.a(__init_tls.o)
 .debug_line    0x000000000000cdac      0x11c 0x1 /home/ashwin/pcn_compiler_lkvm/x86_64/lib/libc.a(platform.o)
 .debug_line    0x000000000000cec8       0x72 0x1 /home/ashwin/pcn_compiler_lkvm/x86_64/lib/libc.a(_Exit.o)
 .debug_line    0x000000000000cf3a      0xf6d 0x1 /home/ashwin/pcn_compiler_lkvm/x86_64/lib/libc.a(floatscan.o)
 .debug_line    0x000000000000dea7      0x48c 0x1 /home/ashwin/pcn_compiler_lkvm/x86_64/lib/libc.a(intscan.o)
 .debug_line    0x000000000000e333       0x97 0x1 /home/ashwin/pcn_compiler_lkvm/x86_64/lib/libc.a(procfdname.o)
 .debug_line    0x000000000000e3ca      0x177 0x1 /home/ashwin/pcn_compiler_lkvm/x86_64/lib/libc.a(shgetc.o)
 .debug_line    0x000000000000e541       0x59 0x1 /home/ashwin/pcn_compiler_lkvm/x86_64/lib/libc.a(syscall.o)
 .debug_line    0x000000000000e59a      0x3c0 0x1 /home/ashwin/pcn_compiler_lkvm/x86_64/lib/libc.a(expand_heap.o)
 .debug_line    0x000000000000e95a       0xbb 0x1 /home/ashwin/pcn_compiler_lkvm/x86_64/lib/libc.a(__fpclassifyl.o)
 .debug_line    0x000000000000ea15       0x88 0x1 /home/ashwin/pcn_compiler_lkvm/x86_64/lib/libc.a(__signbitl.o)
 .debug_line    0x000000000000ea9d       0x91 0x1 /home/ashwin/pcn_compiler_lkvm/x86_64/lib/libc.a(copysignl.o)
 .debug_line    0x000000000000eb2e       0xbe 0x1 /home/ashwin/pcn_compiler_lkvm/x86_64/lib/libc.a(frexpl.o)
 .debug_line    0x000000000000ebec       0xb6 0x1 /home/ashwin/pcn_compiler_lkvm/x86_64/lib/libc.a(scalbn.o)
 .debug_line    0x000000000000eca2       0xe5 0x1 /home/ashwin/pcn_compiler_lkvm/x86_64/lib/libc.a(scalbnl.o)
 .debug_line    0x000000000000ed87       0x4f 0x1 /home/ashwin/pcn_compiler_lkvm/x86_64/lib/libc.a(fabs.o)
 .debug_line    0x000000000000edd6       0x52 0x1 /home/ashwin/pcn_compiler_lkvm/x86_64/lib/libc.a(fmodl.o)
 .debug_line    0x000000000000ee28      0x1c0 0x1 /home/ashwin/pcn_compiler_lkvm/x86_64/lib/libc.a(mbrtowc.o)
 .debug_line    0x000000000000efe8       0x79 0x1 /home/ashwin/pcn_compiler_lkvm/x86_64/lib/libc.a(mbsinit.o)
 .debug_line    0x000000000000f061       0x81 0x1 /home/ashwin/pcn_compiler_lkvm/x86_64/lib/libc.a(wctomb.o)
 .debug_line    0x000000000000f0e2      0x1d2 0x1 /home/ashwin/pcn_compiler_lkvm/x86_64/lib/libc.a(sigaction.o)
 .debug_line    0x000000000000f2b4       0x50 0x1 /home/ashwin/pcn_compiler_lkvm/x86_64/lib/libc.a(restore.o)
 .debug_line    0x000000000000f304      0x1a9 0x1 /home/ashwin/pcn_compiler_lkvm/x86_64/lib/libc.a(__fdopen.o)
 .debug_line    0x000000000000f4ad       0x8b 0x1 /home/ashwin/pcn_compiler_lkvm/x86_64/lib/libc.a(__fmodeflags.o)
 .debug_line    0x000000000000f538      0x18f 0x1 /home/ashwin/pcn_compiler_lkvm/x86_64/lib/libc.a(__lockfile.o)
 .debug_line    0x000000000000f6c7       0xed 0x1 /home/ashwin/pcn_compiler_lkvm/x86_64/lib/libc.a(__overflow.o)
 .debug_line    0x000000000000f7b4       0xd9 0x1 /home/ashwin/pcn_compiler_lkvm/x86_64/lib/libc.a(__stdio_close.o)
 .debug_line    0x000000000000f88d      0x131 0x1 /home/ashwin/pcn_compiler_lkvm/x86_64/lib/libc.a(__stdio_read.o)
 .debug_line    0x000000000000f9be       0xc5 0x1 /home/ashwin/pcn_compiler_lkvm/x86_64/lib/libc.a(__stdio_seek.o)
 .debug_line    0x000000000000fa83      0x16c 0x1 /home/ashwin/pcn_compiler_lkvm/x86_64/lib/libc.a(__stdio_write.o)
 .debug_line    0x000000000000fbef      0x100 0x1 /home/ashwin/pcn_compiler_lkvm/x86_64/lib/libc.a(__stdout_write.o)
 .debug_line    0x000000000000fcef       0xc7 0x1 /home/ashwin/pcn_compiler_lkvm/x86_64/lib/libc.a(__string_read.o)
 .debug_line    0x000000000000fdb6       0xe1 0x1 /home/ashwin/pcn_compiler_lkvm/x86_64/lib/libc.a(__towrite.o)
 .debug_line    0x000000000000fe97       0xac 0x1 /home/ashwin/pcn_compiler_lkvm/x86_64/lib/libc.a(__uflow.o)
 .debug_line    0x000000000000ff43       0x9e 0x1 /home/ashwin/pcn_compiler_lkvm/x86_64/lib/libc.a(fputs.o)
 .debug_line    0x000000000000ffe1      0x157 0x1 /home/ashwin/pcn_compiler_lkvm/x86_64/lib/libc.a(fwrite.o)
 .debug_line    0x0000000000010138      0x1fa 0x1 /home/ashwin/pcn_compiler_lkvm/x86_64/lib/libc.a(getdelim.o)
 .debug_line    0x0000000000010332       0xaa 0x1 /home/ashwin/pcn_compiler_lkvm/x86_64/lib/libc.a(ofl_add.o)
 .debug_line    0x00000000000103dc       0xc9 0x1 /home/ashwin/pcn_compiler_lkvm/x86_64/lib/libc.a(stpcpy.o)
 .debug_line    0x00000000000104a5      0x101 0x1 /home/ashwin/pcn_compiler_lkvm/x86_64/lib/libc.a(stpncpy.o)
 .debug_line    0x00000000000105a6       0xd3 0x1 /home/ashwin/pcn_compiler_lkvm/x86_64/lib/libc.a(strcspn.o)
 .debug_line    0x0000000000010679       0xd6 0x1 /home/ashwin/pcn_compiler_lkvm/x86_64/lib/libc.a(mkostemps.o)
 .debug_line    0x000000000001074f       0xfc 0x1 /home/ashwin/pcn_compiler_lkvm/x86_64/lib/libc.a(__timedwait.o)
 .debug_line    0x000000000001084b      0x122 0x1 /home/ashwin/pcn_compiler_lkvm/x86_64/lib/libc.a(pthread_rwlock_timedwrlock.o)
 .debug_line    0x000000000001096d       0xa6 0x1 /home/ashwin/pcn_compiler_lkvm/x86_64/lib/libc.a(pthread_rwlock_trywrlock.o)
 .debug_line    0x0000000000010a13       0x6c 0x1 /home/ashwin/pcn_compiler_lkvm/x86_64/lib/libc.a(__set_thread_area.o)
 .debug_line    0x0000000000010a7f      0x1a9 0x1 /home/ashwin/pcn_compiler_lkvm/x86_64/lib/libc.a(__secs_to_tm.o)
 .debug_line    0x0000000000010c28      0xb29 0x1 /home/ashwin/pcn_compiler_lkvm/x86_64/lib/libc.a(__tz.o)
 .debug_line    0x0000000000011751      0x12a 0x1 /home/ashwin/pcn_compiler_lkvm/x86_64/lib/libc.a(__year_to_secs.o)
 .debug_line    0x000000000001187b       0xd8 0x1 /home/ashwin/pcn_compiler_lkvm/x86_64/lib/libc.a(clock_gettime.o)
 .debug_line    0x0000000000011953       0x6a 0x1 /home/ashwin/pcn_compiler_lkvm/x86_64/lib/libc.a(nanosleep.o)
 .debug_line    0x00000000000119bd       0x59 0x1 /home/ashwin/pcn_compiler_lkvm/x86_64/lib/libc.a(internal.o)
 .debug_line    0x0000000000011a16      0x192 0x1 /home/ashwin/pcn_compiler_lkvm/x86_64/lib/libc.a(wcrtomb.o)
 .debug_line    0x0000000000011ba8      0x10a 0x1 /home/ashwin/pcn_compiler_lkvm/x86_64/lib/libc.a(__stdio_exit.o)
 .debug_line    0x0000000000011cb2       0xed 0x1 /home/ashwin/pcn_compiler_lkvm/x86_64/lib/libc.a(__toread.o)
 .debug_line    0x0000000000011d9f       0x9d 0x1 /home/ashwin/pcn_compiler_lkvm/x86_64/lib/libc.a(__randname.o)
 .debug_line    0x0000000000011e3c      0x107 0x1 /home/ashwin/pcn_compiler_lkvm/x86_64/lib/libc.a(__map_file.o)
 .debug_line    0x0000000000011f43       0x65 0x1 /home/ashwin/pcn_compiler_lkvm/x86_64/lib/libc.a(__month_to_secs.o)

.debug_ranges   0x0000000000000000     0x2630
 .debug_ranges  0x0000000000000000       0x40 0x1 /home/ashwin/pcn_compiler_lkvm/x86_64/lib/libc.a(readdir.o)
 .debug_ranges  0x0000000000000040       0x90 0x1 /home/ashwin/pcn_compiler_lkvm/x86_64/lib/libc.a(__libc_start_main.o)
 .debug_ranges  0x00000000000000d0       0x30 0x1 /home/ashwin/pcn_compiler_lkvm/x86_64/lib/libc.a(getenv.o)
 .debug_ranges  0x0000000000000100       0x30 0x1 /home/ashwin/pcn_compiler_lkvm/x86_64/lib/libc.a(strerror.o)
 .debug_ranges  0x0000000000000130       0x60 0x1 /home/ashwin/pcn_compiler_lkvm/x86_64/lib/libc.a(atexit.o)
 .debug_ranges  0x0000000000000190       0x40 0x1 /home/ashwin/pcn_compiler_lkvm/x86_64/lib/libc.a(exit.o)
 .debug_ranges  0x00000000000001d0       0x70 0x1 /home/ashwin/pcn_compiler_lkvm/x86_64/lib/libc.a(fcntl.o)
 .debug_ranges  0x0000000000000240       0x60 0x1 /home/ashwin/pcn_compiler_lkvm/x86_64/lib/libc.a(epoll.o)
 .debug_ranges  0x00000000000002a0       0x40 0x1 /home/ashwin/pcn_compiler_lkvm/x86_64/lib/libc.a(eventfd.o)
 .debug_ranges  0x00000000000002e0       0x40 0x1 /home/ashwin/pcn_compiler_lkvm/x86_64/lib/libc.a(__lctrans.o)
 .debug_ranges  0x0000000000000320       0x70 0x1 /home/ashwin/pcn_compiler_lkvm/x86_64/lib/libc.a(calloc.o)
 .debug_ranges  0x0000000000000390       0x40 0x1 /home/ashwin/pcn_compiler_lkvm/x86_64/lib/libc.a(lite_malloc.o)
 .debug_ranges  0x00000000000003d0      0x520 0x1 /home/ashwin/pcn_compiler_lkvm/x86_64/lib/libc.a(malloc.o)
 .debug_ranges  0x00000000000008f0      0x530 0x1 /home/ashwin/pcn_compiler_lkvm/x86_64/lib/libc.a(popcorn_malloc.o)
 .debug_ranges  0x0000000000000e20       0x70 0x1 /home/ashwin/pcn_compiler_lkvm/x86_64/lib/libc.a(mntent.o)
 .debug_ranges  0x0000000000000e90       0x30 0x1 /home/ashwin/pcn_compiler_lkvm/x86_64/lib/libc.a(mmap.o)
 .debug_ranges  0x0000000000000ec0       0x30 0x1 /home/ashwin/pcn_compiler_lkvm/x86_64/lib/libc.a(mremap.o)
 .debug_ranges  0x0000000000000ef0       0x30 0x1 /home/ashwin/pcn_compiler_lkvm/x86_64/lib/libc.a(munmap.o)
 .debug_ranges  0x0000000000000f20       0x40 0x1 /home/ashwin/pcn_compiler_lkvm/x86_64/lib/libc.a(shm_open.o)
 .debug_ranges  0x0000000000000f60       0x30 0x1 /home/ashwin/pcn_compiler_lkvm/x86_64/lib/libc.a(execl.o)
 .debug_ranges  0x0000000000000f90       0x30 0x1 /home/ashwin/pcn_compiler_lkvm/x86_64/lib/libc.a(fork.o)
 .debug_ranges  0x0000000000000fc0       0x40 0x1 /home/ashwin/pcn_compiler_lkvm/x86_64/lib/libc.a(block.o)
 .debug_ranges  0x0000000000001000       0x30 0x1 /home/ashwin/pcn_compiler_lkvm/x86_64/lib/libc.a(fstat.o)
 .debug_ranges  0x0000000000001030       0x50 0x1 /home/ashwin/pcn_compiler_lkvm/x86_64/lib/libc.a(statvfs.o)
 .debug_ranges  0x0000000000001080       0x30 0x1 /home/ashwin/pcn_compiler_lkvm/x86_64/lib/libc.a(utimensat.o)
 .debug_ranges  0x00000000000010b0       0x30 0x1 /home/ashwin/pcn_compiler_lkvm/x86_64/lib/libc.a(fclose.o)
 .debug_ranges  0x00000000000010e0       0x30 0x1 /home/ashwin/pcn_compiler_lkvm/x86_64/lib/libc.a(fflush.o)
 .debug_ranges  0x0000000000001110       0x40 0x1 /home/ashwin/pcn_compiler_lkvm/x86_64/lib/libc.a(fseek.o)
 .debug_ranges  0x0000000000001150       0x30 0x1 /home/ashwin/pcn_compiler_lkvm/x86_64/lib/libc.a(ofl.o)
 .debug_ranges  0x0000000000001180       0x30 0x1 /home/ashwin/pcn_compiler_lkvm/x86_64/lib/libc.a(vdprintf.o)
 .debug_ranges  0x00000000000011b0      0x520 0x1 /home/ashwin/pcn_compiler_lkvm/x86_64/lib/libc.a(vfprintf.o)
 .debug_ranges  0x00000000000016d0       0xd0 0x1 /home/ashwin/pcn_compiler_lkvm/x86_64/lib/libc.a(vfscanf.o)
 .debug_ranges  0x00000000000017a0       0x30 0x1 /home/ashwin/pcn_compiler_lkvm/x86_64/lib/libc.a(vsnprintf.o)
 .debug_ranges  0x00000000000017d0       0x30 0x1 /home/ashwin/pcn_compiler_lkvm/x86_64/lib/libc.a(vsscanf.o)
 .debug_ranges  0x0000000000001800       0x30 0x1 /home/ashwin/pcn_compiler_lkvm/x86_64/lib/libc.a(atoi.o)
 .debug_ranges  0x0000000000001830       0x80 0x1 /home/ashwin/pcn_compiler_lkvm/x86_64/lib/libc.a(strtol.o)
 .debug_ranges  0x00000000000018b0       0x30 0x1 /home/ashwin/pcn_compiler_lkvm/x86_64/lib/libc.a(strncasecmp.o)
 .debug_ranges  0x00000000000018e0       0xd0 0x1 /home/ashwin/pcn_compiler_lkvm/x86_64/lib/libc.a(strstr.o)
 .debug_ranges  0x00000000000019b0       0x60 0x1 /home/ashwin/pcn_compiler_lkvm/x86_64/lib/libc.a(__lock.o)
 .debug_ranges  0x0000000000001a10       0x30 0x1 /home/ashwin/pcn_compiler_lkvm/x86_64/lib/libc.a(__syscall_cp.o)
 .debug_ranges  0x0000000000001a40       0x40 0x1 /home/ashwin/pcn_compiler_lkvm/x86_64/lib/libc.a(pthread_cleanup_push.o)
 .debug_ranges  0x0000000000001a80      0x110 0x1 /home/ashwin/pcn_compiler_lkvm/x86_64/lib/libc.a(pthread_cond_timedwait.o)
 .debug_ranges  0x0000000000001b90       0xb0 0x1 /home/ashwin/pcn_compiler_lkvm/x86_64/lib/libc.a(pthread_create.o)
 .debug_ranges  0x0000000000001c40       0x40 0x1 /home/ashwin/pcn_compiler_lkvm/x86_64/lib/libc.a(pthread_join.o)
 .debug_ranges  0x0000000000001c80       0x30 0x1 /home/ashwin/pcn_compiler_lkvm/x86_64/lib/libc.a(pthread_mutex_trylock.o)
 .debug_ranges  0x0000000000001cb0       0x30 0x1 /home/ashwin/pcn_compiler_lkvm/x86_64/lib/libc.a(pthread_testcancel.o)
 .debug_ranges  0x0000000000001ce0       0x40 0x1 /home/ashwin/pcn_compiler_lkvm/x86_64/lib/libc.a(vmlock.o)
 .debug_ranges  0x0000000000001d20       0x30 0x1 /home/ashwin/pcn_compiler_lkvm/x86_64/lib/libc.a(close.o)
 .debug_ranges  0x0000000000001d50       0x30 0x1 /home/ashwin/pcn_compiler_lkvm/x86_64/lib/libc.a(tolower.o)
 .debug_ranges  0x0000000000001d80       0x40 0x1 /home/ashwin/pcn_compiler_lkvm/x86_64/lib/libc.a(__init_tls.o)
 .debug_ranges  0x0000000000001dc0       0x40 0x1 /home/ashwin/pcn_compiler_lkvm/x86_64/lib/libc.a(platform.o)
 .debug_ranges  0x0000000000001e00      0x320 0x1 /home/ashwin/pcn_compiler_lkvm/x86_64/lib/libc.a(floatscan.o)
 .debug_ranges  0x0000000000002120       0x70 0x1 /home/ashwin/pcn_compiler_lkvm/x86_64/lib/libc.a(intscan.o)
 .debug_ranges  0x0000000000002190       0x30 0x1 /home/ashwin/pcn_compiler_lkvm/x86_64/lib/libc.a(shgetc.o)
 .debug_ranges  0x00000000000021c0       0xa0 0x1 /home/ashwin/pcn_compiler_lkvm/x86_64/lib/libc.a(expand_heap.o)
 .debug_ranges  0x0000000000002260       0x40 0x1 /home/ashwin/pcn_compiler_lkvm/x86_64/lib/libc.a(sigaction.o)
 .debug_ranges  0x00000000000022a0       0x60 0x1 /home/ashwin/pcn_compiler_lkvm/x86_64/lib/libc.a(__lockfile.o)
 .debug_ranges  0x0000000000002300       0x30 0x1 /home/ashwin/pcn_compiler_lkvm/x86_64/lib/libc.a(__stdio_close.o)
 .debug_ranges  0x0000000000002330       0x30 0x1 /home/ashwin/pcn_compiler_lkvm/x86_64/lib/libc.a(__stdio_write.o)
 .debug_ranges  0x0000000000002360       0x30 0x1 /home/ashwin/pcn_compiler_lkvm/x86_64/lib/libc.a(__towrite.o)
 .debug_ranges  0x0000000000002390       0x30 0x1 /home/ashwin/pcn_compiler_lkvm/x86_64/lib/libc.a(fwrite.o)
 .debug_ranges  0x00000000000023c0       0x30 0x1 /home/ashwin/pcn_compiler_lkvm/x86_64/lib/libc.a(__timedwait.o)
 .debug_ranges  0x00000000000023f0      0x1b0 0x1 /home/ashwin/pcn_compiler_lkvm/x86_64/lib/libc.a(__tz.o)
 .debug_ranges  0x00000000000025a0       0x30 0x1 /home/ashwin/pcn_compiler_lkvm/x86_64/lib/libc.a(__year_to_secs.o)
 .debug_ranges  0x00000000000025d0       0x30 0x1 /home/ashwin/pcn_compiler_lkvm/x86_64/lib/libc.a(__stdio_exit.o)
 .debug_ranges  0x0000000000002600       0x30 0x1 /home/ashwin/pcn_compiler_lkvm/x86_64/lib/libc.a(__toread.o)

.stack_transform.unwind
                0x0000000000000000       0x30
 .stack_transform.unwind
                0x0000000000000000       0x18 0x4 /home/ashwin/pcn_compiler_lkvm/x86_64/lib/libc.a(__libc_start_main.o)
 .stack_transform.unwind
                0x0000000000000018       0x18 0x4 /home/ashwin/pcn_compiler_lkvm/x86_64/lib/libc.a(pthread_create.o)

.stack_transform.unwind_arange
                0x0000000000000000       0x30
 .stack_transform.unwind_arange
                0x0000000000000000       0x10 0x8 /home/ashwin/pcn_compiler_lkvm/x86_64/lib/libc.a(__libc_start_main.o)
 .stack_transform.unwind_arange
                0x0000000000000010       0x20 0x8 /home/ashwin/pcn_compiler_lkvm/x86_64/lib/libc.a(pthread_create.o)

.note.gnu.gold-version
                0x0000000000000000       0x1c
 ** note header
                0x0000000000000000       0x10
 ** fill        0x0000000000000010        0x9
 ** zero fill   0x0000000000000019        0x3

.symtab         0x0000000000000000     0xbfd0
 ** symtab      0x0000000000000000     0xbfd0

.strtab         0x0000000000000000     0x6956
 ** string table
                0x0000000000000000     0x6956

.shstrtab       0x0000000000000000      0x134
 ** string table
                0x0000000000000000      0x134
