Archive member included because of file (symbol)

/home/ashwin/pop-compiler-lkvm/x86_64/lib/libc.a(sysconf.o)
                              builtin-run.o (sysconf)
/home/ashwin/pop-compiler-lkvm/x86_64/lib/libc.a(closedir.o)
                              kvm-ipc.o (closedir)
/home/ashwin/pop-compiler-lkvm/x86_64/lib/libc.a(dirfd.o)
                              virtio/9p.o (dirfd)
/home/ashwin/pop-compiler-lkvm/x86_64/lib/libc.a(opendir.o)
                              builtin-list.o (opendir)
/home/ashwin/pop-compiler-lkvm/x86_64/lib/libc.a(readdir.o)
                              builtin-list.o (readdir)
/home/ashwin/pop-compiler-lkvm/x86_64/lib/libc.a(readdir_r.o)
                              kvm-ipc.o (readdir_r)
/home/ashwin/pop-compiler-lkvm/x86_64/lib/libc.a(seekdir.o)
                              virtio/9p.o (seekdir)
/home/ashwin/pop-compiler-lkvm/x86_64/lib/libc.a(__libc_start_main.o)
                              /home/ashwin/pop-compiler-lkvm/x86_64/lib/crt1.o (__libc_start_main)
/home/ashwin/pop-compiler-lkvm/x86_64/lib/libc.a(getenv.o)
                              main.o (getenv)
/home/ashwin/pop-compiler-lkvm/x86_64/lib/libc.a(__errno_location.o)
                              builtin-run.o (__errno_location)
/home/ashwin/pop-compiler-lkvm/x86_64/lib/libc.a(strerror.o)
                              builtin-run.o (strerror)
/home/ashwin/pop-compiler-lkvm/x86_64/lib/libc.a(atexit.o)
                              term.o (atexit)
/home/ashwin/pop-compiler-lkvm/x86_64/lib/libc.a(exit.o)
                              util/parse-options.o (exit)
/home/ashwin/pop-compiler-lkvm/x86_64/lib/libc.a(fcntl.o)
                              net/uip/udp.o (fcntl)
/home/ashwin/pop-compiler-lkvm/x86_64/lib/libc.a(open.o)
                              builtin-run.o (open)
/home/ashwin/pop-compiler-lkvm/x86_64/lib/libc.a(libc.o)
                              /home/ashwin/pop-compiler-lkvm/x86_64/lib/libc.a(__libc_start_main.o) (__hwcap)
/home/ashwin/pop-compiler-lkvm/x86_64/lib/libc.a(syscall_ret.o)
                              /home/ashwin/pop-compiler-lkvm/x86_64/lib/libc.a(fcntl.o) (__syscall_ret)
/home/ashwin/pop-compiler-lkvm/x86_64/lib/libc.a(getpagesize.o)
                              util/util.o (getpagesize)
/home/ashwin/pop-compiler-lkvm/x86_64/lib/libc.a(epoll.o)
                              ioeventfd.o (epoll_create)
/home/ashwin/pop-compiler-lkvm/x86_64/lib/libc.a(eventfd.o)
                              kvm_common.o (eventfd)
/home/ashwin/pop-compiler-lkvm/x86_64/lib/libc.a(prctl.o)
                              builtin-run.o (prctl)
/home/ashwin/pop-compiler-lkvm/x86_64/lib/libc.a(sysinfo.o)
                              /home/ashwin/pop-compiler-lkvm/x86_64/lib/libc.a(sysconf.o) (__lsysinfo)
/home/ashwin/pop-compiler-lkvm/x86_64/lib/libc.a(__lctrans.o)
                              /home/ashwin/pop-compiler-lkvm/x86_64/lib/libc.a(strerror.o) (__lctrans)
/home/ashwin/pop-compiler-lkvm/x86_64/lib/libc.a(calloc.o)
                              kvm-cpu_common.o (calloc)
/home/ashwin/pop-compiler-lkvm/x86_64/lib/libc.a(lite_malloc.o)
                              /home/ashwin/pop-compiler-lkvm/x86_64/lib/libc.a(calloc.o) (__malloc0)
/home/ashwin/pop-compiler-lkvm/x86_64/lib/libc.a(malloc.o)
                              builtin-run.o (free)
/home/ashwin/pop-compiler-lkvm/x86_64/lib/libc.a(popcorn_malloc.o)
                              /home/ashwin/pop-compiler-lkvm/x86_64/lib/libc.a(calloc.o) (__popcorn_malloc0)
/home/ashwin/pop-compiler-lkvm/x86_64/lib/libc.a(getrlimit.o)
                              /home/ashwin/pop-compiler-lkvm/x86_64/lib/libc.a(sysconf.o) (getrlimit)
/home/ashwin/pop-compiler-lkvm/x86_64/lib/libc.a(ioctl.o)
                              kvm-cpu_common.o (ioctl)
/home/ashwin/pop-compiler-lkvm/x86_64/lib/libc.a(mntent.o)
                              disk/blk.o (getmntent)
/home/ashwin/pop-compiler-lkvm/x86_64/lib/libc.a(openpty.o)
                              term.o (openpty)
/home/ashwin/pop-compiler-lkvm/x86_64/lib/libc.a(realpath.o)
                              builtin-run.o (realpath)
/home/ashwin/pop-compiler-lkvm/x86_64/lib/libc.a(uname.o)
                              builtin-run.o (uname)
/home/ashwin/pop-compiler-lkvm/x86_64/lib/libc.a(madvise.o)
                              /home/ashwin/pop-compiler-lkvm/x86_64/lib/libc.a(malloc.o) (__madvise)
/home/ashwin/pop-compiler-lkvm/x86_64/lib/libc.a(mmap.o)
                              /home/ashwin/pop-compiler-lkvm/x86_64/lib/libc.a(malloc.o) (__mmap)
/home/ashwin/pop-compiler-lkvm/x86_64/lib/libc.a(mprotect.o)
                              x86/kvm.o (mprotect)
/home/ashwin/pop-compiler-lkvm/x86_64/lib/libc.a(mremap.o)
                              /home/ashwin/pop-compiler-lkvm/x86_64/lib/libc.a(malloc.o) (__mremap)
/home/ashwin/pop-compiler-lkvm/x86_64/lib/libc.a(munmap.o)
                              /home/ashwin/pop-compiler-lkvm/x86_64/lib/libc.a(malloc.o) (__munmap)
/home/ashwin/pop-compiler-lkvm/x86_64/lib/libc.a(shm_open.o)
                              hw/pci-shmem.o (shm_open)
/home/ashwin/pop-compiler-lkvm/x86_64/lib/libc.a(accept.o)
                              kvm-ipc.o (accept)
/home/ashwin/pop-compiler-lkvm/x86_64/lib/libc.a(bind.o)
                              kvm-ipc.o (bind)
/home/ashwin/pop-compiler-lkvm/x86_64/lib/libc.a(connect.o)
                              net/uip/tcp.o (connect)
/home/ashwin/pop-compiler-lkvm/x86_64/lib/libc.a(htonl.o)
                              net/uip/arp.o (htonl)
/home/ashwin/pop-compiler-lkvm/x86_64/lib/libc.a(htons.o)
                              net/uip/arp.o (htons)
/home/ashwin/pop-compiler-lkvm/x86_64/lib/libc.a(inet_addr.o)
                              virtio/net.o (inet_addr)
/home/ashwin/pop-compiler-lkvm/x86_64/lib/libc.a(inet_aton.o)
                              /home/ashwin/pop-compiler-lkvm/x86_64/lib/libc.a(inet_addr.o) (__inet_aton)
/home/ashwin/pop-compiler-lkvm/x86_64/lib/libc.a(listen.o)
                              kvm-ipc.o (listen)
/home/ashwin/pop-compiler-lkvm/x86_64/lib/libc.a(ntohl.o)
                              virtio/net.o (ntohl)
/home/ashwin/pop-compiler-lkvm/x86_64/lib/libc.a(ntohs.o)
                              net/uip/core.o (ntohs)
/home/ashwin/pop-compiler-lkvm/x86_64/lib/libc.a(recvfrom.o)
                              net/uip/udp.o (recvfrom)
/home/ashwin/pop-compiler-lkvm/x86_64/lib/libc.a(sendto.o)
                              net/uip/udp.o (sendto)
/home/ashwin/pop-compiler-lkvm/x86_64/lib/libc.a(shutdown.o)
                              net/uip/tcp.o (shutdown)
/home/ashwin/pop-compiler-lkvm/x86_64/lib/libc.a(socket.o)
                              virtio/net.o (socket)
/home/ashwin/pop-compiler-lkvm/x86_64/lib/libc.a(execl.o)
                              virtio/net.o (execl)
/home/ashwin/pop-compiler-lkvm/x86_64/lib/libc.a(execv.o)
                              /home/ashwin/pop-compiler-lkvm/x86_64/lib/libc.a(execl.o) (execv)
/home/ashwin/pop-compiler-lkvm/x86_64/lib/libc.a(execve.o)
                              /home/ashwin/pop-compiler-lkvm/x86_64/lib/libc.a(execv.o) (execve)
/home/ashwin/pop-compiler-lkvm/x86_64/lib/libc.a(fork.o)
                              virtio/net.o (fork)
/home/ashwin/pop-compiler-lkvm/x86_64/lib/libc.a(waitpid.o)
                              virtio/net.o (waitpid)
/home/ashwin/pop-compiler-lkvm/x86_64/lib/libc.a(poll.o)
                              term.o (poll)
/home/ashwin/pop-compiler-lkvm/x86_64/lib/libc.a(select.o)
                              builtin-stat.o (select)
/home/ashwin/pop-compiler-lkvm/x86_64/lib/libc.a(block.o)
                              /home/ashwin/pop-compiler-lkvm/x86_64/lib/libc.a(fork.o) (__block_all_sigs)
/home/ashwin/pop-compiler-lkvm/x86_64/lib/libc.a(raise.o)
                              term.o (raise)
/home/ashwin/pop-compiler-lkvm/x86_64/lib/libc.a(sigaddset.o)
                              kvm-cpu_common.o (sigaddset)
/home/ashwin/pop-compiler-lkvm/x86_64/lib/libc.a(sigemptyset.o)
                              kvm-cpu_common.o (sigemptyset)
/home/ashwin/pop-compiler-lkvm/x86_64/lib/libc.a(signal.o)
                              kvm-cpu_common.o (signal)
/home/ashwin/pop-compiler-lkvm/x86_64/lib/libc.a(sigrtmin.o)
                              kvm-cpu_common.o (__libc_current_sigrtmin)
/home/ashwin/pop-compiler-lkvm/x86_64/lib/libc.a(chmod.o)
                              virtio/9p.o (chmod)
/home/ashwin/pop-compiler-lkvm/x86_64/lib/libc.a(fstat.o)
                              builtin-setup.o (fstat)
/home/ashwin/pop-compiler-lkvm/x86_64/lib/libc.a(lstat.o)
                              virtio/9p.o (lstat)
/home/ashwin/pop-compiler-lkvm/x86_64/lib/libc.a(mkdir.o)
                              builtin-setup.o (mkdir)
/home/ashwin/pop-compiler-lkvm/x86_64/lib/libc.a(mknod.o)
                              virtio/9p.o (mknod)
/home/ashwin/pop-compiler-lkvm/x86_64/lib/libc.a(stat.o)
                              builtin-run.o (stat)
/home/ashwin/pop-compiler-lkvm/x86_64/lib/libc.a(statvfs.o)
                              util/util.o (statfs)
/home/ashwin/pop-compiler-lkvm/x86_64/lib/libc.a(utimensat.o)
                              virtio/9p.o (utimensat)
/home/ashwin/pop-compiler-lkvm/x86_64/lib/libc.a(dprintf.o)
                              x86/kvm-cpu.o (dprintf)
/home/ashwin/pop-compiler-lkvm/x86_64/lib/libc.a(fclose.o)
                              builtin-setup.o (fclose)
/home/ashwin/pop-compiler-lkvm/x86_64/lib/libc.a(feof.o)
                              net/uip/dhcp.o (feof)
/home/ashwin/pop-compiler-lkvm/x86_64/lib/libc.a(ferror.o)
                              /home/ashwin/pop-compiler-lkvm/x86_64/lib/libc.a(mntent.o) (ferror)
/home/ashwin/pop-compiler-lkvm/x86_64/lib/libc.a(fflush.o)
                              kvm-ipc.o (fflush)
/home/ashwin/pop-compiler-lkvm/x86_64/lib/libc.a(fgets.o)
                              /home/ashwin/pop-compiler-lkvm/x86_64/lib/libc.a(mntent.o) (fgets)
/home/ashwin/pop-compiler-lkvm/x86_64/lib/libc.a(fopen.o)
                              builtin-setup.o (fopen)
/home/ashwin/pop-compiler-lkvm/x86_64/lib/libc.a(fprintf.o)
                              builtin-run.o (fprintf)
/home/ashwin/pop-compiler-lkvm/x86_64/lib/libc.a(fputc.o)
                              util/parse-options.o (fputc)
/home/ashwin/pop-compiler-lkvm/x86_64/lib/libc.a(fscanf.o)
                              net/uip/dhcp.o (fscanf)
/home/ashwin/pop-compiler-lkvm/x86_64/lib/libc.a(fseek.o)
                              /home/ashwin/pop-compiler-lkvm/x86_64/lib/libc.a(mntent.o) (fseek)
/home/ashwin/pop-compiler-lkvm/x86_64/lib/libc.a(fwrite.o)
                              builtin-run.o (fwrite)
/home/ashwin/pop-compiler-lkvm/x86_64/lib/libc.a(getline.o)
                              /home/ashwin/pop-compiler-lkvm/x86_64/lib/libc.a(mntent.o) (getline)
/home/ashwin/pop-compiler-lkvm/x86_64/lib/libc.a(ofl.o)
                              /home/ashwin/pop-compiler-lkvm/x86_64/lib/libc.a(fclose.o) (__ofl_lock)
/home/ashwin/pop-compiler-lkvm/x86_64/lib/libc.a(perror.o)
                              builtin-list.o (perror)
/home/ashwin/pop-compiler-lkvm/x86_64/lib/libc.a(printf.o)
                              builtin-debug.o (printf)
/home/ashwin/pop-compiler-lkvm/x86_64/lib/libc.a(putchar.o)
                              builtin-stat.o (putchar)
/home/ashwin/pop-compiler-lkvm/x86_64/lib/libc.a(puts.o)
                              builtin-help.o (puts)
/home/ashwin/pop-compiler-lkvm/x86_64/lib/libc.a(remove.o)
                              builtin-run.o (remove)
/home/ashwin/pop-compiler-lkvm/x86_64/lib/libc.a(rename.o)
                              virtio/9p.o (rename)
/home/ashwin/pop-compiler-lkvm/x86_64/lib/libc.a(snprintf.o)
                              builtin-run.o (snprintf)
/home/ashwin/pop-compiler-lkvm/x86_64/lib/libc.a(sprintf.o)
                              builtin-run.o (sprintf)
/home/ashwin/pop-compiler-lkvm/x86_64/lib/libc.a(sscanf.o)
                              virtio/net.o (sscanf)
/home/ashwin/pop-compiler-lkvm/x86_64/lib/libc.a(stderr.o)
                              builtin-run.o (stderr)
/home/ashwin/pop-compiler-lkvm/x86_64/lib/libc.a(stdout.o)
                              kvm-ipc.o (stdout)
/home/ashwin/pop-compiler-lkvm/x86_64/lib/libc.a(vdprintf.o)
                              /home/ashwin/pop-compiler-lkvm/x86_64/lib/libc.a(dprintf.o) (vdprintf)
/home/ashwin/pop-compiler-lkvm/x86_64/lib/libc.a(vfprintf.o)
                              /home/ashwin/pop-compiler-lkvm/x86_64/lib/libc.a(fprintf.o) (vfprintf)
/home/ashwin/pop-compiler-lkvm/x86_64/lib/libc.a(vfscanf.o)
                              /home/ashwin/pop-compiler-lkvm/x86_64/lib/libc.a(fscanf.o) (vfscanf)
/home/ashwin/pop-compiler-lkvm/x86_64/lib/libc.a(vsnprintf.o)
                              kvm_common.o (vsnprintf)
/home/ashwin/pop-compiler-lkvm/x86_64/lib/libc.a(vsprintf.o)
                              /home/ashwin/pop-compiler-lkvm/x86_64/lib/libc.a(sprintf.o) (vsprintf)
/home/ashwin/pop-compiler-lkvm/x86_64/lib/libc.a(vsscanf.o)
                              /home/ashwin/pop-compiler-lkvm/x86_64/lib/libc.a(sscanf.o) (vsscanf)
/home/ashwin/pop-compiler-lkvm/x86_64/lib/libc.a(atoi.o)
                              term.o (atoi)
/home/ashwin/pop-compiler-lkvm/x86_64/lib/libc.a(strtol.o)
                              virtio/scsi.o (strtol)
/home/ashwin/pop-compiler-lkvm/x86_64/lib/libc.a(memchr.o)
                              /home/ashwin/pop-compiler-lkvm/x86_64/lib/libc.a(fgets.o) (memchr)
/home/ashwin/pop-compiler-lkvm/x86_64/lib/libc.a(strcasestr.o)
                              hw/pci-shmem.o (strcasestr)
/home/ashwin/pop-compiler-lkvm/x86_64/lib/libc.a(strchr.o)
                              disk/core.o (strchr)
/home/ashwin/pop-compiler-lkvm/x86_64/lib/libc.a(strchrnul.o)
                              /home/ashwin/pop-compiler-lkvm/x86_64/lib/libc.a(getenv.o) (__strchrnul)
/home/ashwin/pop-compiler-lkvm/x86_64/lib/libc.a(strcmp.o)
                              builtin-list.o (strcmp)
/home/ashwin/pop-compiler-lkvm/x86_64/lib/libc.a(strcpy.o)
                              virtio/9p.o (strcpy)
/home/ashwin/pop-compiler-lkvm/x86_64/lib/libc.a(strdup.o)
                              guest_compat.o (strdup)
/home/ashwin/pop-compiler-lkvm/x86_64/lib/libc.a(strlen.o)
                              builtin-help.o (strlen)
/home/ashwin/pop-compiler-lkvm/x86_64/lib/libc.a(strncasecmp.o)
                              /home/ashwin/pop-compiler-lkvm/x86_64/lib/libc.a(strcasestr.o) (strncasecmp)
/home/ashwin/pop-compiler-lkvm/x86_64/lib/libc.a(strncmp.o)
                              builtin-run.o (strncmp)
/home/ashwin/pop-compiler-lkvm/x86_64/lib/libc.a(strncpy.o)
                              x86/bios.o (strncpy)
/home/ashwin/pop-compiler-lkvm/x86_64/lib/libc.a(strndup.o)
                              net/uip/dhcp.o (strndup)
/home/ashwin/pop-compiler-lkvm/x86_64/lib/libc.a(strnlen.o)
                              /home/ashwin/pop-compiler-lkvm/x86_64/lib/libc.a(vfprintf.o) (strnlen)
/home/ashwin/pop-compiler-lkvm/x86_64/lib/libc.a(strspn.o)
                              hw/pci-shmem.o (strspn)
/home/ashwin/pop-compiler-lkvm/x86_64/lib/libc.a(strstr.o)
                              builtin-run.o (strstr)
/home/ashwin/pop-compiler-lkvm/x86_64/lib/libc.a(strtok.o)
                              virtio/net.o (strtok)
/home/ashwin/pop-compiler-lkvm/x86_64/lib/libc.a(memcpy.o)
                              x86/bios.o (memcpy)
/home/ashwin/pop-compiler-lkvm/x86_64/lib/libc.a(memmove.o)
                              util/parse-options.o (memmove)
/home/ashwin/pop-compiler-lkvm/x86_64/lib/libc.a(memset.o)
                              x86/bios.o (memset)
/home/ashwin/pop-compiler-lkvm/x86_64/lib/libc.a(mkstemp.o)
                              util/util.o (mkstemp)
/home/ashwin/pop-compiler-lkvm/x86_64/lib/libc.a(tcgetattr.o)
                              term.o (tcgetattr)
/home/ashwin/pop-compiler-lkvm/x86_64/lib/libc.a(tcsetattr.o)
                              term.o (tcsetattr)
/home/ashwin/pop-compiler-lkvm/x86_64/lib/libc.a(__lock.o)
                              /home/ashwin/pop-compiler-lkvm/x86_64/lib/libc.a(readdir_r.o) (__lock)
/home/ashwin/pop-compiler-lkvm/x86_64/lib/libc.a(__syscall_cp.o)
                              /home/ashwin/pop-compiler-lkvm/x86_64/lib/libc.a(fcntl.o) (__syscall_cp)
/home/ashwin/pop-compiler-lkvm/x86_64/lib/libc.a(__wait.o)
                              /home/ashwin/pop-compiler-lkvm/x86_64/lib/libc.a(malloc.o) (__wait)
/home/ashwin/pop-compiler-lkvm/x86_64/lib/libc.a(pthread_cleanup_push.o)
                              util/threadpool.o (_pthread_cleanup_pop)
/home/ashwin/pop-compiler-lkvm/x86_64/lib/libc.a(pthread_cond_init.o)
                              virtio/console.o (pthread_cond_init)
/home/ashwin/pop-compiler-lkvm/x86_64/lib/libc.a(pthread_cond_signal.o)
                              virtio/console.o (pthread_cond_signal)
/home/ashwin/pop-compiler-lkvm/x86_64/lib/libc.a(pthread_cond_timedwait.o)
                              /home/ashwin/pop-compiler-lkvm/x86_64/lib/libc.a(pthread_cond_signal.o) (__private_cond_signal)
/home/ashwin/pop-compiler-lkvm/x86_64/lib/libc.a(pthread_cond_wait.o)
                              virtio/console.o (pthread_cond_wait)
/home/ashwin/pop-compiler-lkvm/x86_64/lib/libc.a(pthread_create.o)
                              builtin-run.o (pthread_create)
/home/ashwin/pop-compiler-lkvm/x86_64/lib/libc.a(pthread_join.o)
                              builtin-run.o (pthread_join)
/home/ashwin/pop-compiler-lkvm/x86_64/lib/libc.a(pthread_kill.o)
                              kvm-cpu_common.o (pthread_kill)
/home/ashwin/pop-compiler-lkvm/x86_64/lib/libc.a(pthread_mutex_init.o)
                              virtio/net.o (pthread_mutex_init)
/home/ashwin/pop-compiler-lkvm/x86_64/lib/libc.a(pthread_mutex_lock.o)
                              guest_compat.o (pthread_mutex_lock)
/home/ashwin/pop-compiler-lkvm/x86_64/lib/libc.a(pthread_mutex_timedlock.o)
                              /home/ashwin/pop-compiler-lkvm/x86_64/lib/libc.a(pthread_mutex_lock.o) (__pthread_mutex_timedlock)
/home/ashwin/pop-compiler-lkvm/x86_64/lib/libc.a(pthread_mutex_trylock.o)
                              /home/ashwin/pop-compiler-lkvm/x86_64/lib/libc.a(pthread_mutex_timedlock.o) (pthread_mutex_trylock)
/home/ashwin/pop-compiler-lkvm/x86_64/lib/libc.a(pthread_mutex_unlock.o)
                              /home/ashwin/pop-compiler-lkvm/x86_64/lib/libc.a(pthread_cond_timedwait.o) (__pthread_mutex_unlock)
/home/ashwin/pop-compiler-lkvm/x86_64/lib/libc.a(pthread_rwlock_rdlock.o)
                              kvm-ipc.o (pthread_rwlock_rdlock)
/home/ashwin/pop-compiler-lkvm/x86_64/lib/libc.a(pthread_rwlock_timedrdlock.o)
                              /home/ashwin/pop-compiler-lkvm/x86_64/lib/libc.a(pthread_rwlock_rdlock.o) (pthread_rwlock_timedrdlock)
/home/ashwin/pop-compiler-lkvm/x86_64/lib/libc.a(pthread_rwlock_tryrdlock.o)
                              /home/ashwin/pop-compiler-lkvm/x86_64/lib/libc.a(pthread_rwlock_timedrdlock.o) (pthread_rwlock_tryrdlock)
/home/ashwin/pop-compiler-lkvm/x86_64/lib/libc.a(pthread_rwlock_unlock.o)
                              kvm-ipc.o (pthread_rwlock_unlock)
/home/ashwin/pop-compiler-lkvm/x86_64/lib/libc.a(pthread_rwlock_wrlock.o)
                              kvm-ipc.o (pthread_rwlock_wrlock)
/home/ashwin/pop-compiler-lkvm/x86_64/lib/libc.a(pthread_setcancelstate.o)
                              /home/ashwin/pop-compiler-lkvm/x86_64/lib/libc.a(pthread_cond_timedwait.o) (__pthread_setcancelstate)
/home/ashwin/pop-compiler-lkvm/x86_64/lib/libc.a(pthread_sigmask.o)
                              kvm-cpu_common.o (pthread_sigmask)
/home/ashwin/pop-compiler-lkvm/x86_64/lib/libc.a(pthread_testcancel.o)
                              /home/ashwin/pop-compiler-lkvm/x86_64/lib/libc.a(pthread_cond_timedwait.o) (__pthread_testcancel)
/home/ashwin/pop-compiler-lkvm/x86_64/lib/libc.a(vmlock.o)
                              /home/ashwin/pop-compiler-lkvm/x86_64/lib/libc.a(pthread_create.o) (__vm_lock)
/home/ashwin/pop-compiler-lkvm/x86_64/lib/libc.a(__cleartid_exit_nostack.o)
                              /home/ashwin/pop-compiler-lkvm/x86_64/lib/libc.a(pthread_create.o) (__cleartid_exit_nostack)
/home/ashwin/pop-compiler-lkvm/x86_64/lib/libc.a(__unmapself.o)
                              /home/ashwin/pop-compiler-lkvm/x86_64/lib/libc.a(pthread_create.o) (__unmapself)
/home/ashwin/pop-compiler-lkvm/x86_64/lib/libc.a(clone.o)
                              /home/ashwin/pop-compiler-lkvm/x86_64/lib/libc.a(pthread_create.o) (__clone)
/home/ashwin/pop-compiler-lkvm/x86_64/lib/libc.a(gmtime.o)
                              hw/rtc.o (gmtime)
/home/ashwin/pop-compiler-lkvm/x86_64/lib/libc.a(gmtime_r.o)
                              /home/ashwin/pop-compiler-lkvm/x86_64/lib/libc.a(gmtime.o) (__gmtime_r)
/home/ashwin/pop-compiler-lkvm/x86_64/lib/libc.a(time.o)
                              hw/rtc.o (time)
/home/ashwin/pop-compiler-lkvm/x86_64/lib/libc.a(_exit.o)
                              virtio/net.o (_exit)
/home/ashwin/pop-compiler-lkvm/x86_64/lib/libc.a(access.o)
                              kvm-ipc.o (access)
/home/ashwin/pop-compiler-lkvm/x86_64/lib/libc.a(close.o)
                              builtin-balloon.o (close)
/home/ashwin/pop-compiler-lkvm/x86_64/lib/libc.a(fdatasync.o)
                              disk/qcow.o (fdatasync)
/home/ashwin/pop-compiler-lkvm/x86_64/lib/libc.a(fsync.o)
                              builtin-setup.o (fsync)
/home/ashwin/pop-compiler-lkvm/x86_64/lib/libc.a(ftruncate.o)
                              builtin-setup.o (ftruncate)
/home/ashwin/pop-compiler-lkvm/x86_64/lib/libc.a(getpid.o)
                              builtin-run.o (getpid)
/home/ashwin/pop-compiler-lkvm/x86_64/lib/libc.a(isatty.o)
                              term.o (isatty)
/home/ashwin/pop-compiler-lkvm/x86_64/lib/libc.a(lchown.o)
                              virtio/9p.o (lchown)
/home/ashwin/pop-compiler-lkvm/x86_64/lib/libc.a(link.o)
                              virtio/9p.o (link)
/home/ashwin/pop-compiler-lkvm/x86_64/lib/libc.a(lseek.o)
                              kvm_common.o (lseek)
/home/ashwin/pop-compiler-lkvm/x86_64/lib/libc.a(pread.o)
                              util/read-write.o (pread)
/home/ashwin/pop-compiler-lkvm/x86_64/lib/libc.a(preadv.o)
                              util/read-write.o (preadv)
/home/ashwin/pop-compiler-lkvm/x86_64/lib/libc.a(pwrite.o)
                              util/read-write.o (pwrite)
/home/ashwin/pop-compiler-lkvm/x86_64/lib/libc.a(pwritev.o)
                              util/read-write.o (pwritev)
/home/ashwin/pop-compiler-lkvm/x86_64/lib/libc.a(read.o)
                              builtin-list.o (read)
/home/ashwin/pop-compiler-lkvm/x86_64/lib/libc.a(readlink.o)
                              virtio/9p.o (readlink)
/home/ashwin/pop-compiler-lkvm/x86_64/lib/libc.a(readv.o)
                              virtio/net.o (readv)
/home/ashwin/pop-compiler-lkvm/x86_64/lib/libc.a(sleep.o)
                              virtio/net.o (sleep)
/home/ashwin/pop-compiler-lkvm/x86_64/lib/libc.a(symlink.o)
                              builtin-run.o (symlink)
/home/ashwin/pop-compiler-lkvm/x86_64/lib/libc.a(truncate.o)
                              virtio/9p.o (truncate)
/home/ashwin/pop-compiler-lkvm/x86_64/lib/libc.a(unlink.o)
                              kvm-ipc.o (unlink)
/home/ashwin/pop-compiler-lkvm/x86_64/lib/libc.a(usleep.o)
                              disk/core.o (usleep)
/home/ashwin/pop-compiler-lkvm/x86_64/lib/libc.a(write.o)
                              builtin-run.o (write)
/home/ashwin/pop-compiler-lkvm/x86_64/lib/libc.a(writev.o)
                              term.o (writev)
/home/ashwin/pop-compiler-lkvm/x86_64/lib/libc.a(tolower.o)
                              /home/ashwin/pop-compiler-lkvm/x86_64/lib/libc.a(strncasecmp.o) (tolower)
/home/ashwin/pop-compiler-lkvm/x86_64/lib/libc.a(__environ.o)
                              /home/ashwin/pop-compiler-lkvm/x86_64/lib/libc.a(__libc_start_main.o) (__environ)
/home/ashwin/pop-compiler-lkvm/x86_64/lib/libc.a(__init_tls.o)
                              /home/ashwin/pop-compiler-lkvm/x86_64/lib/libc.a(pthread_create.o) (__copy_tls)
/home/ashwin/pop-compiler-lkvm/x86_64/lib/libc.a(platform.o)
                              /home/ashwin/pop-compiler-lkvm/x86_64/lib/libc.a(calloc.o) (popcorn_getnid)
/home/ashwin/pop-compiler-lkvm/x86_64/lib/libc.a(_Exit.o)
                              /home/ashwin/pop-compiler-lkvm/x86_64/lib/libc.a(exit.o) (_Exit)
/home/ashwin/pop-compiler-lkvm/x86_64/lib/libc.a(floatscan.o)
                              /home/ashwin/pop-compiler-lkvm/x86_64/lib/libc.a(vfscanf.o) (__floatscan)
/home/ashwin/pop-compiler-lkvm/x86_64/lib/libc.a(intscan.o)
                              /home/ashwin/pop-compiler-lkvm/x86_64/lib/libc.a(vfscanf.o) (__intscan)
/home/ashwin/pop-compiler-lkvm/x86_64/lib/libc.a(procfdname.o)
                              /home/ashwin/pop-compiler-lkvm/x86_64/lib/libc.a(realpath.o) (__procfdname)
/home/ashwin/pop-compiler-lkvm/x86_64/lib/libc.a(shgetc.o)
                              /home/ashwin/pop-compiler-lkvm/x86_64/lib/libc.a(vfscanf.o) (__shgetc)
/home/ashwin/pop-compiler-lkvm/x86_64/lib/libc.a(syscall.o)
                              /home/ashwin/pop-compiler-lkvm/x86_64/lib/libc.a(__syscall_cp.o) (__syscall)
/home/ashwin/pop-compiler-lkvm/x86_64/lib/libc.a(expand_heap.o)
                              /home/ashwin/pop-compiler-lkvm/x86_64/lib/libc.a(lite_malloc.o) (__expand_heap)
/home/ashwin/pop-compiler-lkvm/x86_64/lib/libc.a(__fpclassifyl.o)
                              /home/ashwin/pop-compiler-lkvm/x86_64/lib/libc.a(vfprintf.o) (__fpclassifyl)
/home/ashwin/pop-compiler-lkvm/x86_64/lib/libc.a(__signbitl.o)
                              /home/ashwin/pop-compiler-lkvm/x86_64/lib/libc.a(vfprintf.o) (__signbitl)
/home/ashwin/pop-compiler-lkvm/x86_64/lib/libc.a(copysignl.o)
                              /home/ashwin/pop-compiler-lkvm/x86_64/lib/libc.a(floatscan.o) (copysignl)
/home/ashwin/pop-compiler-lkvm/x86_64/lib/libc.a(frexpl.o)
                              /home/ashwin/pop-compiler-lkvm/x86_64/lib/libc.a(vfprintf.o) (frexpl)
/home/ashwin/pop-compiler-lkvm/x86_64/lib/libc.a(scalbn.o)
                              /home/ashwin/pop-compiler-lkvm/x86_64/lib/libc.a(floatscan.o) (scalbn)
/home/ashwin/pop-compiler-lkvm/x86_64/lib/libc.a(scalbnl.o)
                              /home/ashwin/pop-compiler-lkvm/x86_64/lib/libc.a(floatscan.o) (scalbnl)
/home/ashwin/pop-compiler-lkvm/x86_64/lib/libc.a(fabs.o)
                              /home/ashwin/pop-compiler-lkvm/x86_64/lib/libc.a(floatscan.o) (fabs)
/home/ashwin/pop-compiler-lkvm/x86_64/lib/libc.a(fmodl.o)
                              /home/ashwin/pop-compiler-lkvm/x86_64/lib/libc.a(floatscan.o) (fmodl)
/home/ashwin/pop-compiler-lkvm/x86_64/lib/libc.a(mbrtowc.o)
                              /home/ashwin/pop-compiler-lkvm/x86_64/lib/libc.a(vfscanf.o) (mbrtowc)
/home/ashwin/pop-compiler-lkvm/x86_64/lib/libc.a(mbsinit.o)
                              /home/ashwin/pop-compiler-lkvm/x86_64/lib/libc.a(vfscanf.o) (mbsinit)
/home/ashwin/pop-compiler-lkvm/x86_64/lib/libc.a(wctomb.o)
                              /home/ashwin/pop-compiler-lkvm/x86_64/lib/libc.a(vfprintf.o) (wctomb)
/home/ashwin/pop-compiler-lkvm/x86_64/lib/libc.a(sigaction.o)
                              /home/ashwin/pop-compiler-lkvm/x86_64/lib/libc.a(signal.o) (__sigaction)
/home/ashwin/pop-compiler-lkvm/x86_64/lib/libc.a(restore.o)
                              /home/ashwin/pop-compiler-lkvm/x86_64/lib/libc.a(sigaction.o) (__restore_rt)
/home/ashwin/pop-compiler-lkvm/x86_64/lib/libc.a(__fdopen.o)
                              /home/ashwin/pop-compiler-lkvm/x86_64/lib/libc.a(fopen.o) (__fdopen)
/home/ashwin/pop-compiler-lkvm/x86_64/lib/libc.a(__fmodeflags.o)
                              /home/ashwin/pop-compiler-lkvm/x86_64/lib/libc.a(fopen.o) (__fmodeflags)
/home/ashwin/pop-compiler-lkvm/x86_64/lib/libc.a(__lockfile.o)
                              /home/ashwin/pop-compiler-lkvm/x86_64/lib/libc.a(fclose.o) (__lockfile)
/home/ashwin/pop-compiler-lkvm/x86_64/lib/libc.a(__overflow.o)
                              /home/ashwin/pop-compiler-lkvm/x86_64/lib/libc.a(fputc.o) (__overflow)
/home/ashwin/pop-compiler-lkvm/x86_64/lib/libc.a(__stdio_close.o)
                              /home/ashwin/pop-compiler-lkvm/x86_64/lib/libc.a(stderr.o) (__stdio_close)
/home/ashwin/pop-compiler-lkvm/x86_64/lib/libc.a(__stdio_read.o)
                              /home/ashwin/pop-compiler-lkvm/x86_64/lib/libc.a(__fdopen.o) (__stdio_read)
/home/ashwin/pop-compiler-lkvm/x86_64/lib/libc.a(__stdio_seek.o)
                              /home/ashwin/pop-compiler-lkvm/x86_64/lib/libc.a(stderr.o) (__stdio_seek)
/home/ashwin/pop-compiler-lkvm/x86_64/lib/libc.a(__stdio_write.o)
                              /home/ashwin/pop-compiler-lkvm/x86_64/lib/libc.a(stderr.o) (__stdio_write)
/home/ashwin/pop-compiler-lkvm/x86_64/lib/libc.a(__stdout_write.o)
                              /home/ashwin/pop-compiler-lkvm/x86_64/lib/libc.a(stdout.o) (__stdout_write)
/home/ashwin/pop-compiler-lkvm/x86_64/lib/libc.a(__string_read.o)
                              /home/ashwin/pop-compiler-lkvm/x86_64/lib/libc.a(vsscanf.o) (__string_read)
/home/ashwin/pop-compiler-lkvm/x86_64/lib/libc.a(__towrite.o)
                              /home/ashwin/pop-compiler-lkvm/x86_64/lib/libc.a(fwrite.o) (__towrite)
/home/ashwin/pop-compiler-lkvm/x86_64/lib/libc.a(__uflow.o)
                              /home/ashwin/pop-compiler-lkvm/x86_64/lib/libc.a(fgets.o) (__uflow)
/home/ashwin/pop-compiler-lkvm/x86_64/lib/libc.a(fputs.o)
                              /home/ashwin/pop-compiler-lkvm/x86_64/lib/libc.a(puts.o) (fputs)
/home/ashwin/pop-compiler-lkvm/x86_64/lib/libc.a(getdelim.o)
                              /home/ashwin/pop-compiler-lkvm/x86_64/lib/libc.a(getline.o) (getdelim)
/home/ashwin/pop-compiler-lkvm/x86_64/lib/libc.a(ofl_add.o)
                              /home/ashwin/pop-compiler-lkvm/x86_64/lib/libc.a(__fdopen.o) (__ofl_add)
/home/ashwin/pop-compiler-lkvm/x86_64/lib/libc.a(memcmp.o)
                              /home/ashwin/pop-compiler-lkvm/x86_64/lib/libc.a(strstr.o) (memcmp)
/home/ashwin/pop-compiler-lkvm/x86_64/lib/libc.a(stpcpy.o)
                              /home/ashwin/pop-compiler-lkvm/x86_64/lib/libc.a(strcpy.o) (__stpcpy)
/home/ashwin/pop-compiler-lkvm/x86_64/lib/libc.a(stpncpy.o)
                              /home/ashwin/pop-compiler-lkvm/x86_64/lib/libc.a(strncpy.o) (__stpncpy)
/home/ashwin/pop-compiler-lkvm/x86_64/lib/libc.a(strcspn.o)
                              /home/ashwin/pop-compiler-lkvm/x86_64/lib/libc.a(strtok.o) (strcspn)
/home/ashwin/pop-compiler-lkvm/x86_64/lib/libc.a(mkostemps.o)
                              /home/ashwin/pop-compiler-lkvm/x86_64/lib/libc.a(mkstemp.o) (__mkostemps)
/home/ashwin/pop-compiler-lkvm/x86_64/lib/libc.a(__timedwait.o)
                              /home/ashwin/pop-compiler-lkvm/x86_64/lib/libc.a(pthread_mutex_timedlock.o) (__timedwait)
/home/ashwin/pop-compiler-lkvm/x86_64/lib/libc.a(pthread_rwlock_timedwrlock.o)
                              /home/ashwin/pop-compiler-lkvm/x86_64/lib/libc.a(pthread_rwlock_wrlock.o) (pthread_rwlock_timedwrlock)
/home/ashwin/pop-compiler-lkvm/x86_64/lib/libc.a(pthread_rwlock_trywrlock.o)
                              /home/ashwin/pop-compiler-lkvm/x86_64/lib/libc.a(pthread_rwlock_timedwrlock.o) (pthread_rwlock_trywrlock)
/home/ashwin/pop-compiler-lkvm/x86_64/lib/libc.a(__set_thread_area.o)
                              /home/ashwin/pop-compiler-lkvm/x86_64/lib/libc.a(__init_tls.o) (__set_thread_area)
/home/ashwin/pop-compiler-lkvm/x86_64/lib/libc.a(__secs_to_tm.o)
                              /home/ashwin/pop-compiler-lkvm/x86_64/lib/libc.a(gmtime_r.o) (__secs_to_tm)
/home/ashwin/pop-compiler-lkvm/x86_64/lib/libc.a(__tz.o)
                              /home/ashwin/pop-compiler-lkvm/x86_64/lib/libc.a(gmtime_r.o) (__gmt)
/home/ashwin/pop-compiler-lkvm/x86_64/lib/libc.a(__year_to_secs.o)
                              /home/ashwin/pop-compiler-lkvm/x86_64/lib/libc.a(__tz.o) (__year_to_secs)
/home/ashwin/pop-compiler-lkvm/x86_64/lib/libc.a(clock_gettime.o)
                              /home/ashwin/pop-compiler-lkvm/x86_64/lib/libc.a(time.o) (__clock_gettime)
/home/ashwin/pop-compiler-lkvm/x86_64/lib/libc.a(nanosleep.o)
                              /home/ashwin/pop-compiler-lkvm/x86_64/lib/libc.a(sleep.o) (nanosleep)
/home/ashwin/pop-compiler-lkvm/x86_64/lib/libc.a(internal.o)
                              /home/ashwin/pop-compiler-lkvm/x86_64/lib/libc.a(mbrtowc.o) (__fsmu8)
/home/ashwin/pop-compiler-lkvm/x86_64/lib/libc.a(wcrtomb.o)
                              /home/ashwin/pop-compiler-lkvm/x86_64/lib/libc.a(wctomb.o) (wcrtomb)
/home/ashwin/pop-compiler-lkvm/x86_64/lib/libc.a(__stdio_exit.o)
                              /home/ashwin/pop-compiler-lkvm/x86_64/lib/libc.a(__towrite.o) (__stdio_exit_needed)
/home/ashwin/pop-compiler-lkvm/x86_64/lib/libc.a(__toread.o)
                              /home/ashwin/pop-compiler-lkvm/x86_64/lib/libc.a(__uflow.o) (__toread)
/home/ashwin/pop-compiler-lkvm/x86_64/lib/libc.a(__randname.o)
                              /home/ashwin/pop-compiler-lkvm/x86_64/lib/libc.a(mkostemps.o) (__randname)
/home/ashwin/pop-compiler-lkvm/x86_64/lib/libc.a(__map_file.o)
                              /home/ashwin/pop-compiler-lkvm/x86_64/lib/libc.a(__tz.o) (__map_file)
/home/ashwin/pop-compiler-lkvm/x86_64/lib/libc.a(__month_to_secs.o)
                              /home/ashwin/pop-compiler-lkvm/x86_64/lib/libc.a(__tz.o) (__month_to_secs)

Allocating common symbols
Common symbol       size              file

mal                 0x20000           /home/ashwin/pop-compiler-lkvm/x86_64/lib/libc.a(popcorn_malloc.o)
__libc              0x70              /home/ashwin/pop-compiler-lkvm/x86_64/lib/libc.a(libc.o)
term_fds            0x20              term.o
__hwcap             0x8               /home/ashwin/pop-compiler-lkvm/x86_64/lib/libc.a(libc.o)
__sysinfo           0x8               /home/ashwin/pop-compiler-lkvm/x86_64/lib/libc.a(libc.o)
irq_routing         0x8               x86/irq.o
debug_iodelay       0x4               disk/core.o

Discarded input sections

 .note.GNU-stack
                0x0000000000000000        0x0 0x1 x86/bios.o
 .note.GNU-stack
                0x0000000000000000        0x0 0x0 guest/guest_init.o
 .note.GNU-stack
                0x0000000000000000        0x0 0x1 builtin-balloon.o
 .note.GNU-stack
                0x0000000000000000        0x0 0x1 builtin-debug.o
 .note.GNU-stack
                0x0000000000000000        0x0 0x1 builtin-help.o
 .note.GNU-stack
                0x0000000000000000        0x0 0x1 builtin-list.o
 .note.GNU-stack
                0x0000000000000000        0x0 0x1 builtin-stat.o
 .note.GNU-stack
                0x0000000000000000        0x0 0x1 builtin-pause.o
 .note.GNU-stack
                0x0000000000000000        0x0 0x1 builtin-resume.o
 .note.GNU-stack
                0x0000000000000000        0x0 0x1 builtin-run.o
 .note.GNU-stack
                0x0000000000000000        0x0 0x1 builtin-setup.o
 .note.GNU-stack
                0x0000000000000000        0x0 0x1 builtin-stop.o
 .note.GNU-stack
                0x0000000000000000        0x0 0x1 builtin-version.o
 .note.GNU-stack
                0x0000000000000000        0x0 0x1 devices.o
 .note.GNU-stack
                0x0000000000000000        0x0 0x1 kvm-cpu_common.o
 .note.GNU-stack
                0x0000000000000000        0x0 0x1 disk/core.o
 .note.GNU-stack
                0x0000000000000000        0x0 0x1 framebuffer.o
 .note.GNU-stack
                0x0000000000000000        0x0 0x1 guest_compat.o
 .note.GNU-stack
                0x0000000000000000        0x0 0x1 hw/rtc.o
 .note.GNU-stack
                0x0000000000000000        0x0 0x1 hw/serial.o
 .note.GNU-stack
                0x0000000000000000        0x0 0x1 ioport_common.o
 .note.GNU-stack
                0x0000000000000000        0x0 0x1 irq_common.o
 .note.GNU-stack
                0x0000000000000000        0x0 0x1 x86/kvm-cpu.o
 .note.GNU-stack
                0x0000000000000000        0x0 0x1 kvm_common.o
 .note.GNU-stack
                0x0000000000000000        0x0 0x1 main.o
 .note.GNU-stack
                0x0000000000000000        0x0 0x1 mmio_common.o
 .note.GNU-stack
                0x0000000000000000        0x0 0x1 pci_common.o
 .note.GNU-stack
                0x0000000000000000        0x0 0x1 term.o
 .note.GNU-stack
                0x0000000000000000        0x0 0x1 virtio/blk.o
 .note.GNU-stack
                0x0000000000000000        0x0 0x1 virtio/scsi.o
 .note.GNU-stack
                0x0000000000000000        0x0 0x1 virtio/console.o
 .note.GNU-stack
                0x0000000000000000        0x0 0x1 virtio/core.o
 .note.GNU-stack
                0x0000000000000000        0x0 0x1 virtio/net.o
 .note.GNU-stack
                0x0000000000000000        0x0 0x1 virtio/rng.o
 .note.GNU-stack
                0x0000000000000000        0x0 0x1 virtio/balloon.o
 .note.GNU-stack
                0x0000000000000000        0x0 0x1 virtio/pci.o
 .note.GNU-stack
                0x0000000000000000        0x0 0x1 disk/blk.o
 .note.GNU-stack
                0x0000000000000000        0x0 0x1 disk/qcow.o
 .note.GNU-stack
                0x0000000000000000        0x0 0x1 disk/raw.o
 .note.GNU-stack
                0x0000000000000000        0x0 0x1 ioeventfd.o
 .note.GNU-stack
                0x0000000000000000        0x0 0x1 net/uip/core.o
 .note.GNU-stack
                0x0000000000000000        0x0 0x1 net/uip/arp.o
 .note.GNU-stack
                0x0000000000000000        0x0 0x1 net/uip/icmp.o
 .note.GNU-stack
                0x0000000000000000        0x0 0x1 net/uip/ipv4.o
 .note.GNU-stack
                0x0000000000000000        0x0 0x1 net/uip/tcp.o
 .note.GNU-stack
                0x0000000000000000        0x0 0x1 net/uip/udp.o
 .note.GNU-stack
                0x0000000000000000        0x0 0x1 net/uip/buf.o
 .note.GNU-stack
                0x0000000000000000        0x0 0x1 net/uip/csum.o
 .note.GNU-stack
                0x0000000000000000        0x0 0x1 net/uip/dhcp.o
 .note.GNU-stack
                0x0000000000000000        0x0 0x1 kvm-cmd.o
 .note.GNU-stack
                0x0000000000000000        0x0 0x1 util/init.o
 .note.GNU-stack
                0x0000000000000000        0x0 0x1 util/iovec.o
 .note.GNU-stack
                0x0000000000000000        0x0 0x1 util/rbtree.o
 .note.GNU-stack
                0x0000000000000000        0x0 0x1 kvm-ipc.o
 .note.GNU-stack
                0x0000000000000000        0x0 0x1 util/read-write.o
 .note.GNU-stack
                0x0000000000000000        0x0 0x1 util/parse-options.o
 .note.GNU-stack
                0x0000000000000000        0x0 0x1 util/threadpool.o
 .note.GNU-stack
                0x0000000000000000        0x0 0x1 util/rbtree-interval.o
 .note.GNU-stack
                0x0000000000000000        0x0 0x1 util/strbuf.o
 .note.GNU-stack
                0x0000000000000000        0x0 0x1 util/util.o
 .note.GNU-stack
                0x0000000000000000        0x0 0x1 hw/pci-shmem.o
 .note.GNU-stack
                0x0000000000000000        0x0 0x1 hw/i8042.o
 .note.GNU-stack
                0x0000000000000000        0x0 0x1 virtio/9p.o
 .note.GNU-stack
                0x0000000000000000        0x0 0x1 builtin-sandbox.o
 .note.GNU-stack
                0x0000000000000000        0x0 0x1 virtio/mmio.o
 .note.GNU-stack
                0x0000000000000000        0x0 0x1 virtio/9p-pdu.o
 .note.GNU-stack
                0x0000000000000000        0x0 0x1 x86/kvm.o
 .note.GNU-stack
                0x0000000000000000        0x0 0x1 x86/boot.o
 .note.GNU-stack
                0x0000000000000000        0x0 0x1 x86/cpuid.o
 .note.GNU-stack
                0x0000000000000000        0x0 0x1 x86/interrupt.o
 .note.GNU-stack
                0x0000000000000000        0x0 0x1 x86/ioport.o
 .note.GNU-stack
                0x0000000000000000        0x0 0x1 x86/irq.o
 .note.GNU-stack
                0x0000000000000000        0x0 0x1 x86/mptable.o
 .note.GNU-stack
                0x0000000000000000        0x0 0x1 hw/vesa.o
 .note.GNU-stack
                0x0000000000000000        0x0 0x1 /home/ashwin/pop-compiler-lkvm/x86_64/lib/crt1.o
 .note.GNU-stack
                0x0000000000000000        0x0 0x1 /home/ashwin/pop-compiler-lkvm/x86_64/lib/libc.a(sysconf.o)
 .note.GNU-stack
                0x0000000000000000        0x0 0x1 /home/ashwin/pop-compiler-lkvm/x86_64/lib/libc.a(closedir.o)
 .note.GNU-stack
                0x0000000000000000        0x0 0x1 /home/ashwin/pop-compiler-lkvm/x86_64/lib/libc.a(dirfd.o)
 .note.GNU-stack
                0x0000000000000000        0x0 0x1 /home/ashwin/pop-compiler-lkvm/x86_64/lib/libc.a(opendir.o)
 .note.GNU-stack
                0x0000000000000000        0x0 0x1 /home/ashwin/pop-compiler-lkvm/x86_64/lib/libc.a(readdir.o)
 .note.GNU-stack
                0x0000000000000000        0x0 0x1 /home/ashwin/pop-compiler-lkvm/x86_64/lib/libc.a(readdir_r.o)
 .note.GNU-stack
                0x0000000000000000        0x0 0x1 /home/ashwin/pop-compiler-lkvm/x86_64/lib/libc.a(seekdir.o)
 .note.GNU-stack
                0x0000000000000000        0x0 0x1 /home/ashwin/pop-compiler-lkvm/x86_64/lib/libc.a(__libc_start_main.o)
 .note.GNU-stack
                0x0000000000000000        0x0 0x1 /home/ashwin/pop-compiler-lkvm/x86_64/lib/libc.a(getenv.o)
 .note.GNU-stack
                0x0000000000000000        0x0 0x1 /home/ashwin/pop-compiler-lkvm/x86_64/lib/libc.a(__errno_location.o)
 .note.GNU-stack
                0x0000000000000000        0x0 0x1 /home/ashwin/pop-compiler-lkvm/x86_64/lib/libc.a(strerror.o)
 .note.GNU-stack
                0x0000000000000000        0x0 0x1 /home/ashwin/pop-compiler-lkvm/x86_64/lib/libc.a(atexit.o)
 .note.GNU-stack
                0x0000000000000000        0x0 0x1 /home/ashwin/pop-compiler-lkvm/x86_64/lib/libc.a(exit.o)
 .note.GNU-stack
                0x0000000000000000        0x0 0x1 /home/ashwin/pop-compiler-lkvm/x86_64/lib/libc.a(fcntl.o)
 .note.GNU-stack
                0x0000000000000000        0x0 0x1 /home/ashwin/pop-compiler-lkvm/x86_64/lib/libc.a(open.o)
 .note.GNU-stack
                0x0000000000000000        0x0 0x1 /home/ashwin/pop-compiler-lkvm/x86_64/lib/libc.a(libc.o)
 .note.GNU-stack
                0x0000000000000000        0x0 0x1 /home/ashwin/pop-compiler-lkvm/x86_64/lib/libc.a(syscall_ret.o)
 .note.GNU-stack
                0x0000000000000000        0x0 0x1 /home/ashwin/pop-compiler-lkvm/x86_64/lib/libc.a(getpagesize.o)
 .note.GNU-stack
                0x0000000000000000        0x0 0x1 /home/ashwin/pop-compiler-lkvm/x86_64/lib/libc.a(epoll.o)
 .note.GNU-stack
                0x0000000000000000        0x0 0x1 /home/ashwin/pop-compiler-lkvm/x86_64/lib/libc.a(eventfd.o)
 .note.GNU-stack
                0x0000000000000000        0x0 0x1 /home/ashwin/pop-compiler-lkvm/x86_64/lib/libc.a(prctl.o)
 .note.GNU-stack
                0x0000000000000000        0x0 0x1 /home/ashwin/pop-compiler-lkvm/x86_64/lib/libc.a(sysinfo.o)
 .note.GNU-stack
                0x0000000000000000        0x0 0x1 /home/ashwin/pop-compiler-lkvm/x86_64/lib/libc.a(__lctrans.o)
 .note.GNU-stack
                0x0000000000000000        0x0 0x1 /home/ashwin/pop-compiler-lkvm/x86_64/lib/libc.a(calloc.o)
 .note.GNU-stack
                0x0000000000000000        0x0 0x1 /home/ashwin/pop-compiler-lkvm/x86_64/lib/libc.a(lite_malloc.o)
 .note.GNU-stack
                0x0000000000000000        0x0 0x1 /home/ashwin/pop-compiler-lkvm/x86_64/lib/libc.a(malloc.o)
 .note.GNU-stack
                0x0000000000000000        0x0 0x1 /home/ashwin/pop-compiler-lkvm/x86_64/lib/libc.a(popcorn_malloc.o)
 .note.GNU-stack
                0x0000000000000000        0x0 0x1 /home/ashwin/pop-compiler-lkvm/x86_64/lib/libc.a(getrlimit.o)
 .note.GNU-stack
                0x0000000000000000        0x0 0x1 /home/ashwin/pop-compiler-lkvm/x86_64/lib/libc.a(ioctl.o)
 .note.GNU-stack
                0x0000000000000000        0x0 0x1 /home/ashwin/pop-compiler-lkvm/x86_64/lib/libc.a(mntent.o)
 .note.GNU-stack
                0x0000000000000000        0x0 0x1 /home/ashwin/pop-compiler-lkvm/x86_64/lib/libc.a(openpty.o)
 .note.GNU-stack
                0x0000000000000000        0x0 0x1 /home/ashwin/pop-compiler-lkvm/x86_64/lib/libc.a(realpath.o)
 .note.GNU-stack
                0x0000000000000000        0x0 0x1 /home/ashwin/pop-compiler-lkvm/x86_64/lib/libc.a(uname.o)
 .note.GNU-stack
                0x0000000000000000        0x0 0x1 /home/ashwin/pop-compiler-lkvm/x86_64/lib/libc.a(madvise.o)
 .note.GNU-stack
                0x0000000000000000        0x0 0x1 /home/ashwin/pop-compiler-lkvm/x86_64/lib/libc.a(mmap.o)
 .note.GNU-stack
                0x0000000000000000        0x0 0x1 /home/ashwin/pop-compiler-lkvm/x86_64/lib/libc.a(mprotect.o)
 .note.GNU-stack
                0x0000000000000000        0x0 0x1 /home/ashwin/pop-compiler-lkvm/x86_64/lib/libc.a(mremap.o)
 .note.GNU-stack
                0x0000000000000000        0x0 0x1 /home/ashwin/pop-compiler-lkvm/x86_64/lib/libc.a(munmap.o)
 .note.GNU-stack
                0x0000000000000000        0x0 0x1 /home/ashwin/pop-compiler-lkvm/x86_64/lib/libc.a(shm_open.o)
 .note.GNU-stack
                0x0000000000000000        0x0 0x1 /home/ashwin/pop-compiler-lkvm/x86_64/lib/libc.a(accept.o)
 .note.GNU-stack
                0x0000000000000000        0x0 0x1 /home/ashwin/pop-compiler-lkvm/x86_64/lib/libc.a(bind.o)
 .note.GNU-stack
                0x0000000000000000        0x0 0x1 /home/ashwin/pop-compiler-lkvm/x86_64/lib/libc.a(connect.o)
 .note.GNU-stack
                0x0000000000000000        0x0 0x1 /home/ashwin/pop-compiler-lkvm/x86_64/lib/libc.a(htonl.o)
 .note.GNU-stack
                0x0000000000000000        0x0 0x1 /home/ashwin/pop-compiler-lkvm/x86_64/lib/libc.a(htons.o)
 .note.GNU-stack
                0x0000000000000000        0x0 0x1 /home/ashwin/pop-compiler-lkvm/x86_64/lib/libc.a(inet_addr.o)
 .note.GNU-stack
                0x0000000000000000        0x0 0x1 /home/ashwin/pop-compiler-lkvm/x86_64/lib/libc.a(inet_aton.o)
 .note.GNU-stack
                0x0000000000000000        0x0 0x1 /home/ashwin/pop-compiler-lkvm/x86_64/lib/libc.a(listen.o)
 .note.GNU-stack
                0x0000000000000000        0x0 0x1 /home/ashwin/pop-compiler-lkvm/x86_64/lib/libc.a(ntohl.o)
 .note.GNU-stack
                0x0000000000000000        0x0 0x1 /home/ashwin/pop-compiler-lkvm/x86_64/lib/libc.a(ntohs.o)
 .note.GNU-stack
                0x0000000000000000        0x0 0x1 /home/ashwin/pop-compiler-lkvm/x86_64/lib/libc.a(recvfrom.o)
 .note.GNU-stack
                0x0000000000000000        0x0 0x1 /home/ashwin/pop-compiler-lkvm/x86_64/lib/libc.a(sendto.o)
 .note.GNU-stack
                0x0000000000000000        0x0 0x1 /home/ashwin/pop-compiler-lkvm/x86_64/lib/libc.a(shutdown.o)
 .note.GNU-stack
                0x0000000000000000        0x0 0x1 /home/ashwin/pop-compiler-lkvm/x86_64/lib/libc.a(socket.o)
 .note.GNU-stack
                0x0000000000000000        0x0 0x1 /home/ashwin/pop-compiler-lkvm/x86_64/lib/libc.a(execl.o)
 .note.GNU-stack
                0x0000000000000000        0x0 0x1 /home/ashwin/pop-compiler-lkvm/x86_64/lib/libc.a(execv.o)
 .note.GNU-stack
                0x0000000000000000        0x0 0x1 /home/ashwin/pop-compiler-lkvm/x86_64/lib/libc.a(execve.o)
 .note.GNU-stack
                0x0000000000000000        0x0 0x1 /home/ashwin/pop-compiler-lkvm/x86_64/lib/libc.a(fork.o)
 .note.GNU-stack
                0x0000000000000000        0x0 0x1 /home/ashwin/pop-compiler-lkvm/x86_64/lib/libc.a(waitpid.o)
 .note.GNU-stack
                0x0000000000000000        0x0 0x1 /home/ashwin/pop-compiler-lkvm/x86_64/lib/libc.a(poll.o)
 .note.GNU-stack
                0x0000000000000000        0x0 0x1 /home/ashwin/pop-compiler-lkvm/x86_64/lib/libc.a(select.o)
 .note.GNU-stack
                0x0000000000000000        0x0 0x1 /home/ashwin/pop-compiler-lkvm/x86_64/lib/libc.a(block.o)
 .note.GNU-stack
                0x0000000000000000        0x0 0x1 /home/ashwin/pop-compiler-lkvm/x86_64/lib/libc.a(raise.o)
 .note.GNU-stack
                0x0000000000000000        0x0 0x1 /home/ashwin/pop-compiler-lkvm/x86_64/lib/libc.a(sigaddset.o)
 .note.GNU-stack
                0x0000000000000000        0x0 0x1 /home/ashwin/pop-compiler-lkvm/x86_64/lib/libc.a(sigemptyset.o)
 .note.GNU-stack
                0x0000000000000000        0x0 0x1 /home/ashwin/pop-compiler-lkvm/x86_64/lib/libc.a(signal.o)
 .note.GNU-stack
                0x0000000000000000        0x0 0x1 /home/ashwin/pop-compiler-lkvm/x86_64/lib/libc.a(sigrtmin.o)
 .note.GNU-stack
                0x0000000000000000        0x0 0x1 /home/ashwin/pop-compiler-lkvm/x86_64/lib/libc.a(chmod.o)
 .note.GNU-stack
                0x0000000000000000        0x0 0x1 /home/ashwin/pop-compiler-lkvm/x86_64/lib/libc.a(fstat.o)
 .note.GNU-stack
                0x0000000000000000        0x0 0x1 /home/ashwin/pop-compiler-lkvm/x86_64/lib/libc.a(lstat.o)
 .note.GNU-stack
                0x0000000000000000        0x0 0x1 /home/ashwin/pop-compiler-lkvm/x86_64/lib/libc.a(mkdir.o)
 .note.GNU-stack
                0x0000000000000000        0x0 0x1 /home/ashwin/pop-compiler-lkvm/x86_64/lib/libc.a(mknod.o)
 .note.GNU-stack
                0x0000000000000000        0x0 0x1 /home/ashwin/pop-compiler-lkvm/x86_64/lib/libc.a(stat.o)
 .note.GNU-stack
                0x0000000000000000        0x0 0x1 /home/ashwin/pop-compiler-lkvm/x86_64/lib/libc.a(statvfs.o)
 .note.GNU-stack
                0x0000000000000000        0x0 0x1 /home/ashwin/pop-compiler-lkvm/x86_64/lib/libc.a(utimensat.o)
 .note.GNU-stack
                0x0000000000000000        0x0 0x1 /home/ashwin/pop-compiler-lkvm/x86_64/lib/libc.a(dprintf.o)
 .note.GNU-stack
                0x0000000000000000        0x0 0x1 /home/ashwin/pop-compiler-lkvm/x86_64/lib/libc.a(fclose.o)
 .note.GNU-stack
                0x0000000000000000        0x0 0x1 /home/ashwin/pop-compiler-lkvm/x86_64/lib/libc.a(feof.o)
 .note.GNU-stack
                0x0000000000000000        0x0 0x1 /home/ashwin/pop-compiler-lkvm/x86_64/lib/libc.a(ferror.o)
 .note.GNU-stack
                0x0000000000000000        0x0 0x1 /home/ashwin/pop-compiler-lkvm/x86_64/lib/libc.a(fflush.o)
 .note.GNU-stack
                0x0000000000000000        0x0 0x1 /home/ashwin/pop-compiler-lkvm/x86_64/lib/libc.a(fgets.o)
 .note.GNU-stack
                0x0000000000000000        0x0 0x1 /home/ashwin/pop-compiler-lkvm/x86_64/lib/libc.a(fopen.o)
 .note.GNU-stack
                0x0000000000000000        0x0 0x1 /home/ashwin/pop-compiler-lkvm/x86_64/lib/libc.a(fprintf.o)
 .note.GNU-stack
                0x0000000000000000        0x0 0x1 /home/ashwin/pop-compiler-lkvm/x86_64/lib/libc.a(fputc.o)
 .note.GNU-stack
                0x0000000000000000        0x0 0x1 /home/ashwin/pop-compiler-lkvm/x86_64/lib/libc.a(fscanf.o)
 .note.GNU-stack
                0x0000000000000000        0x0 0x1 /home/ashwin/pop-compiler-lkvm/x86_64/lib/libc.a(fseek.o)
 .note.GNU-stack
                0x0000000000000000        0x0 0x1 /home/ashwin/pop-compiler-lkvm/x86_64/lib/libc.a(fwrite.o)
 .note.GNU-stack
                0x0000000000000000        0x0 0x1 /home/ashwin/pop-compiler-lkvm/x86_64/lib/libc.a(getline.o)
 .note.GNU-stack
                0x0000000000000000        0x0 0x1 /home/ashwin/pop-compiler-lkvm/x86_64/lib/libc.a(ofl.o)
 .note.GNU-stack
                0x0000000000000000        0x0 0x1 /home/ashwin/pop-compiler-lkvm/x86_64/lib/libc.a(perror.o)
 .note.GNU-stack
                0x0000000000000000        0x0 0x1 /home/ashwin/pop-compiler-lkvm/x86_64/lib/libc.a(printf.o)
 .note.GNU-stack
                0x0000000000000000        0x0 0x1 /home/ashwin/pop-compiler-lkvm/x86_64/lib/libc.a(putchar.o)
 .note.GNU-stack
                0x0000000000000000        0x0 0x1 /home/ashwin/pop-compiler-lkvm/x86_64/lib/libc.a(puts.o)
 .note.GNU-stack
                0x0000000000000000        0x0 0x1 /home/ashwin/pop-compiler-lkvm/x86_64/lib/libc.a(remove.o)
 .note.GNU-stack
                0x0000000000000000        0x0 0x1 /home/ashwin/pop-compiler-lkvm/x86_64/lib/libc.a(rename.o)
 .note.GNU-stack
                0x0000000000000000        0x0 0x1 /home/ashwin/pop-compiler-lkvm/x86_64/lib/libc.a(snprintf.o)
 .note.GNU-stack
                0x0000000000000000        0x0 0x1 /home/ashwin/pop-compiler-lkvm/x86_64/lib/libc.a(sprintf.o)
 .note.GNU-stack
                0x0000000000000000        0x0 0x1 /home/ashwin/pop-compiler-lkvm/x86_64/lib/libc.a(sscanf.o)
 .note.GNU-stack
                0x0000000000000000        0x0 0x1 /home/ashwin/pop-compiler-lkvm/x86_64/lib/libc.a(stderr.o)
 .note.GNU-stack
                0x0000000000000000        0x0 0x1 /home/ashwin/pop-compiler-lkvm/x86_64/lib/libc.a(stdout.o)
 .note.GNU-stack
                0x0000000000000000        0x0 0x1 /home/ashwin/pop-compiler-lkvm/x86_64/lib/libc.a(vdprintf.o)
 .note.GNU-stack
                0x0000000000000000        0x0 0x1 /home/ashwin/pop-compiler-lkvm/x86_64/lib/libc.a(vfprintf.o)
 .note.GNU-stack
                0x0000000000000000        0x0 0x1 /home/ashwin/pop-compiler-lkvm/x86_64/lib/libc.a(vfscanf.o)
 .note.GNU-stack
                0x0000000000000000        0x0 0x1 /home/ashwin/pop-compiler-lkvm/x86_64/lib/libc.a(vsnprintf.o)
 .note.GNU-stack
                0x0000000000000000        0x0 0x1 /home/ashwin/pop-compiler-lkvm/x86_64/lib/libc.a(vsprintf.o)
 .note.GNU-stack
                0x0000000000000000        0x0 0x1 /home/ashwin/pop-compiler-lkvm/x86_64/lib/libc.a(vsscanf.o)
 .note.GNU-stack
                0x0000000000000000        0x0 0x1 /home/ashwin/pop-compiler-lkvm/x86_64/lib/libc.a(atoi.o)
 .note.GNU-stack
                0x0000000000000000        0x0 0x1 /home/ashwin/pop-compiler-lkvm/x86_64/lib/libc.a(strtol.o)
 .note.GNU-stack
                0x0000000000000000        0x0 0x1 /home/ashwin/pop-compiler-lkvm/x86_64/lib/libc.a(memchr.o)
 .note.GNU-stack
                0x0000000000000000        0x0 0x1 /home/ashwin/pop-compiler-lkvm/x86_64/lib/libc.a(strcasestr.o)
 .note.GNU-stack
                0x0000000000000000        0x0 0x1 /home/ashwin/pop-compiler-lkvm/x86_64/lib/libc.a(strchr.o)
 .note.GNU-stack
                0x0000000000000000        0x0 0x1 /home/ashwin/pop-compiler-lkvm/x86_64/lib/libc.a(strchrnul.o)
 .note.GNU-stack
                0x0000000000000000        0x0 0x1 /home/ashwin/pop-compiler-lkvm/x86_64/lib/libc.a(strcmp.o)
 .note.GNU-stack
                0x0000000000000000        0x0 0x1 /home/ashwin/pop-compiler-lkvm/x86_64/lib/libc.a(strcpy.o)
 .note.GNU-stack
                0x0000000000000000        0x0 0x1 /home/ashwin/pop-compiler-lkvm/x86_64/lib/libc.a(strdup.o)
 .note.GNU-stack
                0x0000000000000000        0x0 0x1 /home/ashwin/pop-compiler-lkvm/x86_64/lib/libc.a(strlen.o)
 .note.GNU-stack
                0x0000000000000000        0x0 0x1 /home/ashwin/pop-compiler-lkvm/x86_64/lib/libc.a(strncasecmp.o)
 .note.GNU-stack
                0x0000000000000000        0x0 0x1 /home/ashwin/pop-compiler-lkvm/x86_64/lib/libc.a(strncmp.o)
 .note.GNU-stack
                0x0000000000000000        0x0 0x1 /home/ashwin/pop-compiler-lkvm/x86_64/lib/libc.a(strncpy.o)
 .note.GNU-stack
                0x0000000000000000        0x0 0x1 /home/ashwin/pop-compiler-lkvm/x86_64/lib/libc.a(strndup.o)
 .note.GNU-stack
                0x0000000000000000        0x0 0x1 /home/ashwin/pop-compiler-lkvm/x86_64/lib/libc.a(strnlen.o)
 .note.GNU-stack
                0x0000000000000000        0x0 0x1 /home/ashwin/pop-compiler-lkvm/x86_64/lib/libc.a(strspn.o)
 .note.GNU-stack
                0x0000000000000000        0x0 0x1 /home/ashwin/pop-compiler-lkvm/x86_64/lib/libc.a(strstr.o)
 .note.GNU-stack
                0x0000000000000000        0x0 0x1 /home/ashwin/pop-compiler-lkvm/x86_64/lib/libc.a(strtok.o)
 .note.GNU-stack
                0x0000000000000000        0x0 0x1 /home/ashwin/pop-compiler-lkvm/x86_64/lib/libc.a(memcpy.o)
 .note.GNU-stack
                0x0000000000000000        0x0 0x1 /home/ashwin/pop-compiler-lkvm/x86_64/lib/libc.a(memmove.o)
 .note.GNU-stack
                0x0000000000000000        0x0 0x1 /home/ashwin/pop-compiler-lkvm/x86_64/lib/libc.a(memset.o)
 .note.GNU-stack
                0x0000000000000000        0x0 0x1 /home/ashwin/pop-compiler-lkvm/x86_64/lib/libc.a(mkstemp.o)
 .note.GNU-stack
                0x0000000000000000        0x0 0x1 /home/ashwin/pop-compiler-lkvm/x86_64/lib/libc.a(tcgetattr.o)
 .note.GNU-stack
                0x0000000000000000        0x0 0x1 /home/ashwin/pop-compiler-lkvm/x86_64/lib/libc.a(tcsetattr.o)
 .note.GNU-stack
                0x0000000000000000        0x0 0x1 /home/ashwin/pop-compiler-lkvm/x86_64/lib/libc.a(__lock.o)
 .note.GNU-stack
                0x0000000000000000        0x0 0x1 /home/ashwin/pop-compiler-lkvm/x86_64/lib/libc.a(__syscall_cp.o)
 .note.GNU-stack
                0x0000000000000000        0x0 0x1 /home/ashwin/pop-compiler-lkvm/x86_64/lib/libc.a(__wait.o)
 .note.GNU-stack
                0x0000000000000000        0x0 0x1 /home/ashwin/pop-compiler-lkvm/x86_64/lib/libc.a(pthread_cleanup_push.o)
 .note.GNU-stack
                0x0000000000000000        0x0 0x1 /home/ashwin/pop-compiler-lkvm/x86_64/lib/libc.a(pthread_cond_init.o)
 .note.GNU-stack
                0x0000000000000000        0x0 0x1 /home/ashwin/pop-compiler-lkvm/x86_64/lib/libc.a(pthread_cond_signal.o)
 .note.GNU-stack
                0x0000000000000000        0x0 0x1 /home/ashwin/pop-compiler-lkvm/x86_64/lib/libc.a(pthread_cond_timedwait.o)
 .note.GNU-stack
                0x0000000000000000        0x0 0x1 /home/ashwin/pop-compiler-lkvm/x86_64/lib/libc.a(pthread_cond_wait.o)
 .note.GNU-stack
                0x0000000000000000        0x0 0x1 /home/ashwin/pop-compiler-lkvm/x86_64/lib/libc.a(pthread_create.o)
 .note.GNU-stack
                0x0000000000000000        0x0 0x1 /home/ashwin/pop-compiler-lkvm/x86_64/lib/libc.a(pthread_join.o)
 .note.GNU-stack
                0x0000000000000000        0x0 0x1 /home/ashwin/pop-compiler-lkvm/x86_64/lib/libc.a(pthread_kill.o)
 .note.GNU-stack
                0x0000000000000000        0x0 0x1 /home/ashwin/pop-compiler-lkvm/x86_64/lib/libc.a(pthread_mutex_init.o)
 .note.GNU-stack
                0x0000000000000000        0x0 0x1 /home/ashwin/pop-compiler-lkvm/x86_64/lib/libc.a(pthread_mutex_lock.o)
 .note.GNU-stack
                0x0000000000000000        0x0 0x1 /home/ashwin/pop-compiler-lkvm/x86_64/lib/libc.a(pthread_mutex_timedlock.o)
 .note.GNU-stack
                0x0000000000000000        0x0 0x1 /home/ashwin/pop-compiler-lkvm/x86_64/lib/libc.a(pthread_mutex_trylock.o)
 .note.GNU-stack
                0x0000000000000000        0x0 0x1 /home/ashwin/pop-compiler-lkvm/x86_64/lib/libc.a(pthread_mutex_unlock.o)
 .note.GNU-stack
                0x0000000000000000        0x0 0x1 /home/ashwin/pop-compiler-lkvm/x86_64/lib/libc.a(pthread_rwlock_rdlock.o)
 .note.GNU-stack
                0x0000000000000000        0x0 0x1 /home/ashwin/pop-compiler-lkvm/x86_64/lib/libc.a(pthread_rwlock_timedrdlock.o)
 .note.GNU-stack
                0x0000000000000000        0x0 0x1 /home/ashwin/pop-compiler-lkvm/x86_64/lib/libc.a(pthread_rwlock_tryrdlock.o)
 .note.GNU-stack
                0x0000000000000000        0x0 0x1 /home/ashwin/pop-compiler-lkvm/x86_64/lib/libc.a(pthread_rwlock_unlock.o)
 .note.GNU-stack
                0x0000000000000000        0x0 0x1 /home/ashwin/pop-compiler-lkvm/x86_64/lib/libc.a(pthread_rwlock_wrlock.o)
 .note.GNU-stack
                0x0000000000000000        0x0 0x1 /home/ashwin/pop-compiler-lkvm/x86_64/lib/libc.a(pthread_setcancelstate.o)
 .note.GNU-stack
                0x0000000000000000        0x0 0x1 /home/ashwin/pop-compiler-lkvm/x86_64/lib/libc.a(pthread_sigmask.o)
 .note.GNU-stack
                0x0000000000000000        0x0 0x1 /home/ashwin/pop-compiler-lkvm/x86_64/lib/libc.a(pthread_testcancel.o)
 .note.GNU-stack
                0x0000000000000000        0x0 0x1 /home/ashwin/pop-compiler-lkvm/x86_64/lib/libc.a(vmlock.o)
 .note.GNU-stack
                0x0000000000000000        0x0 0x1 /home/ashwin/pop-compiler-lkvm/x86_64/lib/libc.a(__cleartid_exit_nostack.o)
 .note.GNU-stack
                0x0000000000000000        0x0 0x1 /home/ashwin/pop-compiler-lkvm/x86_64/lib/libc.a(__unmapself.o)
 .note.GNU-stack
                0x0000000000000000        0x0 0x1 /home/ashwin/pop-compiler-lkvm/x86_64/lib/libc.a(clone.o)
 .note.GNU-stack
                0x0000000000000000        0x0 0x1 /home/ashwin/pop-compiler-lkvm/x86_64/lib/libc.a(gmtime.o)
 .note.GNU-stack
                0x0000000000000000        0x0 0x1 /home/ashwin/pop-compiler-lkvm/x86_64/lib/libc.a(gmtime_r.o)
 .note.GNU-stack
                0x0000000000000000        0x0 0x1 /home/ashwin/pop-compiler-lkvm/x86_64/lib/libc.a(time.o)
 .note.GNU-stack
                0x0000000000000000        0x0 0x1 /home/ashwin/pop-compiler-lkvm/x86_64/lib/libc.a(_exit.o)
 .note.GNU-stack
                0x0000000000000000        0x0 0x1 /home/ashwin/pop-compiler-lkvm/x86_64/lib/libc.a(access.o)
 .note.GNU-stack
                0x0000000000000000        0x0 0x1 /home/ashwin/pop-compiler-lkvm/x86_64/lib/libc.a(close.o)
 .note.GNU-stack
                0x0000000000000000        0x0 0x1 /home/ashwin/pop-compiler-lkvm/x86_64/lib/libc.a(fdatasync.o)
 .note.GNU-stack
                0x0000000000000000        0x0 0x1 /home/ashwin/pop-compiler-lkvm/x86_64/lib/libc.a(fsync.o)
 .note.GNU-stack
                0x0000000000000000        0x0 0x1 /home/ashwin/pop-compiler-lkvm/x86_64/lib/libc.a(ftruncate.o)
 .note.GNU-stack
                0x0000000000000000        0x0 0x1 /home/ashwin/pop-compiler-lkvm/x86_64/lib/libc.a(getpid.o)
 .note.GNU-stack
                0x0000000000000000        0x0 0x1 /home/ashwin/pop-compiler-lkvm/x86_64/lib/libc.a(isatty.o)
 .note.GNU-stack
                0x0000000000000000        0x0 0x1 /home/ashwin/pop-compiler-lkvm/x86_64/lib/libc.a(lchown.o)
 .note.GNU-stack
                0x0000000000000000        0x0 0x1 /home/ashwin/pop-compiler-lkvm/x86_64/lib/libc.a(link.o)
 .note.GNU-stack
                0x0000000000000000        0x0 0x1 /home/ashwin/pop-compiler-lkvm/x86_64/lib/libc.a(lseek.o)
 .note.GNU-stack
                0x0000000000000000        0x0 0x1 /home/ashwin/pop-compiler-lkvm/x86_64/lib/libc.a(pread.o)
 .note.GNU-stack
                0x0000000000000000        0x0 0x1 /home/ashwin/pop-compiler-lkvm/x86_64/lib/libc.a(preadv.o)
 .note.GNU-stack
                0x0000000000000000        0x0 0x1 /home/ashwin/pop-compiler-lkvm/x86_64/lib/libc.a(pwrite.o)
 .note.GNU-stack
                0x0000000000000000        0x0 0x1 /home/ashwin/pop-compiler-lkvm/x86_64/lib/libc.a(pwritev.o)
 .note.GNU-stack
                0x0000000000000000        0x0 0x1 /home/ashwin/pop-compiler-lkvm/x86_64/lib/libc.a(read.o)
 .note.GNU-stack
                0x0000000000000000        0x0 0x1 /home/ashwin/pop-compiler-lkvm/x86_64/lib/libc.a(readlink.o)
 .note.GNU-stack
                0x0000000000000000        0x0 0x1 /home/ashwin/pop-compiler-lkvm/x86_64/lib/libc.a(readv.o)
 .note.GNU-stack
                0x0000000000000000        0x0 0x1 /home/ashwin/pop-compiler-lkvm/x86_64/lib/libc.a(sleep.o)
 .note.GNU-stack
                0x0000000000000000        0x0 0x1 /home/ashwin/pop-compiler-lkvm/x86_64/lib/libc.a(symlink.o)
 .note.GNU-stack
                0x0000000000000000        0x0 0x1 /home/ashwin/pop-compiler-lkvm/x86_64/lib/libc.a(truncate.o)
 .note.GNU-stack
                0x0000000000000000        0x0 0x1 /home/ashwin/pop-compiler-lkvm/x86_64/lib/libc.a(unlink.o)
 .note.GNU-stack
                0x0000000000000000        0x0 0x1 /home/ashwin/pop-compiler-lkvm/x86_64/lib/libc.a(usleep.o)
 .note.GNU-stack
                0x0000000000000000        0x0 0x1 /home/ashwin/pop-compiler-lkvm/x86_64/lib/libc.a(write.o)
 .note.GNU-stack
                0x0000000000000000        0x0 0x1 /home/ashwin/pop-compiler-lkvm/x86_64/lib/libc.a(writev.o)
 .note.GNU-stack
                0x0000000000000000        0x0 0x1 /home/ashwin/pop-compiler-lkvm/x86_64/lib/libc.a(tolower.o)
 .note.GNU-stack
                0x0000000000000000        0x0 0x1 /home/ashwin/pop-compiler-lkvm/x86_64/lib/libc.a(__environ.o)
 .note.GNU-stack
                0x0000000000000000        0x0 0x1 /home/ashwin/pop-compiler-lkvm/x86_64/lib/libc.a(__init_tls.o)
 .note.GNU-stack
                0x0000000000000000        0x0 0x1 /home/ashwin/pop-compiler-lkvm/x86_64/lib/libc.a(platform.o)
 .note.GNU-stack
                0x0000000000000000        0x0 0x1 /home/ashwin/pop-compiler-lkvm/x86_64/lib/libc.a(_Exit.o)
 .note.GNU-stack
                0x0000000000000000        0x0 0x1 /home/ashwin/pop-compiler-lkvm/x86_64/lib/libc.a(floatscan.o)
 .note.GNU-stack
                0x0000000000000000        0x0 0x1 /home/ashwin/pop-compiler-lkvm/x86_64/lib/libc.a(intscan.o)
 .note.GNU-stack
                0x0000000000000000        0x0 0x1 /home/ashwin/pop-compiler-lkvm/x86_64/lib/libc.a(procfdname.o)
 .note.GNU-stack
                0x0000000000000000        0x0 0x1 /home/ashwin/pop-compiler-lkvm/x86_64/lib/libc.a(shgetc.o)
 .note.GNU-stack
                0x0000000000000000        0x0 0x1 /home/ashwin/pop-compiler-lkvm/x86_64/lib/libc.a(syscall.o)
 .note.GNU-stack
                0x0000000000000000        0x0 0x1 /home/ashwin/pop-compiler-lkvm/x86_64/lib/libc.a(expand_heap.o)
 .note.GNU-stack
                0x0000000000000000        0x0 0x1 /home/ashwin/pop-compiler-lkvm/x86_64/lib/libc.a(__fpclassifyl.o)
 .note.GNU-stack
                0x0000000000000000        0x0 0x1 /home/ashwin/pop-compiler-lkvm/x86_64/lib/libc.a(__signbitl.o)
 .note.GNU-stack
                0x0000000000000000        0x0 0x1 /home/ashwin/pop-compiler-lkvm/x86_64/lib/libc.a(copysignl.o)
 .note.GNU-stack
                0x0000000000000000        0x0 0x1 /home/ashwin/pop-compiler-lkvm/x86_64/lib/libc.a(frexpl.o)
 .note.GNU-stack
                0x0000000000000000        0x0 0x1 /home/ashwin/pop-compiler-lkvm/x86_64/lib/libc.a(scalbn.o)
 .note.GNU-stack
                0x0000000000000000        0x0 0x1 /home/ashwin/pop-compiler-lkvm/x86_64/lib/libc.a(scalbnl.o)
 .note.GNU-stack
                0x0000000000000000        0x0 0x1 /home/ashwin/pop-compiler-lkvm/x86_64/lib/libc.a(fabs.o)
 .note.GNU-stack
                0x0000000000000000        0x0 0x1 /home/ashwin/pop-compiler-lkvm/x86_64/lib/libc.a(fmodl.o)
 .note.GNU-stack
                0x0000000000000000        0x0 0x1 /home/ashwin/pop-compiler-lkvm/x86_64/lib/libc.a(mbrtowc.o)
 .note.GNU-stack
                0x0000000000000000        0x0 0x1 /home/ashwin/pop-compiler-lkvm/x86_64/lib/libc.a(mbsinit.o)
 .note.GNU-stack
                0x0000000000000000        0x0 0x1 /home/ashwin/pop-compiler-lkvm/x86_64/lib/libc.a(wctomb.o)
 .note.GNU-stack
                0x0000000000000000        0x0 0x1 /home/ashwin/pop-compiler-lkvm/x86_64/lib/libc.a(sigaction.o)
 .note.GNU-stack
                0x0000000000000000        0x0 0x1 /home/ashwin/pop-compiler-lkvm/x86_64/lib/libc.a(restore.o)
 .note.GNU-stack
                0x0000000000000000        0x0 0x1 /home/ashwin/pop-compiler-lkvm/x86_64/lib/libc.a(__fdopen.o)
 .note.GNU-stack
                0x0000000000000000        0x0 0x1 /home/ashwin/pop-compiler-lkvm/x86_64/lib/libc.a(__fmodeflags.o)
 .note.GNU-stack
                0x0000000000000000        0x0 0x1 /home/ashwin/pop-compiler-lkvm/x86_64/lib/libc.a(__lockfile.o)
 .note.GNU-stack
                0x0000000000000000        0x0 0x1 /home/ashwin/pop-compiler-lkvm/x86_64/lib/libc.a(__overflow.o)
 .note.GNU-stack
                0x0000000000000000        0x0 0x1 /home/ashwin/pop-compiler-lkvm/x86_64/lib/libc.a(__stdio_close.o)
 .note.GNU-stack
                0x0000000000000000        0x0 0x1 /home/ashwin/pop-compiler-lkvm/x86_64/lib/libc.a(__stdio_read.o)
 .note.GNU-stack
                0x0000000000000000        0x0 0x1 /home/ashwin/pop-compiler-lkvm/x86_64/lib/libc.a(__stdio_seek.o)
 .note.GNU-stack
                0x0000000000000000        0x0 0x1 /home/ashwin/pop-compiler-lkvm/x86_64/lib/libc.a(__stdio_write.o)
 .note.GNU-stack
                0x0000000000000000        0x0 0x1 /home/ashwin/pop-compiler-lkvm/x86_64/lib/libc.a(__stdout_write.o)
 .note.GNU-stack
                0x0000000000000000        0x0 0x1 /home/ashwin/pop-compiler-lkvm/x86_64/lib/libc.a(__string_read.o)
 .note.GNU-stack
                0x0000000000000000        0x0 0x1 /home/ashwin/pop-compiler-lkvm/x86_64/lib/libc.a(__towrite.o)
 .note.GNU-stack
                0x0000000000000000        0x0 0x1 /home/ashwin/pop-compiler-lkvm/x86_64/lib/libc.a(__uflow.o)
 .note.GNU-stack
                0x0000000000000000        0x0 0x1 /home/ashwin/pop-compiler-lkvm/x86_64/lib/libc.a(fputs.o)
 .note.GNU-stack
                0x0000000000000000        0x0 0x1 /home/ashwin/pop-compiler-lkvm/x86_64/lib/libc.a(getdelim.o)
 .note.GNU-stack
                0x0000000000000000        0x0 0x1 /home/ashwin/pop-compiler-lkvm/x86_64/lib/libc.a(ofl_add.o)
 .note.GNU-stack
                0x0000000000000000        0x0 0x1 /home/ashwin/pop-compiler-lkvm/x86_64/lib/libc.a(memcmp.o)
 .note.GNU-stack
                0x0000000000000000        0x0 0x1 /home/ashwin/pop-compiler-lkvm/x86_64/lib/libc.a(stpcpy.o)
 .note.GNU-stack
                0x0000000000000000        0x0 0x1 /home/ashwin/pop-compiler-lkvm/x86_64/lib/libc.a(stpncpy.o)
 .note.GNU-stack
                0x0000000000000000        0x0 0x1 /home/ashwin/pop-compiler-lkvm/x86_64/lib/libc.a(strcspn.o)
 .note.GNU-stack
                0x0000000000000000        0x0 0x1 /home/ashwin/pop-compiler-lkvm/x86_64/lib/libc.a(mkostemps.o)
 .note.GNU-stack
                0x0000000000000000        0x0 0x1 /home/ashwin/pop-compiler-lkvm/x86_64/lib/libc.a(__timedwait.o)
 .note.GNU-stack
                0x0000000000000000        0x0 0x1 /home/ashwin/pop-compiler-lkvm/x86_64/lib/libc.a(pthread_rwlock_timedwrlock.o)
 .note.GNU-stack
                0x0000000000000000        0x0 0x1 /home/ashwin/pop-compiler-lkvm/x86_64/lib/libc.a(pthread_rwlock_trywrlock.o)
 .note.GNU-stack
                0x0000000000000000        0x0 0x1 /home/ashwin/pop-compiler-lkvm/x86_64/lib/libc.a(__set_thread_area.o)
 .note.GNU-stack
                0x0000000000000000        0x0 0x1 /home/ashwin/pop-compiler-lkvm/x86_64/lib/libc.a(__secs_to_tm.o)
 .note.GNU-stack
                0x0000000000000000        0x0 0x1 /home/ashwin/pop-compiler-lkvm/x86_64/lib/libc.a(__tz.o)
 .note.GNU-stack
                0x0000000000000000        0x0 0x1 /home/ashwin/pop-compiler-lkvm/x86_64/lib/libc.a(__year_to_secs.o)
 .note.GNU-stack
                0x0000000000000000        0x0 0x1 /home/ashwin/pop-compiler-lkvm/x86_64/lib/libc.a(clock_gettime.o)
 .note.GNU-stack
                0x0000000000000000        0x0 0x1 /home/ashwin/pop-compiler-lkvm/x86_64/lib/libc.a(nanosleep.o)
 .note.GNU-stack
                0x0000000000000000        0x0 0x1 /home/ashwin/pop-compiler-lkvm/x86_64/lib/libc.a(internal.o)
 .note.GNU-stack
                0x0000000000000000        0x0 0x1 /home/ashwin/pop-compiler-lkvm/x86_64/lib/libc.a(wcrtomb.o)
 .note.GNU-stack
                0x0000000000000000        0x0 0x1 /home/ashwin/pop-compiler-lkvm/x86_64/lib/libc.a(__stdio_exit.o)
 .note.GNU-stack
                0x0000000000000000        0x0 0x1 /home/ashwin/pop-compiler-lkvm/x86_64/lib/libc.a(__toread.o)
 .note.GNU-stack
                0x0000000000000000        0x0 0x1 /home/ashwin/pop-compiler-lkvm/x86_64/lib/libc.a(__randname.o)
 .note.GNU-stack
                0x0000000000000000        0x0 0x1 /home/ashwin/pop-compiler-lkvm/x86_64/lib/libc.a(__map_file.o)
 .note.GNU-stack
                0x0000000000000000        0x0 0x1 /home/ashwin/pop-compiler-lkvm/x86_64/lib/libc.a(__month_to_secs.o)

Memory map

 ** file header
                0x0000000000400000       0x40
 ** segment headers
                0x0000000000400040      0x150

.note.gnu.build-id
                0x0000000000400190       0x48
 .note.gnu.build-id
                0x0000000000400190       0x24 0x4 guest/guest_init.o
 ** note header
                0x00000000004001b4       0x10
 ** zero fill   0x00000000004001c4       0x14

.text           0x00000000004001e0    0x2db68
 .text.exit     0x00000000004001e0       0x1d 0x1 /home/ashwin/pop-compiler-lkvm/x86_64/lib/libc.a(exit.o)
                0x00000000004001e0                exit
 .text          0x00000000004001fd      0x2e6 0x1 x86/bios/bios-rom.o
                0x00000000004001fd                bios_rom
                0x00000000004004e3                bios_rom_end
 ** fill        0x00000000004004e3        0xa
 .text          0x00000000004004f0      0x2d1 0x10 x86/bios.o
                0x00000000004004f0                setup_bios
 ** fill        0x00000000004007c1        0xf
 .text          0x00000000004007d0       0xc3 0x10 builtin-balloon.o
                0x00000000004007d0                kvm_balloon_help
                0x00000000004007e0                kvm_cmd_balloon
 ** fill        0x0000000000400893        0xd
 .text          0x00000000004008a0      0x181 0x10 builtin-debug.o
                0x00000000004008b0                kvm_cmd_debug
                0x00000000004008a0                kvm_debug_help
 ** fill        0x0000000000400a21        0xf
 .text          0x0000000000400a30      0x29d 0x10 builtin-help.o
                0x0000000000400a30                kvm_cmd_help
 ** fill        0x0000000000400ccd        0x3
 .text          0x0000000000400cd0      0x262 0x10 builtin-list.o
                0x0000000000400ce0                get_vmstate
                0x0000000000400d20                kvm_cmd_list
                0x0000000000400cd0                kvm_list_help
 ** fill        0x0000000000400f32        0xe
 .text          0x0000000000400f40      0x2fc 0x10 builtin-stat.o
                0x0000000000400f50                kvm_cmd_stat
                0x0000000000400f40                kvm_stat_help
 ** fill        0x000000000040123c        0x4
 .text          0x0000000000401240      0x12e 0x10 builtin-pause.o
                0x0000000000401250                kvm_cmd_pause
                0x0000000000401240                kvm_pause_help
 ** fill        0x000000000040136e        0x2
 .text          0x0000000000401370      0x12d 0x10 builtin-resume.o
                0x0000000000401380                kvm_cmd_resume
                0x0000000000401370                kvm_resume_help
 ** fill        0x000000000040149d        0x3
 .text          0x00000000004014a0     0x2c6a 0x10 builtin-run.o
                0x0000000000402240                kvm_cmd_run
                0x00000000004014b0                kvm_run_help
                0x00000000004014a0                kvm_run_set_wrapper_sandbox
 ** fill        0x000000000040410a        0x6
 .text          0x0000000000404110      0x5a2 0x10 builtin-setup.o
                0x00000000004045e0                kvm_cmd_setup
                0x0000000000404270                kvm_setup_create_new
                0x0000000000404110                kvm_setup_help
                0x0000000000404140                kvm_setup_resolv
 ** fill        0x00000000004046b2        0xe
 .text          0x00000000004046c0       0xbc 0x10 builtin-stop.o
                0x00000000004046d0                kvm_cmd_stop
                0x00000000004046c0                kvm_stop_help
 ** fill        0x000000000040477c        0x4
 .text          0x0000000000404780       0x16 0x10 builtin-version.o
                0x0000000000404780                kvm_cmd_version
 ** fill        0x0000000000404796        0xa
 .text          0x00000000004047a0      0x197 0x10 devices.o
                0x0000000000404890                device__find_dev
                0x00000000004048f0                device__first_dev
                0x0000000000404920                device__next_dev
                0x00000000004047a0                device__register
                0x0000000000404870                device__unregister
 ** fill        0x0000000000404937        0x9
 .text          0x0000000000404940      0x6d9 0x10 kvm-cpu_common.o
                0x0000000000404950                kvm_cpu__enable_singlestep
                0x0000000000404f20                kvm_cpu__exit
                0x0000000000404940                kvm_cpu__get_endianness
                0x0000000000404dd0                kvm_cpu__init
                0x00000000004049f0                kvm_cpu__reboot
                0x00000000004049b0                kvm_cpu__run
                0x0000000000404a40                kvm_cpu__start
 ** fill        0x0000000000405019        0x7
 .text          0x0000000000405020      0x729 0x10 disk/core.o
                0x00000000004056b0                disk_image__exit
                0x0000000000405210                disk_image__flush
                0x0000000000405370                disk_image__get_serial
                0x00000000004053e0                disk_image__init
                0x0000000000405160                disk_image__new
                0x0000000000405230                disk_image__read
                0x00000000004053d0                disk_image__set_callback
                0x00000000004052d0                disk_image__write
                0x0000000000405020                disk_img_name_parser
 ** fill        0x0000000000405749        0x7
 .text          0x0000000000405750      0x179 0x10 framebuffer.o
                0x0000000000405780                fb__attach
                0x0000000000405830                fb__exit
                0x00000000004057a0                fb__init
                0x0000000000405750                fb__register
 ** fill        0x00000000004058c9        0x7
 .text          0x00000000004058d0      0x242 0x10 guest_compat.o
                0x00000000004058d0                compat__add_message
                0x0000000000405a60                compat__print_all_messages
                0x00000000004059b0                compat__remove_message
 ** fill        0x0000000000405b12        0xe
 .text          0x0000000000405b20      0x1cc 0x10 hw/rtc.o
                0x0000000000405ba0                rtc__exit
                0x0000000000405b20                rtc__init
 ** fill        0x0000000000405cec        0x4
 .text          0x0000000000405cf0      0x6e2 0x10 hw/serial.o
                0x00000000004060b0                serial8250__exit
                0x0000000000405f60                serial8250__init
                0x0000000000405f50                serial8250__inject_sysrq
                0x0000000000405cf0                serial8250__update_consoles
 ** fill        0x00000000004063d2        0xe
 .text          0x00000000004063e0      0x399 0x10 ioport_common.o
                0x0000000000406710                ioport__exit
                0x00000000004066e0                ioport__init
                0x00000000004063e0                ioport__register
                0x0000000000406540                ioport__unregister
                0x00000000004065a0                kvm__emulate_io
 ** fill        0x0000000000406779        0x7
 .text          0x0000000000406780       0x2b 0x10 irq_common.o
                0x0000000000406780                irq__alloc_line
                0x00000000004067a0                irq__get_nr_allocated_lines
 ** fill        0x00000000004067ab        0x5
 .text          0x00000000004067b0     0x10fc 0x10 x86/kvm-cpu.o
                0x00000000004067f0                kvm_cpu__arch_init
                0x0000000000407860                kvm_cpu__arch_nmi
                0x00000000004067d0                kvm_cpu__delete
                0x00000000004067c0                kvm_cpu__get_debug_fd
                0x0000000000406c00                kvm_cpu__handle_exit
                0x0000000000406960                kvm_cpu__reset_vcpu
                0x00000000004067b0                kvm_cpu__set_debug_fd
                0x0000000000407410                kvm_cpu__show_code
                0x0000000000407690                kvm_cpu__show_page_tables
                0x0000000000406c10                kvm_cpu__show_registers
 ** fill        0x00000000004078ac        0x4
 .text          0x00000000004078b0      0xaf3 0x10 kvm_common.o
                0x0000000000407b40                guest_flat_to_host
                0x0000000000407ba0                host_to_guest_flat
                0x0000000000408300                kvm__continue
                0x00000000004080b0                kvm__dump_mem
                0x0000000000407a00                kvm__exit
                0x00000000004079a0                kvm__get_dir
                0x0000000000407c80                kvm__init
                0x0000000000407f20                kvm__load_kernel
                0x0000000000407c30                kvm__max_cpus
                0x00000000004079d0                kvm__new
                0x0000000000408340                kvm__notify_paused
                0x00000000004081f0                kvm__pause
                0x0000000000407c00                kvm__recommended_cpus
                0x0000000000407a70                kvm__register_mem
                0x00000000004078b0                kvm__set_dir
                0x00000000004079b0                kvm__supports_extension
                0x0000000000408090                load_elf_binary
 ** fill        0x00000000004083a3        0xd
 .text          0x00000000004083b0       0x3f 0x10 main.o
                0x00000000004083b0                main
 ** fill        0x00000000004083ef        0x1
 .text          0x00000000004083f0      0x1f8 0x10 mmio_common.o
                0x00000000004084d0                kvm__deregister_mmio
                0x0000000000408560                kvm__emulate_mmio
                0x00000000004083f0                kvm__register_mmio
 ** fill        0x00000000004085e8        0x8
 .text          0x00000000004085f0      0x5e9 0x10 pci_common.o
                0x0000000000408610                pci__assign_irq
                0x0000000000408700                pci__config_rd
                0x0000000000408630                pci__config_wr
                0x00000000004089f0                pci__exit
                0x00000000004087a0                pci__find_dev
                0x00000000004087d0                pci__init
                0x00000000004085f0                pci_get_io_space_block
 ** fill        0x0000000000408bd9        0x7
 .text          0x0000000000408be0      0x5c9 0x10 term.o
                0x0000000000409180                term_exit
                0x0000000000408be0                term_getc
                0x0000000000408cc0                term_getc_iov
                0x0000000000408e70                term_init
                0x0000000000408c60                term_putc
                0x0000000000408d50                term_putc_iov
                0x0000000000408d70                term_readable
                0x0000000000408dc0                term_set_tty
                0x0000000000408e50                tty_parser
 ** fill        0x00000000004091a9        0x7
 .text          0x00000000004091b0      0x7e3 0x10 virtio/blk.o
                0x00000000004095b0                virtio_blk__exit
                0x00000000004092a0                virtio_blk__init
                0x00000000004091b0                virtio_blk_complete
 ** fill        0x0000000000409993        0xd
 .text          0x00000000004099a0      0x6c1 0x10 virtio/scsi.o
                0x0000000000409cc0                virtio_scsi_exit
                0x00000000004099a0                virtio_scsi_init
 ** fill        0x000000000040a061        0xf
 .text          0x000000000040a070      0x598 0x10 virtio/console.o
                0x000000000040a230                virtio_console__exit
                0x000000000040a1a0                virtio_console__init
                0x000000000040a070                virtio_console__inject_interrupt
 ** fill        0x000000000040a608        0x8
 .text          0x000000000040a610      0x479 0x10 virtio/core.o
                0x000000000040a670                virt_queue__get_head_iov
                0x000000000040a7b0                virt_queue__get_inout_iov
                0x000000000040a780                virt_queue__get_iov
                0x000000000040a630                virt_queue__set_used_elem
                0x000000000040a8a0                virtio__get_dev_specific_field
                0x000000000040a9f0                virtio_compat_add_message
                0x000000000040a8f0                virtio_init
                0x000000000040a8c0                virtio_queue__should_signal
                0x000000000040a610                virtio_trans_name
 ** fill        0x000000000040aa89        0x7
 .text          0x000000000040aa90     0x1a67 0x10 virtio/net.o
                0x000000000040aa90                netdev_parser
                0x000000000040b410                virtio_net__exit
                0x000000000040af00                virtio_net__init
 ** fill        0x000000000040c4f7        0x9
 .text          0x000000000040c500      0x509 0x10 virtio/rng.o
                0x000000000040c600                virtio_rng__exit
                0x000000000040c500                virtio_rng__init
 ** fill        0x000000000040ca09        0x7
 .text          0x000000000040ca10      0x5e9 0x10 virtio/balloon.o
                0x000000000040cdc0                virtio_bln__exit
                0x000000000040cbe0                virtio_bln__init
 ** fill        0x000000000040cff9        0x7
 .text          0x000000000040d000      0x98f 0x10 virtio/pci.o
                0x000000000040d470                virtio_pci__exit
                0x000000000040d1a0                virtio_pci__init
                0x000000000040d0d0                virtio_pci__signal_config
                0x000000000040d000                virtio_pci__signal_vq
 ** fill        0x000000000040d98f        0x1
 .text          0x000000000040d990      0x13c 0x10 disk/blk.o
                0x000000000040d990                blkdev__probe
 ** fill        0x000000000040dacc        0x4
 .text          0x000000000040dad0     0x1dde 0x10 disk/qcow.o
                0x000000000040dad0                qcow_probe
 ** fill        0x000000000040f8ae        0x2
 .text          0x000000000040f8b0      0x244 0x10 disk/raw.o
                0x000000000040fa70                raw_image__close
                0x000000000040faa0                raw_image__probe
                0x000000000040f8b0                raw_image__read
                0x000000000040f8f0                raw_image__read_mmap
                0x000000000040f8d0                raw_image__write
                0x000000000040f9b0                raw_image__write_mmap
 ** fill        0x000000000040faf4        0xc
 .text          0x000000000040fb00      0x473 0x10 ioeventfd.o
                0x000000000040fc70                ioeventfd__add_event
                0x000000000040fdc0                ioeventfd__del_event
                0x000000000040fbf0                ioeventfd__exit
                0x000000000040fb00                ioeventfd__init
 ** fill        0x000000000040ff73        0xd
 .text          0x000000000040ff80      0x40b 0x10 net/uip/core.o
                0x00000000004102b0                uip_init
                0x00000000004101c0                uip_rx
                0x0000000000410220                uip_static_init
                0x000000000040ff80                uip_tx
 ** fill        0x000000000041038b        0x5
 .text          0x0000000000410390       0x9a 0x10 net/uip/arp.o
                0x0000000000410390                uip_tx_do_arp
 ** fill        0x000000000041042a        0x6
 .text          0x0000000000410430       0x60 0x10 net/uip/icmp.o
                0x0000000000410430                uip_tx_do_ipv4_icmp
 .text          0x0000000000410490       0x4e 0x10 net/uip/ipv4.o
                0x0000000000410490                uip_tx_do_ipv4
 ** fill        0x00000000004104de        0x2
 .text          0x00000000004104e0      0x738 0x10 net/uip/tcp.o
                0x00000000004104e0                uip_tx_do_ipv4_tcp
 ** fill        0x0000000000410c18        0x8
 .text          0x0000000000410c20      0x57b 0x10 net/uip/udp.o
                0x0000000000410d30                uip_tx_do_ipv4_udp
                0x0000000000410c20                uip_udp_make_pkg
 ** fill        0x000000000041119b        0x5
 .text          0x00000000004111a0      0x2b4 0x10 net/uip/buf.o
                0x00000000004113e0                uip_buf_clone
                0x0000000000411250                uip_buf_get_free
                0x00000000004111a0                uip_buf_get_used
                0x0000000000411370                uip_buf_set_free
                0x0000000000411300                uip_buf_set_used
 ** fill        0x0000000000411454        0xc
 .text          0x0000000000411460      0xaab 0x10 net/uip/csum.o
                0x00000000004115e0                uip_csum_icmp
                0x0000000000411460                uip_csum_ip
                0x0000000000411b10                uip_csum_tcp
                0x00000000004117a0                uip_csum_udp
 ** fill        0x0000000000411f0b        0x5
 .text          0x0000000000411f10      0x457 0x10 net/uip/dhcp.o
                0x0000000000411f50                uip_dhcp_get_dns
                0x00000000004120b0                uip_tx_do_ipv4_udp_dhcp
                0x0000000000411f10                uip_udp_is_dhcp
 ** fill        0x0000000000412367        0x9
 .text          0x0000000000412370      0x1a7 0x10 kvm-cmd.o
                0x00000000004123c0                handle_command
                0x0000000000412370                kvm_get_command
 ** fill        0x0000000000412517        0x9
 .text          0x0000000000412520      0x41d 0x10 util/init.o
                0x0000000000412560                exit_list_add
                0x0000000000412770                init_list__exit
                0x00000000004125a0                init_list__init
                0x0000000000412520                init_list_add
 ** fill        0x000000000041293d        0x3
 .text          0x0000000000412940      0x1f2 0x10 util/iovec.o
                0x0000000000412a20                memcpy_fromiovec
                0x0000000000412a90                memcpy_fromiovecend
                0x0000000000412940                memcpy_toiovec
                0x00000000004129b0                memcpy_toiovecend
 ** fill        0x0000000000412b32        0xe
 .text          0x0000000000412b40      0x989 0x10 util/rbtree.o
                0x0000000000412b40                __rb_erase_color
                0x00000000004131c0                __rb_insert_augmented
                0x0000000000412eb0                rb_erase
                0x0000000000413320                rb_first
                0x00000000004134a0                rb_first_postorder
                0x0000000000412d60                rb_insert_color
                0x0000000000413340                rb_last
                0x0000000000413360                rb_next
                0x0000000000413460                rb_next_postorder
                0x00000000004133b0                rb_prev
                0x0000000000413400                rb_replace_node
 ** fill        0x00000000004134c9        0x7
 .text          0x00000000004134d0      0xc83 0x10 kvm-ipc.o
                0x00000000004135e0                kvm__enumerate_instances
                0x0000000000413520                kvm__get_sock_by_instance
                0x00000000004134d0                kvm__remove_socket
                0x0000000000413fb0                kvm_ipc__exit
                0x0000000000413840                kvm_ipc__init
                0x0000000000413770                kvm_ipc__register_handler
                0x00000000004137d0                kvm_ipc__send
                0x00000000004137f0                kvm_ipc__send_msg
 ** fill        0x0000000000414153        0xd
 .text          0x0000000000414160      0x9b3 0x10 util/read-write.o
                0x00000000004143e0                pread_in_full
                0x00000000004148b0                preadv_in_full
                0x0000000000414460                pwrite_in_full
                0x00000000004149e0                pwritev_in_full
                0x0000000000414220                read_in_full
                0x00000000004145b0                readv_in_full
                0x00000000004142a0                write_in_full
                0x00000000004146d0                writev_in_full
                0x0000000000414320                xpread
                0x00000000004147f0                xpreadv
                0x0000000000414380                xpwrite
                0x0000000000414850                xpwritev
                0x0000000000414160                xread
                0x00000000004144f0                xreadv
                0x00000000004141c0                xwrite
                0x0000000000414550                xwritev
 ** fill        0x0000000000414b13        0xd
 .text          0x0000000000414b20      0xe52 0x10 util/parse-options.o
                0x0000000000414de0                parse_options
                0x0000000000414b20                usage_with_options
 ** fill        0x0000000000415972        0xe
 .text          0x0000000000415980      0x48d 0x10 util/threadpool.o
                0x0000000000415b40                thread_pool__do_job
                0x0000000000415a80                thread_pool__exit
                0x0000000000415980                thread_pool__init
 ** fill        0x0000000000415e0d        0x3
 .text          0x0000000000415e10       0xfd 0x10 util/rbtree-interval.o
                0x0000000000415ea0                rb_int_insert
                0x0000000000415e50                rb_int_search_range
                0x0000000000415e10                rb_int_search_single
 ** fill        0x0000000000415f0d        0x3
 .text          0x0000000000415f10       0xee 0x10 util/strbuf.o
                0x0000000000415f10                prefixcmp
                0x0000000000415f40                strlcat
                0x0000000000415fb0                strlcpy
 ** fill        0x0000000000415ffe        0x2
 .text          0x0000000000416000      0x4f7 0x10 util/util.o
                0x0000000000416000                die
                0x0000000000416320                die_perror
                0x0000000000416450                mmap_anon_or_hugetlbfs
                0x0000000000416330                mmap_hugetlbfs
                0x00000000004160b0                pr_err
                0x0000000000416250                pr_info
                0x0000000000416180                pr_warning
 ** fill        0x00000000004164f7        0x9
 .text          0x0000000000416500      0x733 0x10 hw/pci-shmem.o
                0x00000000004165c0                pci_shmem__add_client
                0x0000000000416be0                pci_shmem__exit
                0x0000000000416530                pci_shmem__get_local_irqfd
                0x00000000004169d0                pci_shmem__init
                0x0000000000416500                pci_shmem__register_mem
                0x0000000000416620                pci_shmem__remove_client
                0x0000000000416680                shmem_parser
 ** fill        0x0000000000416c33        0xd
 .text          0x0000000000416c40      0xc2d 0x10 hw/i8042.o
                0x0000000000416da0                kbd__init
                0x0000000000416cf0                kbd_queue
                0x0000000000416c40                mouse_queue
 ** fill        0x000000000041786d        0x3
 .text          0x0000000000417870     0x3110 0x10 virtio/9p.o
                0x0000000000417e00                virtio_9p__init
                0x0000000000417b90                virtio_9p__register
                0x0000000000417ca0                virtio_9p_img_name_parser
                0x0000000000417b10                virtio_9p_rootdir_parser
 .text          0x000000000041a980       0x22 0x10 builtin-sandbox.o
                0x000000000041a980                kvm_cmd_sandbox
 ** fill        0x000000000041a9a2        0xe
 .text          0x000000000041a9b0      0x49c 0x10 virtio/mmio.o
                0x000000000041a9f0                virtio_mmio_assign_irq
                0x000000000041ade0                virtio_mmio_exit
                0x000000000041aa00                virtio_mmio_init
                0x000000000041a9d0                virtio_mmio_signal_config
                0x000000000041a9b0                virtio_mmio_signal_vq
 ** fill        0x000000000041ae4c        0x4
 .text          0x000000000041ae50     0x10bb 0x10 virtio/9p-pdu.o
                0x000000000041ae50                virtio_p9_pdu_readf
                0x000000000041b6d0                virtio_p9_pdu_writef
 ** fill        0x000000000041bf0b        0x5
 .text          0x000000000041bf10      0x6e2 0x10 x86/kvm.o
                0x000000000041bf10                kvm__arch_cpu_supports_vm
                0x000000000041c1c0                kvm__arch_delete_ram
                0x000000000041c5d0                kvm__arch_free_firmware
                0x000000000041c080                kvm__arch_init
                0x000000000041c5e0                kvm__arch_read_term
                0x000000000041bfe0                kvm__arch_set_cmdline
                0x000000000041c5c0                kvm__arch_setup_firmware
                0x000000000041bf60                kvm__init_ram
                0x000000000041c1e0                kvm__irq_line
                0x000000000041c210                kvm__irq_trigger
                0x000000000041c310                load_bzimage
                0x000000000041c280                load_flat_binary
 ** fill        0x000000000041c5f2        0xe
 .text          0x000000000041c600       0xb0 0x10 x86/boot.o
                0x000000000041c600                kvm__load_firmware
 .text          0x000000000041c6b0       0xf6 0x10 x86/cpuid.o
                0x000000000041c6b0                kvm_cpu__setup_cpuid
 ** fill        0x000000000041c7a6        0xa
 .text          0x000000000041c7b0       0xe0 0x10 x86/interrupt.o
                0x000000000041c7b0                interrupt_table__copy
                0x000000000041c880                interrupt_table__set
                0x000000000041c7e0                interrupt_table__setup
 .text          0x000000000041c890      0x1ed 0x10 x86/ioport.o
                0x000000000041c890                ioport__map_irq
                0x000000000041c8a0                ioport__setup_arch
 ** fill        0x000000000041ca7d        0x3
 .text          0x000000000041ca80      0x499 0x10 x86/irq.o
                0x000000000041cea0                irq__add_msix_route
                0x000000000041ce60                irq__exit
                0x000000000041ca80                irq__init
 ** fill        0x000000000041cf19        0x7
 .text          0x000000000041cf20      0x499 0x10 x86/mptable.o
                0x000000000041d390                mptable__exit
                0x000000000041cf20                mptable__init
 ** fill        0x000000000041d3b9        0x7
 .text          0x000000000041d3c0      0x143 0x10 hw/vesa.o
                0x000000000041d3c0                vesa__init
 ** fill        0x000000000041d503        0x1
 .text          0x000000000041d504       0x16 0x4 /home/ashwin/pop-compiler-lkvm/x86_64/lib/crt1.o
                0x000000000041d504                _start
 .text._start_c
                0x000000000041d51a       0x1f 0x1 /home/ashwin/pop-compiler-lkvm/x86_64/lib/crt1.o
                0x000000000041d51a                _start_c
 ** fill        0x000000000041d539        0x3
 .text          0x000000000041d53c        0x0 0x4 /home/ashwin/pop-compiler-lkvm/x86_64/lib/libc.a(sysconf.o)
 .text.sysconf  0x000000000041d53c      0x189 0x1 /home/ashwin/pop-compiler-lkvm/x86_64/lib/libc.a(sysconf.o)
                0x000000000041d53c                sysconf
 ** fill        0x000000000041d6c5        0x3
 .text          0x000000000041d6c8        0x0 0x4 /home/ashwin/pop-compiler-lkvm/x86_64/lib/libc.a(closedir.o)
 .text.closedir
                0x000000000041d6c8       0x20 0x1 /home/ashwin/pop-compiler-lkvm/x86_64/lib/libc.a(closedir.o)
                0x000000000041d6c8                closedir
 .text          0x000000000041d6e8        0x0 0x4 /home/ashwin/pop-compiler-lkvm/x86_64/lib/libc.a(dirfd.o)
 .text.dirfd    0x000000000041d6e8        0x3 0x1 /home/ashwin/pop-compiler-lkvm/x86_64/lib/libc.a(dirfd.o)
                0x000000000041d6e8                dirfd
 ** fill        0x000000000041d6eb        0x1
 .text          0x000000000041d6ec        0x0 0x4 /home/ashwin/pop-compiler-lkvm/x86_64/lib/libc.a(opendir.o)
 .text.opendir  0x000000000041d6ec       0x48 0x1 /home/ashwin/pop-compiler-lkvm/x86_64/lib/libc.a(opendir.o)
                0x000000000041d6ec                opendir
 .text          0x000000000041d734        0x0 0x4 /home/ashwin/pop-compiler-lkvm/x86_64/lib/libc.a(readdir.o)
 .text.readdir  0x000000000041d734       0x6f 0x1 /home/ashwin/pop-compiler-lkvm/x86_64/lib/libc.a(readdir.o)
                0x000000000041d734                readdir
                0x000000000041d734                readdir64
 ** fill        0x000000000041d7a3        0x1
 .text          0x000000000041d7a4        0x0 0x4 /home/ashwin/pop-compiler-lkvm/x86_64/lib/libc.a(readdir_r.o)
 .text.readdir_r
                0x000000000041d7a4       0x92 0x1 /home/ashwin/pop-compiler-lkvm/x86_64/lib/libc.a(readdir_r.o)
                0x000000000041d7a4                readdir64_r
                0x000000000041d7a4                readdir_r
 ** fill        0x000000000041d836        0x2
 .text          0x000000000041d838        0x0 0x4 /home/ashwin/pop-compiler-lkvm/x86_64/lib/libc.a(seekdir.o)
 .text.seekdir  0x000000000041d838       0x3c 0x1 /home/ashwin/pop-compiler-lkvm/x86_64/lib/libc.a(seekdir.o)
                0x000000000041d838                seekdir
 .text          0x000000000041d874        0x0 0x4 /home/ashwin/pop-compiler-lkvm/x86_64/lib/libc.a(__libc_start_main.o)
 .text.dummy    0x000000000041d874        0x1 0x1 /home/ashwin/pop-compiler-lkvm/x86_64/lib/libc.a(__libc_start_main.o)
                0x000000000041d874                _init
 .text.dummy1   0x000000000041d875        0x1 0x1 /home/ashwin/pop-compiler-lkvm/x86_64/lib/libc.a(__libc_start_main.o)
                0x000000000041d875                __init_ssp
 .text.__init_libc
                0x000000000041d876      0x19f 0x1 /home/ashwin/pop-compiler-lkvm/x86_64/lib/libc.a(__libc_start_main.o)
                0x000000000041d876                __init_libc
 .text.libc_start_init
                0x000000000041da15       0x31 0x1 /home/ashwin/pop-compiler-lkvm/x86_64/lib/libc.a(__libc_start_main.o)
                0x000000000041da15                __libc_start_init
 .text.__libc_start_main
                0x000000000041da46       0x43 0x1 /home/ashwin/pop-compiler-lkvm/x86_64/lib/libc.a(__libc_start_main.o)
                0x000000000041da46                __libc_start_main
 ** fill        0x000000000041da89        0x3
 .text          0x000000000041da8c        0x0 0x4 /home/ashwin/pop-compiler-lkvm/x86_64/lib/libc.a(getenv.o)
 .text.getenv   0x000000000041da8c       0x80 0x1 /home/ashwin/pop-compiler-lkvm/x86_64/lib/libc.a(getenv.o)
                0x000000000041da8c                getenv
 .text          0x000000000041db0c        0x0 0x4 /home/ashwin/pop-compiler-lkvm/x86_64/lib/libc.a(__errno_location.o)
 .text.__errno_location
                0x000000000041db0c        0xe 0x1 /home/ashwin/pop-compiler-lkvm/x86_64/lib/libc.a(__errno_location.o)
                0x000000000041db0c                __errno_location
 ** fill        0x000000000041db1a        0x2
 .text          0x000000000041db1c        0x0 0x4 /home/ashwin/pop-compiler-lkvm/x86_64/lib/libc.a(strerror.o)
 .text.__strerror_l
                0x000000000041db1c       0x44 0x1 /home/ashwin/pop-compiler-lkvm/x86_64/lib/libc.a(strerror.o)
                0x000000000041db1c                __strerror_l
                0x000000000041db1c                strerror_l
 .text.strerror
                0x000000000041db60       0x15 0x1 /home/ashwin/pop-compiler-lkvm/x86_64/lib/libc.a(strerror.o)
                0x000000000041db60                strerror
 ** fill        0x000000000041db75        0x3
 .text          0x000000000041db78        0x0 0x4 /home/ashwin/pop-compiler-lkvm/x86_64/lib/libc.a(atexit.o)
 .text.__funcs_on_exit
                0x000000000041db78       0x95 0x1 /home/ashwin/pop-compiler-lkvm/x86_64/lib/libc.a(atexit.o)
                0x000000000041db78                __funcs_on_exit
 .text.__cxa_finalize
                0x000000000041dc0d        0x1 0x1 /home/ashwin/pop-compiler-lkvm/x86_64/lib/libc.a(atexit.o)
                0x000000000041dc0d                __cxa_finalize
 .text.__cxa_atexit
                0x000000000041dc0e       0xa1 0x1 /home/ashwin/pop-compiler-lkvm/x86_64/lib/libc.a(atexit.o)
                0x000000000041dc0e                __cxa_atexit
 .text.atexit   0x000000000041dcaf        0xd 0x1 /home/ashwin/pop-compiler-lkvm/x86_64/lib/libc.a(atexit.o)
                0x000000000041dcaf                atexit
 .text.call     0x000000000041dcbc        0x2 0x1 /home/ashwin/pop-compiler-lkvm/x86_64/lib/libc.a(atexit.o)
 ** fill        0x000000000041dcbe        0x2
 .text          0x000000000041dcc0        0x0 0x4 /home/ashwin/pop-compiler-lkvm/x86_64/lib/libc.a(exit.o)
 .text.libc_exit_fini
                0x000000000041dcc0       0x35 0x1 /home/ashwin/pop-compiler-lkvm/x86_64/lib/libc.a(exit.o)
                0x000000000041dcc0                __libc_exit_fini
 .text.dummy    0x000000000041dcf5        0x1 0x1 /home/ashwin/pop-compiler-lkvm/x86_64/lib/libc.a(exit.o)
                0x000000000041dcf5                _fini
 ** fill        0x000000000041dcf6        0x1
 .text          0x000000000041dcf8        0x0 0x4 /home/ashwin/pop-compiler-lkvm/x86_64/lib/libc.a(fcntl.o)
 .text.fcntl    0x000000000041dcf8      0x1fd 0x1 /home/ashwin/pop-compiler-lkvm/x86_64/lib/libc.a(fcntl.o)
                0x000000000041dcf8                fcntl
 ** fill        0x000000000041def5        0x3
 .text          0x000000000041def8        0x0 0x4 /home/ashwin/pop-compiler-lkvm/x86_64/lib/libc.a(open.o)
 .text.open     0x000000000041def8      0x113 0x1 /home/ashwin/pop-compiler-lkvm/x86_64/lib/libc.a(open.o)
                0x000000000041def8                open
                0x000000000041def8                open64
 ** fill        0x000000000041e00b        0x1
 .text          0x000000000041e00c        0x0 0x4 /home/ashwin/pop-compiler-lkvm/x86_64/lib/libc.a(libc.o)
 .text          0x000000000041e00c        0x0 0x4 /home/ashwin/pop-compiler-lkvm/x86_64/lib/libc.a(syscall_ret.o)
 ** fill        0x000000000041e00c        0x8
 .text.__syscall_ret
                0x000000000041e020       0x22 0x10 /home/ashwin/pop-compiler-lkvm/x86_64/lib/libc.a(syscall_ret.o)
                0x000000000041e020                __syscall_ret
 ** fill        0x000000000041e042        0x2
 .text          0x000000000041e044        0x0 0x4 /home/ashwin/pop-compiler-lkvm/x86_64/lib/libc.a(getpagesize.o)
 .text.getpagesize
                0x000000000041e044        0x6 0x1 /home/ashwin/pop-compiler-lkvm/x86_64/lib/libc.a(getpagesize.o)
                0x000000000041e044                getpagesize
 ** fill        0x000000000041e04a        0x2
 .text          0x000000000041e04c        0x0 0x4 /home/ashwin/pop-compiler-lkvm/x86_64/lib/libc.a(epoll.o)
 .text.epoll_create
                0x000000000041e04c        0x7 0x1 /home/ashwin/pop-compiler-lkvm/x86_64/lib/libc.a(epoll.o)
                0x000000000041e04c                epoll_create
 .text.epoll_create1
                0x000000000041e053       0x27 0x1 /home/ashwin/pop-compiler-lkvm/x86_64/lib/libc.a(epoll.o)
                0x000000000041e053                epoll_create1
 .text.epoll_ctl
                0x000000000041e07a       0x1b 0x1 /home/ashwin/pop-compiler-lkvm/x86_64/lib/libc.a(epoll.o)
                0x000000000041e07a                epoll_ctl
 .text.epoll_pwait
                0x000000000041e095       0x2f 0x1 /home/ashwin/pop-compiler-lkvm/x86_64/lib/libc.a(epoll.o)
                0x000000000041e095                epoll_pwait
 .text.epoll_wait
                0x000000000041e0c4        0x8 0x1 /home/ashwin/pop-compiler-lkvm/x86_64/lib/libc.a(epoll.o)
                0x000000000041e0c4                epoll_wait
 .text          0x000000000041e0cc        0x0 0x4 /home/ashwin/pop-compiler-lkvm/x86_64/lib/libc.a(eventfd.o)
 .text.eventfd  0x000000000041e0cc       0x24 0x1 /home/ashwin/pop-compiler-lkvm/x86_64/lib/libc.a(eventfd.o)
                0x000000000041e0cc                eventfd
 .text.eventfd_read
                0x000000000041e0f0       0x1a 0x1 /home/ashwin/pop-compiler-lkvm/x86_64/lib/libc.a(eventfd.o)
                0x000000000041e0f0                eventfd_read
 .text.eventfd_write
                0x000000000041e10a       0x23 0x1 /home/ashwin/pop-compiler-lkvm/x86_64/lib/libc.a(eventfd.o)
                0x000000000041e10a                eventfd_write
 ** fill        0x000000000041e12d        0x3
 .text          0x000000000041e130        0x0 0x4 /home/ashwin/pop-compiler-lkvm/x86_64/lib/libc.a(prctl.o)
 .text.prctl    0x000000000041e130       0xe4 0x1 /home/ashwin/pop-compiler-lkvm/x86_64/lib/libc.a(prctl.o)
                0x000000000041e130                prctl
 .text          0x000000000041e214        0x0 0x4 /home/ashwin/pop-compiler-lkvm/x86_64/lib/libc.a(sysinfo.o)
 .text.__lsysinfo
                0x000000000041e214        0xf 0x1 /home/ashwin/pop-compiler-lkvm/x86_64/lib/libc.a(sysinfo.o)
                0x000000000041e214                __lsysinfo
                0x000000000041e214                sysinfo
 ** fill        0x000000000041e223        0x1
 .text          0x000000000041e224        0x0 0x4 /home/ashwin/pop-compiler-lkvm/x86_64/lib/libc.a(__lctrans.o)
 .text.dummy    0x000000000041e224        0x4 0x1 /home/ashwin/pop-compiler-lkvm/x86_64/lib/libc.a(__lctrans.o)
                0x000000000041e224                __lctrans_impl
 .text.__lctrans
                0x000000000041e228        0x5 0x1 /home/ashwin/pop-compiler-lkvm/x86_64/lib/libc.a(__lctrans.o)
                0x000000000041e228                __lctrans
 .text.__lctrans_cur
                0x000000000041e22d       0x19 0x1 /home/ashwin/pop-compiler-lkvm/x86_64/lib/libc.a(__lctrans.o)
                0x000000000041e22d                __lctrans_cur
 ** fill        0x000000000041e246        0x2
 .text          0x000000000041e248        0x0 0x4 /home/ashwin/pop-compiler-lkvm/x86_64/lib/libc.a(calloc.o)
 ** fill        0x000000000041e248        0x8
 .text.calloc   0x000000000041e250       0x34 0x10 /home/ashwin/pop-compiler-lkvm/x86_64/lib/libc.a(calloc.o)
                0x000000000041e250                calloc
 ** fill        0x000000000041e284        0xc
 .text.popcorn_calloc
                0x000000000041e290       0x38 0x10 /home/ashwin/pop-compiler-lkvm/x86_64/lib/libc.a(calloc.o)
                0x000000000041e290                popcorn_calloc
 ** fill        0x000000000041e2c8        0x8
 .text.popcorn_calloc_cur
                0x000000000041e2d0       0x52 0x10 /home/ashwin/pop-compiler-lkvm/x86_64/lib/libc.a(calloc.o)
                0x000000000041e2d0                popcorn_calloc_cur
 ** fill        0x000000000041e322        0x2
 .text          0x000000000041e324        0x0 0x4 /home/ashwin/pop-compiler-lkvm/x86_64/lib/libc.a(lite_malloc.o)
 ** fill        0x000000000041e324        0xc
 .text.__simple_malloc
                0x000000000041e330       0xfc 0x10 /home/ashwin/pop-compiler-lkvm/x86_64/lib/libc.a(lite_malloc.o)
 .text          0x000000000041e42c        0x0 0x4 /home/ashwin/pop-compiler-lkvm/x86_64/lib/libc.a(malloc.o)
 ** fill        0x000000000041e42c        0x4
 .text.__init_malloc
                0x000000000041e430       0x11 0x10 /home/ashwin/pop-compiler-lkvm/x86_64/lib/libc.a(malloc.o)
 ** fill        0x000000000041e441        0xf
 .text.malloc   0x000000000041e450      0x5de 0x10 /home/ashwin/pop-compiler-lkvm/x86_64/lib/libc.a(malloc.o)
                0x000000000041e450                malloc
 ** fill        0x000000000041ea2e        0x2
 .text.alloc_rev
                0x000000000041ea30       0xe8 0x10 /home/ashwin/pop-compiler-lkvm/x86_64/lib/libc.a(malloc.o)
 ** fill        0x000000000041eb18        0x8
 .text.lock_bin
                0x000000000041eb20       0x96 0x10 /home/ashwin/pop-compiler-lkvm/x86_64/lib/libc.a(malloc.o)
 ** fill        0x000000000041ebb6        0xa
 .text.unbin    0x000000000041ebc0       0x52 0x10 /home/ashwin/pop-compiler-lkvm/x86_64/lib/libc.a(malloc.o)
 ** fill        0x000000000041ec12        0xe
 .text.unlock_bin
                0x000000000041ec20       0x59 0x10 /home/ashwin/pop-compiler-lkvm/x86_64/lib/libc.a(malloc.o)
 ** fill        0x000000000041ec79        0x7
 .text.__malloc0
                0x000000000041ec80       0xaf 0x10 /home/ashwin/pop-compiler-lkvm/x86_64/lib/libc.a(malloc.o)
                0x000000000041ec80                __malloc0
 ** fill        0x000000000041ed2f        0x1
 .text.realloc  0x000000000041ed30      0x49c 0x10 /home/ashwin/pop-compiler-lkvm/x86_64/lib/libc.a(malloc.o)
                0x000000000041ed30                realloc
 ** fill        0x000000000041f1cc        0x4
 .text.free     0x000000000041f1d0      0x6b2 0x10 /home/ashwin/pop-compiler-lkvm/x86_64/lib/libc.a(malloc.o)
                0x000000000041f1d0                free
 ** fill        0x000000000041f882        0x2
 .text          0x000000000041f884        0x0 0x4 /home/ashwin/pop-compiler-lkvm/x86_64/lib/libc.a(popcorn_malloc.o)
 ** fill        0x000000000041f884        0xc
 .text.__init_malloc
                0x000000000041f890       0x11 0x10 /home/ashwin/pop-compiler-lkvm/x86_64/lib/libc.a(popcorn_malloc.o)
 ** fill        0x000000000041f8a1        0xf
 .text.popcorn_malloc
                0x000000000041f8b0      0x837 0x10 /home/ashwin/pop-compiler-lkvm/x86_64/lib/libc.a(popcorn_malloc.o)
                0x000000000041f8b0                popcorn_malloc
 ** fill        0x00000000004200e7        0x9
 .text.alloc_rev
                0x00000000004200f0       0xd7 0x10 /home/ashwin/pop-compiler-lkvm/x86_64/lib/libc.a(popcorn_malloc.o)
 ** fill        0x00000000004201c7        0x9
 .text.lock_bin
                0x00000000004201d0       0xb3 0x10 /home/ashwin/pop-compiler-lkvm/x86_64/lib/libc.a(popcorn_malloc.o)
 ** fill        0x0000000000420283        0xd
 .text.unbin    0x0000000000420290       0x59 0x10 /home/ashwin/pop-compiler-lkvm/x86_64/lib/libc.a(popcorn_malloc.o)
 ** fill        0x00000000004202e9        0x7
 .text.unlock_bin
                0x00000000004202f0       0x6a 0x10 /home/ashwin/pop-compiler-lkvm/x86_64/lib/libc.a(popcorn_malloc.o)
 ** fill        0x000000000042035a        0x6
 .text.__popcorn_malloc0
                0x0000000000420360       0xaf 0x10 /home/ashwin/pop-compiler-lkvm/x86_64/lib/libc.a(popcorn_malloc.o)
                0x0000000000420360                __popcorn_malloc0
 ** fill        0x000000000042040f        0x1
 .text.popcorn_malloc_cur
                0x0000000000420410       0x16 0x10 /home/ashwin/pop-compiler-lkvm/x86_64/lib/libc.a(popcorn_malloc.o)
                0x0000000000420410                popcorn_malloc_cur
 ** fill        0x0000000000420426        0xa
 .text.popcorn_realloc
                0x0000000000420430      0x23e 0x10 /home/ashwin/pop-compiler-lkvm/x86_64/lib/libc.a(popcorn_malloc.o)
                0x0000000000420430                popcorn_realloc
 ** fill        0x000000000042066e        0x2
 .text.popcorn_free
                0x0000000000420670      0x50e 0x10 /home/ashwin/pop-compiler-lkvm/x86_64/lib/libc.a(popcorn_malloc.o)
                0x0000000000420670                popcorn_free
 ** fill        0x0000000000420b7e        0x2
 .text.alloc_fwd
                0x0000000000420b80       0xe0 0x10 /home/ashwin/pop-compiler-lkvm/x86_64/lib/libc.a(popcorn_malloc.o)
 .text.popcorn_realloc_cur
                0x0000000000420c60       0x25 0x10 /home/ashwin/pop-compiler-lkvm/x86_64/lib/libc.a(popcorn_malloc.o)
                0x0000000000420c60                popcorn_realloc_cur
 ** fill        0x0000000000420c85        0x3
 .text          0x0000000000420c88        0x0 0x4 /home/ashwin/pop-compiler-lkvm/x86_64/lib/libc.a(getrlimit.o)
 .text.getrlimit
                0x0000000000420c88       0xb0 0x1 /home/ashwin/pop-compiler-lkvm/x86_64/lib/libc.a(getrlimit.o)
                0x0000000000420c88                getrlimit
                0x0000000000420c88                getrlimit64
 .text          0x0000000000420d38        0x0 0x4 /home/ashwin/pop-compiler-lkvm/x86_64/lib/libc.a(ioctl.o)
 .text.ioctl    0x0000000000420d38       0xc3 0x1 /home/ashwin/pop-compiler-lkvm/x86_64/lib/libc.a(ioctl.o)
                0x0000000000420d38                ioctl
 ** fill        0x0000000000420dfb        0x1
 .text          0x0000000000420dfc        0x0 0x4 /home/ashwin/pop-compiler-lkvm/x86_64/lib/libc.a(mntent.o)
 .text.setmntent
                0x0000000000420dfc        0x5 0x1 /home/ashwin/pop-compiler-lkvm/x86_64/lib/libc.a(mntent.o)
                0x0000000000420dfc                setmntent
 .text.endmntent
                0x0000000000420e01       0x15 0x1 /home/ashwin/pop-compiler-lkvm/x86_64/lib/libc.a(mntent.o)
                0x0000000000420e01                endmntent
 .text.getmntent_r
                0x0000000000420e16      0x19c 0x1 /home/ashwin/pop-compiler-lkvm/x86_64/lib/libc.a(mntent.o)
                0x0000000000420e16                getmntent_r
 .text.getmntent
                0x0000000000420fb2       0x11 0x1 /home/ashwin/pop-compiler-lkvm/x86_64/lib/libc.a(mntent.o)
                0x0000000000420fb2                getmntent
 .text.addmntent
                0x0000000000420fc3       0x5b 0x1 /home/ashwin/pop-compiler-lkvm/x86_64/lib/libc.a(mntent.o)
                0x0000000000420fc3                addmntent
 .text.hasmntopt
                0x000000000042101e        0x9 0x1 /home/ashwin/pop-compiler-lkvm/x86_64/lib/libc.a(mntent.o)
                0x000000000042101e                hasmntopt
 ** fill        0x0000000000421027        0x1
 .text          0x0000000000421028        0x0 0x4 /home/ashwin/pop-compiler-lkvm/x86_64/lib/libc.a(openpty.o)
 .text.openpty  0x0000000000421028      0x119 0x1 /home/ashwin/pop-compiler-lkvm/x86_64/lib/libc.a(openpty.o)
                0x0000000000421028                openpty
 ** fill        0x0000000000421141        0x3
 .text          0x0000000000421144        0x0 0x4 /home/ashwin/pop-compiler-lkvm/x86_64/lib/libc.a(realpath.o)
 .text.realpath
                0x0000000000421144      0x106 0x1 /home/ashwin/pop-compiler-lkvm/x86_64/lib/libc.a(realpath.o)
                0x0000000000421144                realpath
 ** fill        0x000000000042124a        0x2
 .text          0x000000000042124c        0x0 0x4 /home/ashwin/pop-compiler-lkvm/x86_64/lib/libc.a(uname.o)
 .text.uname    0x000000000042124c        0xf 0x1 /home/ashwin/pop-compiler-lkvm/x86_64/lib/libc.a(uname.o)
                0x000000000042124c                uname
 ** fill        0x000000000042125b        0x1
 .text          0x000000000042125c        0x0 0x4 /home/ashwin/pop-compiler-lkvm/x86_64/lib/libc.a(madvise.o)
 .text.__madvise
                0x000000000042125c       0x12 0x1 /home/ashwin/pop-compiler-lkvm/x86_64/lib/libc.a(madvise.o)
                0x000000000042125c                __madvise
                0x000000000042125c                madvise
 ** fill        0x000000000042126e        0x2
 .text          0x0000000000421270        0x0 0x4 /home/ashwin/pop-compiler-lkvm/x86_64/lib/libc.a(mmap.o)
 .text.dummy    0x0000000000421270        0x1 0x1 /home/ashwin/pop-compiler-lkvm/x86_64/lib/libc.a(mmap.o)
 .text.__mmap   0x0000000000421271       0xb5 0x1 /home/ashwin/pop-compiler-lkvm/x86_64/lib/libc.a(mmap.o)
                0x0000000000421271                __mmap
                0x0000000000421271                mmap
                0x0000000000421271                mmap64
 ** fill        0x0000000000421326        0x2
 .text          0x0000000000421328        0x0 0x4 /home/ashwin/pop-compiler-lkvm/x86_64/lib/libc.a(mprotect.o)
 .text.__mprotect
                0x0000000000421328       0x2c 0x1 /home/ashwin/pop-compiler-lkvm/x86_64/lib/libc.a(mprotect.o)
                0x0000000000421328                __mprotect
                0x0000000000421328                mprotect
 .text          0x0000000000421354        0x0 0x4 /home/ashwin/pop-compiler-lkvm/x86_64/lib/libc.a(mremap.o)
 .text.dummy    0x0000000000421354        0x1 0x1 /home/ashwin/pop-compiler-lkvm/x86_64/lib/libc.a(mremap.o)
 .text.__mremap
                0x0000000000421355      0x117 0x1 /home/ashwin/pop-compiler-lkvm/x86_64/lib/libc.a(mremap.o)
                0x0000000000421355                __mremap
                0x0000000000421355                mremap
 .text          0x000000000042146c        0x0 0x4 /home/ashwin/pop-compiler-lkvm/x86_64/lib/libc.a(munmap.o)
 .text.dummy    0x000000000042146c        0x1 0x1 /home/ashwin/pop-compiler-lkvm/x86_64/lib/libc.a(munmap.o)
 .text.__munmap
                0x000000000042146d       0x2b 0x1 /home/ashwin/pop-compiler-lkvm/x86_64/lib/libc.a(munmap.o)
                0x000000000042146d                __munmap
                0x000000000042146d                munmap
 .text          0x0000000000421498        0x0 0x4 /home/ashwin/pop-compiler-lkvm/x86_64/lib/libc.a(shm_open.o)
 .text.__shm_mapname
                0x0000000000421498       0x94 0x1 /home/ashwin/pop-compiler-lkvm/x86_64/lib/libc.a(shm_open.o)
                0x0000000000421498                __shm_mapname
 .text.shm_open
                0x000000000042152c       0x6e 0x1 /home/ashwin/pop-compiler-lkvm/x86_64/lib/libc.a(shm_open.o)
                0x000000000042152c                shm_open
 .text.shm_unlink
                0x000000000042159a       0x2b 0x1 /home/ashwin/pop-compiler-lkvm/x86_64/lib/libc.a(shm_open.o)
                0x000000000042159a                shm_unlink
 ** fill        0x00000000004215c5        0x3
 .text          0x00000000004215c8        0x0 0x4 /home/ashwin/pop-compiler-lkvm/x86_64/lib/libc.a(accept.o)
 .text.accept   0x00000000004215c8       0x2b 0x1 /home/ashwin/pop-compiler-lkvm/x86_64/lib/libc.a(accept.o)
                0x00000000004215c8                accept
 ** fill        0x00000000004215f3        0x1
 .text          0x00000000004215f4        0x0 0x4 /home/ashwin/pop-compiler-lkvm/x86_64/lib/libc.a(bind.o)
 .text.bind     0x00000000004215f4       0x1d 0x1 /home/ashwin/pop-compiler-lkvm/x86_64/lib/libc.a(bind.o)
                0x00000000004215f4                bind
 ** fill        0x0000000000421611        0x3
 .text          0x0000000000421614        0x0 0x4 /home/ashwin/pop-compiler-lkvm/x86_64/lib/libc.a(connect.o)
 .text.connect  0x0000000000421614       0x2d 0x1 /home/ashwin/pop-compiler-lkvm/x86_64/lib/libc.a(connect.o)
                0x0000000000421614                connect
 ** fill        0x0000000000421641        0x3
 .text          0x0000000000421644        0x0 0x4 /home/ashwin/pop-compiler-lkvm/x86_64/lib/libc.a(htonl.o)
 .text.htonl    0x0000000000421644        0x5 0x1 /home/ashwin/pop-compiler-lkvm/x86_64/lib/libc.a(htonl.o)
                0x0000000000421644                htonl
 ** fill        0x0000000000421649        0x3
 .text          0x000000000042164c        0x0 0x4 /home/ashwin/pop-compiler-lkvm/x86_64/lib/libc.a(htons.o)
 .text.htons    0x000000000042164c        0x7 0x1 /home/ashwin/pop-compiler-lkvm/x86_64/lib/libc.a(htons.o)
                0x000000000042164c                htons
 ** fill        0x0000000000421653        0x1
 .text          0x0000000000421654        0x0 0x4 /home/ashwin/pop-compiler-lkvm/x86_64/lib/libc.a(inet_addr.o)
 .text.inet_addr
                0x0000000000421654       0x23 0x1 /home/ashwin/pop-compiler-lkvm/x86_64/lib/libc.a(inet_addr.o)
                0x0000000000421654                inet_addr
 ** fill        0x0000000000421677        0x1
 .text          0x0000000000421678        0x0 0x4 /home/ashwin/pop-compiler-lkvm/x86_64/lib/libc.a(inet_aton.o)
 .text.__inet_aton
                0x0000000000421678      0x125 0x1 /home/ashwin/pop-compiler-lkvm/x86_64/lib/libc.a(inet_aton.o)
                0x0000000000421678                __inet_aton
                0x0000000000421678                inet_aton
 ** fill        0x000000000042179d        0x3
 .text          0x00000000004217a0        0x0 0x4 /home/ashwin/pop-compiler-lkvm/x86_64/lib/libc.a(listen.o)
 .text.listen   0x00000000004217a0       0x20 0x1 /home/ashwin/pop-compiler-lkvm/x86_64/lib/libc.a(listen.o)
                0x00000000004217a0                listen
 .text          0x00000000004217c0        0x0 0x4 /home/ashwin/pop-compiler-lkvm/x86_64/lib/libc.a(ntohl.o)
 .text.ntohl    0x00000000004217c0        0x5 0x1 /home/ashwin/pop-compiler-lkvm/x86_64/lib/libc.a(ntohl.o)
                0x00000000004217c0                ntohl
 ** fill        0x00000000004217c5        0x3
 .text          0x00000000004217c8        0x0 0x4 /home/ashwin/pop-compiler-lkvm/x86_64/lib/libc.a(ntohs.o)
 .text.ntohs    0x00000000004217c8        0x7 0x1 /home/ashwin/pop-compiler-lkvm/x86_64/lib/libc.a(ntohs.o)
                0x00000000004217c8                ntohs
 ** fill        0x00000000004217cf        0x1
 .text          0x00000000004217d0        0x0 0x4 /home/ashwin/pop-compiler-lkvm/x86_64/lib/libc.a(recvfrom.o)
 .text.recvfrom
                0x00000000004217d0       0x2d 0x1 /home/ashwin/pop-compiler-lkvm/x86_64/lib/libc.a(recvfrom.o)
                0x00000000004217d0                recvfrom
 ** fill        0x00000000004217fd        0x3
 .text          0x0000000000421800        0x0 0x4 /home/ashwin/pop-compiler-lkvm/x86_64/lib/libc.a(sendto.o)
 .text.sendto   0x0000000000421800       0x30 0x1 /home/ashwin/pop-compiler-lkvm/x86_64/lib/libc.a(sendto.o)
                0x0000000000421800                sendto
 .text          0x0000000000421830        0x0 0x4 /home/ashwin/pop-compiler-lkvm/x86_64/lib/libc.a(shutdown.o)
 .text.shutdown
                0x0000000000421830       0x20 0x1 /home/ashwin/pop-compiler-lkvm/x86_64/lib/libc.a(shutdown.o)
                0x0000000000421830                shutdown
 .text          0x0000000000421850        0x0 0x4 /home/ashwin/pop-compiler-lkvm/x86_64/lib/libc.a(socket.o)
 .text.socket   0x0000000000421850       0xcd 0x1 /home/ashwin/pop-compiler-lkvm/x86_64/lib/libc.a(socket.o)
                0x0000000000421850                socket
 ** fill        0x000000000042191d        0x3
 .text          0x0000000000421920        0x0 0x4 /home/ashwin/pop-compiler-lkvm/x86_64/lib/libc.a(execl.o)
 .text.execl    0x0000000000421920      0x149 0x1 /home/ashwin/pop-compiler-lkvm/x86_64/lib/libc.a(execl.o)
                0x0000000000421920                execl
 ** fill        0x0000000000421a69        0x3
 .text          0x0000000000421a6c        0x0 0x4 /home/ashwin/pop-compiler-lkvm/x86_64/lib/libc.a(execv.o)
 .text.execv    0x0000000000421a6c        0xc 0x1 /home/ashwin/pop-compiler-lkvm/x86_64/lib/libc.a(execv.o)
                0x0000000000421a6c                execv
 .text          0x0000000000421a78        0x0 0x4 /home/ashwin/pop-compiler-lkvm/x86_64/lib/libc.a(execve.o)
 .text.execve   0x0000000000421a78        0xf 0x1 /home/ashwin/pop-compiler-lkvm/x86_64/lib/libc.a(execve.o)
                0x0000000000421a78                execve
 ** fill        0x0000000000421a87        0x1
 .text          0x0000000000421a88        0x0 0x4 /home/ashwin/pop-compiler-lkvm/x86_64/lib/libc.a(fork.o)
 .text.dummy    0x0000000000421a88        0x1 0x1 /home/ashwin/pop-compiler-lkvm/x86_64/lib/libc.a(fork.o)
                0x0000000000421a88                __fork_handler
 .text.fork     0x0000000000421a89       0x8b 0x1 /home/ashwin/pop-compiler-lkvm/x86_64/lib/libc.a(fork.o)
                0x0000000000421a89                fork
 .text          0x0000000000421b14        0x0 0x4 /home/ashwin/pop-compiler-lkvm/x86_64/lib/libc.a(waitpid.o)
 .text.waitpid  0x0000000000421b14       0x2e 0x1 /home/ashwin/pop-compiler-lkvm/x86_64/lib/libc.a(waitpid.o)
                0x0000000000421b14                waitpid
 ** fill        0x0000000000421b42        0x2
 .text          0x0000000000421b44        0x0 0x4 /home/ashwin/pop-compiler-lkvm/x86_64/lib/libc.a(poll.o)
 .text.poll     0x0000000000421b44       0x2e 0x1 /home/ashwin/pop-compiler-lkvm/x86_64/lib/libc.a(poll.o)
                0x0000000000421b44                poll
 ** fill        0x0000000000421b72        0x2
 .text          0x0000000000421b74        0x0 0x4 /home/ashwin/pop-compiler-lkvm/x86_64/lib/libc.a(select.o)
 .text.select   0x0000000000421b74       0x2b 0x1 /home/ashwin/pop-compiler-lkvm/x86_64/lib/libc.a(select.o)
                0x0000000000421b74                select
 ** fill        0x0000000000421b9f        0x1
 .text          0x0000000000421ba0        0x0 0x4 /home/ashwin/pop-compiler-lkvm/x86_64/lib/libc.a(block.o)
 .text.__block_all_sigs
                0x0000000000421ba0       0x18 0x1 /home/ashwin/pop-compiler-lkvm/x86_64/lib/libc.a(block.o)
                0x0000000000421ba0                __block_all_sigs
 .text.__block_app_sigs
                0x0000000000421bb8       0x18 0x1 /home/ashwin/pop-compiler-lkvm/x86_64/lib/libc.a(block.o)
                0x0000000000421bb8                __block_app_sigs
 .text.__restore_sigs
                0x0000000000421bd0       0x18 0x1 /home/ashwin/pop-compiler-lkvm/x86_64/lib/libc.a(block.o)
                0x0000000000421bd0                __restore_sigs
 .text          0x0000000000421be8        0x0 0x4 /home/ashwin/pop-compiler-lkvm/x86_64/lib/libc.a(raise.o)
 .text.raise    0x0000000000421be8       0x4d 0x1 /home/ashwin/pop-compiler-lkvm/x86_64/lib/libc.a(raise.o)
                0x0000000000421be8                raise
 ** fill        0x0000000000421c35        0x3
 .text          0x0000000000421c38        0x0 0x4 /home/ashwin/pop-compiler-lkvm/x86_64/lib/libc.a(sigaddset.o)
 .text.sigaddset
                0x0000000000421c38       0x36 0x1 /home/ashwin/pop-compiler-lkvm/x86_64/lib/libc.a(sigaddset.o)
                0x0000000000421c38                sigaddset
 ** fill        0x0000000000421c6e        0x2
 .text          0x0000000000421c70        0x0 0x4 /home/ashwin/pop-compiler-lkvm/x86_64/lib/libc.a(sigemptyset.o)
 .text.sigemptyset
                0x0000000000421c70        0xa 0x1 /home/ashwin/pop-compiler-lkvm/x86_64/lib/libc.a(sigemptyset.o)
                0x0000000000421c70                sigemptyset
 ** fill        0x0000000000421c7a        0x2
 .text          0x0000000000421c7c        0x0 0x4 /home/ashwin/pop-compiler-lkvm/x86_64/lib/libc.a(signal.o)
 .text.signal   0x0000000000421c7c       0x67 0x1 /home/ashwin/pop-compiler-lkvm/x86_64/lib/libc.a(signal.o)
                0x0000000000421c7c                __sysv_signal
                0x0000000000421c7c                bsd_signal
                0x0000000000421c7c                signal
 ** fill        0x0000000000421ce3        0x1
 .text          0x0000000000421ce4        0x0 0x4 /home/ashwin/pop-compiler-lkvm/x86_64/lib/libc.a(sigrtmin.o)
 .text.__libc_current_sigrtmin
                0x0000000000421ce4        0x6 0x1 /home/ashwin/pop-compiler-lkvm/x86_64/lib/libc.a(sigrtmin.o)
                0x0000000000421ce4                __libc_current_sigrtmin
 ** fill        0x0000000000421cea        0x2
 .text          0x0000000000421cec        0x0 0x4 /home/ashwin/pop-compiler-lkvm/x86_64/lib/libc.a(chmod.o)
 .text.chmod    0x0000000000421cec       0x11 0x1 /home/ashwin/pop-compiler-lkvm/x86_64/lib/libc.a(chmod.o)
                0x0000000000421cec                chmod
 ** fill        0x0000000000421cfd        0x3
 .text          0x0000000000421d00        0x0 0x4 /home/ashwin/pop-compiler-lkvm/x86_64/lib/libc.a(fstat.o)
 .text.copy_stat
                0x0000000000421d00       0x49 0x1 /home/ashwin/pop-compiler-lkvm/x86_64/lib/libc.a(fstat.o)
                0x0000000000421d00                copy_stat
 .text.fstat    0x0000000000421d49      0x218 0x1 /home/ashwin/pop-compiler-lkvm/x86_64/lib/libc.a(fstat.o)
                0x0000000000421d49                fstat
                0x0000000000421d49                fstat64
 ** fill        0x0000000000421f61        0x3
 .text          0x0000000000421f64        0x0 0x4 /home/ashwin/pop-compiler-lkvm/x86_64/lib/libc.a(lstat.o)
 .text.lstat    0x0000000000421f64       0x41 0x1 /home/ashwin/pop-compiler-lkvm/x86_64/lib/libc.a(lstat.o)
                0x0000000000421f64                lstat
                0x0000000000421f64                lstat64
 ** fill        0x0000000000421fa5        0x3
 .text          0x0000000000421fa8        0x0 0x4 /home/ashwin/pop-compiler-lkvm/x86_64/lib/libc.a(mkdir.o)
 .text.mkdir    0x0000000000421fa8       0x11 0x1 /home/ashwin/pop-compiler-lkvm/x86_64/lib/libc.a(mkdir.o)
                0x0000000000421fa8                mkdir
 ** fill        0x0000000000421fb9        0x3
 .text          0x0000000000421fbc        0x0 0x4 /home/ashwin/pop-compiler-lkvm/x86_64/lib/libc.a(mknod.o)
 .text.mknod    0x0000000000421fbc       0x11 0x1 /home/ashwin/pop-compiler-lkvm/x86_64/lib/libc.a(mknod.o)
                0x0000000000421fbc                mknod
 ** fill        0x0000000000421fcd        0x3
 .text          0x0000000000421fd0        0x0 0x4 /home/ashwin/pop-compiler-lkvm/x86_64/lib/libc.a(stat.o)
 .text.stat     0x0000000000421fd0       0x3a 0x1 /home/ashwin/pop-compiler-lkvm/x86_64/lib/libc.a(stat.o)
                0x0000000000421fd0                stat
                0x0000000000421fd0                stat64
 ** fill        0x000000000042200a        0x2
 .text          0x000000000042200c        0x0 0x4 /home/ashwin/pop-compiler-lkvm/x86_64/lib/libc.a(statvfs.o)
 .text.__statfs
                0x000000000042200c       0x51 0x1 /home/ashwin/pop-compiler-lkvm/x86_64/lib/libc.a(statvfs.o)
                0x000000000042200c                __statfs
                0x000000000042200c                statfs
                0x000000000042200c                statfs64
 .text.__fstatfs
                0x000000000042205d       0x50 0x1 /home/ashwin/pop-compiler-lkvm/x86_64/lib/libc.a(statvfs.o)
                0x000000000042205d                __fstatfs
                0x000000000042205d                fstatfs
                0x000000000042205d                fstatfs64
 .text.statvfs  0x00000000004220ad      0x109 0x1 /home/ashwin/pop-compiler-lkvm/x86_64/lib/libc.a(statvfs.o)
                0x00000000004220ad                statvfs
                0x00000000004220ad                statvfs64
 .text.fstatvfs
                0x00000000004221b6      0x108 0x1 /home/ashwin/pop-compiler-lkvm/x86_64/lib/libc.a(statvfs.o)
                0x00000000004221b6                fstatvfs
                0x00000000004221b6                fstatvfs64
 ** fill        0x00000000004222be        0x2
 .text          0x00000000004222c0        0x0 0x4 /home/ashwin/pop-compiler-lkvm/x86_64/lib/libc.a(utimensat.o)
 .text.utimensat
                0x00000000004222c0       0xdb 0x1 /home/ashwin/pop-compiler-lkvm/x86_64/lib/libc.a(utimensat.o)
                0x00000000004222c0                utimensat
 ** fill        0x000000000042239b        0x1
 .text          0x000000000042239c        0x0 0x4 /home/ashwin/pop-compiler-lkvm/x86_64/lib/libc.a(dprintf.o)
 .text.dprintf  0x000000000042239c       0x81 0x1 /home/ashwin/pop-compiler-lkvm/x86_64/lib/libc.a(dprintf.o)
                0x000000000042239c                dprintf
 ** fill        0x000000000042241d        0x3
 .text          0x0000000000422420        0x0 0x4 /home/ashwin/pop-compiler-lkvm/x86_64/lib/libc.a(fclose.o)
 .text.dummy    0x0000000000422420        0x1 0x1 /home/ashwin/pop-compiler-lkvm/x86_64/lib/libc.a(fclose.o)
                0x0000000000422420                __unlist_locked_file
 .text.fclose   0x0000000000422421       0xb3 0x1 /home/ashwin/pop-compiler-lkvm/x86_64/lib/libc.a(fclose.o)
                0x0000000000422421                fclose
 .text          0x00000000004224d4        0x0 0x4 /home/ashwin/pop-compiler-lkvm/x86_64/lib/libc.a(feof.o)
 .text.feof     0x00000000004224d4       0x42 0x1 /home/ashwin/pop-compiler-lkvm/x86_64/lib/libc.a(feof.o)
                0x00000000004224d4                _IO_feof_unlocked
                0x00000000004224d4                feof
                0x00000000004224d4                feof_unlocked
 ** fill        0x0000000000422516        0x2
 .text          0x0000000000422518        0x0 0x4 /home/ashwin/pop-compiler-lkvm/x86_64/lib/libc.a(ferror.o)
 .text.ferror   0x0000000000422518       0x42 0x1 /home/ashwin/pop-compiler-lkvm/x86_64/lib/libc.a(ferror.o)
                0x0000000000422518                _IO_ferror_unlocked
                0x0000000000422518                ferror
                0x0000000000422518                ferror_unlocked
 ** fill        0x000000000042255a        0x2
 .text          0x000000000042255c        0x0 0x4 /home/ashwin/pop-compiler-lkvm/x86_64/lib/libc.a(fflush.o)
 .text.fflush   0x000000000042255c      0x124 0x1 /home/ashwin/pop-compiler-lkvm/x86_64/lib/libc.a(fflush.o)
                0x000000000042255c                fflush
                0x000000000042255c                fflush_unlocked
 .text          0x0000000000422680        0x0 0x4 /home/ashwin/pop-compiler-lkvm/x86_64/lib/libc.a(fgets.o)
 .text.fgets    0x0000000000422680      0x16a 0x1 /home/ashwin/pop-compiler-lkvm/x86_64/lib/libc.a(fgets.o)
                0x0000000000422680                fgets
                0x0000000000422680                fgets_unlocked
 ** fill        0x00000000004227ea        0x2
 .text          0x00000000004227ec        0x0 0x4 /home/ashwin/pop-compiler-lkvm/x86_64/lib/libc.a(fopen.o)
 .text.fopen    0x00000000004227ec       0x90 0x1 /home/ashwin/pop-compiler-lkvm/x86_64/lib/libc.a(fopen.o)
                0x00000000004227ec                fopen
                0x00000000004227ec                fopen64
 .text          0x000000000042287c        0x0 0x4 /home/ashwin/pop-compiler-lkvm/x86_64/lib/libc.a(fprintf.o)
 .text.fprintf  0x000000000042287c       0x81 0x1 /home/ashwin/pop-compiler-lkvm/x86_64/lib/libc.a(fprintf.o)
                0x000000000042287c                fprintf
 ** fill        0x00000000004228fd        0x3
 .text          0x0000000000422900        0x0 0x4 /home/ashwin/pop-compiler-lkvm/x86_64/lib/libc.a(fputc.o)
 .text.fputc    0x0000000000422900       0x9c 0x1 /home/ashwin/pop-compiler-lkvm/x86_64/lib/libc.a(fputc.o)
                0x0000000000422900                fputc
 .text          0x000000000042299c        0x0 0x4 /home/ashwin/pop-compiler-lkvm/x86_64/lib/libc.a(fscanf.o)
 .text.fscanf   0x000000000042299c       0x81 0x1 /home/ashwin/pop-compiler-lkvm/x86_64/lib/libc.a(fscanf.o)
                0x000000000042299c                __isoc99_fscanf
                0x000000000042299c                fscanf
 ** fill        0x0000000000422a1d        0x3
 .text          0x0000000000422a20        0x0 0x4 /home/ashwin/pop-compiler-lkvm/x86_64/lib/libc.a(fseek.o)
 .text.__fseeko_unlocked
                0x0000000000422a20       0x7c 0x1 /home/ashwin/pop-compiler-lkvm/x86_64/lib/libc.a(fseek.o)
                0x0000000000422a20                __fseeko_unlocked
 .text.__fseeko
                0x0000000000422a9c       0x60 0x1 /home/ashwin/pop-compiler-lkvm/x86_64/lib/libc.a(fseek.o)
                0x0000000000422a9c                __fseeko
                0x0000000000422a9c                fseeko
                0x0000000000422a9c                fseeko64
 .text.fseek    0x0000000000422afc        0x5 0x1 /home/ashwin/pop-compiler-lkvm/x86_64/lib/libc.a(fseek.o)
                0x0000000000422afc                fseek
 ** fill        0x0000000000422b01        0x3
 .text          0x0000000000422b04        0x0 0x4 /home/ashwin/pop-compiler-lkvm/x86_64/lib/libc.a(fwrite.o)
 .text.__fwritex
                0x0000000000422b04       0xbb 0x1 /home/ashwin/pop-compiler-lkvm/x86_64/lib/libc.a(fwrite.o)
                0x0000000000422b04                __fwritex
 .text.fwrite   0x0000000000422bbf       0x8a 0x1 /home/ashwin/pop-compiler-lkvm/x86_64/lib/libc.a(fwrite.o)
                0x0000000000422bbf                fwrite
                0x0000000000422bbf                fwrite_unlocked
 ** fill        0x0000000000422c49        0x3
 .text          0x0000000000422c4c        0x0 0x4 /home/ashwin/pop-compiler-lkvm/x86_64/lib/libc.a(getline.o)
 .text.getline  0x0000000000422c4c        0xd 0x1 /home/ashwin/pop-compiler-lkvm/x86_64/lib/libc.a(getline.o)
                0x0000000000422c4c                getline
 ** fill        0x0000000000422c59        0x3
 .text          0x0000000000422c5c        0x0 0x4 /home/ashwin/pop-compiler-lkvm/x86_64/lib/libc.a(ofl.o)
 .text.__ofl_lock
                0x0000000000422c5c       0x12 0x1 /home/ashwin/pop-compiler-lkvm/x86_64/lib/libc.a(ofl.o)
                0x0000000000422c5c                __ofl_lock
 .text.__ofl_unlock
                0x0000000000422c6e        0xa 0x1 /home/ashwin/pop-compiler-lkvm/x86_64/lib/libc.a(ofl.o)
                0x0000000000422c6e                __ofl_unlock
 .text          0x0000000000422c78        0x0 0x4 /home/ashwin/pop-compiler-lkvm/x86_64/lib/libc.a(perror.o)
 .text.perror   0x0000000000422c78       0xb9 0x1 /home/ashwin/pop-compiler-lkvm/x86_64/lib/libc.a(perror.o)
                0x0000000000422c78                perror
 ** fill        0x0000000000422d31        0x3
 .text          0x0000000000422d34        0x0 0x4 /home/ashwin/pop-compiler-lkvm/x86_64/lib/libc.a(printf.o)
 .text.printf   0x0000000000422d34       0x92 0x1 /home/ashwin/pop-compiler-lkvm/x86_64/lib/libc.a(printf.o)
                0x0000000000422d34                printf
 ** fill        0x0000000000422dc6        0x2
 .text          0x0000000000422dc8        0x0 0x4 /home/ashwin/pop-compiler-lkvm/x86_64/lib/libc.a(putchar.o)
 .text.putchar  0x0000000000422dc8        0xc 0x1 /home/ashwin/pop-compiler-lkvm/x86_64/lib/libc.a(putchar.o)
                0x0000000000422dc8                putchar
 .text          0x0000000000422dd4        0x0 0x4 /home/ashwin/pop-compiler-lkvm/x86_64/lib/libc.a(puts.o)
 .text.puts     0x0000000000422dd4       0x88 0x1 /home/ashwin/pop-compiler-lkvm/x86_64/lib/libc.a(puts.o)
                0x0000000000422dd4                puts
 .text          0x0000000000422e5c        0x0 0x4 /home/ashwin/pop-compiler-lkvm/x86_64/lib/libc.a(remove.o)
 .text.remove   0x0000000000422e5c       0x1b 0x1 /home/ashwin/pop-compiler-lkvm/x86_64/lib/libc.a(remove.o)
                0x0000000000422e5c                remove
 ** fill        0x0000000000422e77        0x1
 .text          0x0000000000422e78        0x0 0x4 /home/ashwin/pop-compiler-lkvm/x86_64/lib/libc.a(rename.o)
 .text.rename   0x0000000000422e78        0xf 0x1 /home/ashwin/pop-compiler-lkvm/x86_64/lib/libc.a(rename.o)
                0x0000000000422e78                rename
 ** fill        0x0000000000422e87        0x1
 .text          0x0000000000422e88        0x0 0x4 /home/ashwin/pop-compiler-lkvm/x86_64/lib/libc.a(snprintf.o)
 .text.snprintf
                0x0000000000422e88       0x7d 0x1 /home/ashwin/pop-compiler-lkvm/x86_64/lib/libc.a(snprintf.o)
                0x0000000000422e88                snprintf
 ** fill        0x0000000000422f05        0x3
 .text          0x0000000000422f08        0x0 0x4 /home/ashwin/pop-compiler-lkvm/x86_64/lib/libc.a(sprintf.o)
 .text.sprintf  0x0000000000422f08       0x81 0x1 /home/ashwin/pop-compiler-lkvm/x86_64/lib/libc.a(sprintf.o)
                0x0000000000422f08                sprintf
 ** fill        0x0000000000422f89        0x3
 .text          0x0000000000422f8c        0x0 0x4 /home/ashwin/pop-compiler-lkvm/x86_64/lib/libc.a(sscanf.o)
 .text.sscanf   0x0000000000422f8c       0x81 0x1 /home/ashwin/pop-compiler-lkvm/x86_64/lib/libc.a(sscanf.o)
                0x0000000000422f8c                __isoc99_sscanf
                0x0000000000422f8c                sscanf
 ** fill        0x000000000042300d        0x3
 .text          0x0000000000423010        0x0 0x4 /home/ashwin/pop-compiler-lkvm/x86_64/lib/libc.a(stderr.o)
 .text          0x0000000000423010        0x0 0x4 /home/ashwin/pop-compiler-lkvm/x86_64/lib/libc.a(stdout.o)
 .text          0x0000000000423010        0x0 0x4 /home/ashwin/pop-compiler-lkvm/x86_64/lib/libc.a(vdprintf.o)
 .text.vdprintf
                0x0000000000423010       0x6d 0x1 /home/ashwin/pop-compiler-lkvm/x86_64/lib/libc.a(vdprintf.o)
                0x0000000000423010                vdprintf
 .text.wrap_write
                0x000000000042307d        0x5 0x1 /home/ashwin/pop-compiler-lkvm/x86_64/lib/libc.a(vdprintf.o)
 ** fill        0x0000000000423082        0x2
 .text          0x0000000000423084        0x0 0x4 /home/ashwin/pop-compiler-lkvm/x86_64/lib/libc.a(vfprintf.o)
 .text.vfprintf
                0x0000000000423084      0x1ab 0x1 /home/ashwin/pop-compiler-lkvm/x86_64/lib/libc.a(vfprintf.o)
                0x0000000000423084                vfprintf
 .text.printf_core
                0x000000000042322f     0x1bc3 0x1 /home/ashwin/pop-compiler-lkvm/x86_64/lib/libc.a(vfprintf.o)
 .text.pop_arg  0x0000000000424df2      0x1cc 0x1 /home/ashwin/pop-compiler-lkvm/x86_64/lib/libc.a(vfprintf.o)
 .text.pad      0x0000000000424fbe       0xbc 0x1 /home/ashwin/pop-compiler-lkvm/x86_64/lib/libc.a(vfprintf.o)
 ** fill        0x000000000042507a        0x2
 .text          0x000000000042507c        0x0 0x4 /home/ashwin/pop-compiler-lkvm/x86_64/lib/libc.a(vfscanf.o)
 .text.vfscanf  0x000000000042507c      0xbad 0x1 /home/ashwin/pop-compiler-lkvm/x86_64/lib/libc.a(vfscanf.o)
                0x000000000042507c                __isoc99_vfscanf
                0x000000000042507c                vfscanf
 ** fill        0x0000000000425c29        0x3
 .text          0x0000000000425c2c        0x0 0x4 /home/ashwin/pop-compiler-lkvm/x86_64/lib/libc.a(vsnprintf.o)
 .text.vsnprintf
                0x0000000000425c2c       0xc1 0x1 /home/ashwin/pop-compiler-lkvm/x86_64/lib/libc.a(vsnprintf.o)
                0x0000000000425c2c                vsnprintf
 .text.sn_write
                0x0000000000425ced       0xb7 0x1 /home/ashwin/pop-compiler-lkvm/x86_64/lib/libc.a(vsnprintf.o)
 .text          0x0000000000425da4        0x0 0x4 /home/ashwin/pop-compiler-lkvm/x86_64/lib/libc.a(vsprintf.o)
 .text.vsprintf
                0x0000000000425da4       0x10 0x1 /home/ashwin/pop-compiler-lkvm/x86_64/lib/libc.a(vsprintf.o)
                0x0000000000425da4                vsprintf
 .text          0x0000000000425db4        0x0 0x4 /home/ashwin/pop-compiler-lkvm/x86_64/lib/libc.a(vsscanf.o)
 .text.vsscanf  0x0000000000425db4       0x63 0x1 /home/ashwin/pop-compiler-lkvm/x86_64/lib/libc.a(vsscanf.o)
                0x0000000000425db4                __isoc99_vsscanf
                0x0000000000425db4                vsscanf
 .text.do_read  0x0000000000425e17        0x5 0x1 /home/ashwin/pop-compiler-lkvm/x86_64/lib/libc.a(vsscanf.o)
 .text          0x0000000000425e1c        0x0 0x4 /home/ashwin/pop-compiler-lkvm/x86_64/lib/libc.a(atoi.o)
 .text.atoi     0x0000000000425e1c       0x5a 0x1 /home/ashwin/pop-compiler-lkvm/x86_64/lib/libc.a(atoi.o)
                0x0000000000425e1c                atoi
 ** fill        0x0000000000425e76        0x2
 .text          0x0000000000425e78        0x0 0x4 /home/ashwin/pop-compiler-lkvm/x86_64/lib/libc.a(strtol.o)
 .text.strtoull
                0x0000000000425e78        0xc 0x1 /home/ashwin/pop-compiler-lkvm/x86_64/lib/libc.a(strtol.o)
                0x0000000000425e78                __strtoull_internal
                0x0000000000425e78                strtoull
 .text.strtox   0x0000000000425e84       0xa3 0x1 /home/ashwin/pop-compiler-lkvm/x86_64/lib/libc.a(strtol.o)
 .text.strtoll  0x0000000000425f27        0xf 0x1 /home/ashwin/pop-compiler-lkvm/x86_64/lib/libc.a(strtol.o)
                0x0000000000425f27                __strtoll_internal
                0x0000000000425f27                strtoll
 .text.strtoul  0x0000000000425f36        0xc 0x1 /home/ashwin/pop-compiler-lkvm/x86_64/lib/libc.a(strtol.o)
                0x0000000000425f36                __strtoul_internal
                0x0000000000425f36                strtoul
 .text.strtol   0x0000000000425f42        0xf 0x1 /home/ashwin/pop-compiler-lkvm/x86_64/lib/libc.a(strtol.o)
                0x0000000000425f42                __strtol_internal
                0x0000000000425f42                strtol
 .text.strtoimax
                0x0000000000425f51        0xf 0x1 /home/ashwin/pop-compiler-lkvm/x86_64/lib/libc.a(strtol.o)
                0x0000000000425f51                __strtoimax_internal
                0x0000000000425f51                strtoimax
 .text.strtoumax
                0x0000000000425f60        0xc 0x1 /home/ashwin/pop-compiler-lkvm/x86_64/lib/libc.a(strtol.o)
                0x0000000000425f60                __strtoumax_internal
                0x0000000000425f60                strtoumax
 .text          0x0000000000425f6c        0x0 0x4 /home/ashwin/pop-compiler-lkvm/x86_64/lib/libc.a(memchr.o)
 ** fill        0x0000000000425f6c        0x4
 .text.memchr   0x0000000000425f70       0xb2 0x10 /home/ashwin/pop-compiler-lkvm/x86_64/lib/libc.a(memchr.o)
                0x0000000000425f70                memchr
 ** fill        0x0000000000426022        0x2
 .text          0x0000000000426024        0x0 0x4 /home/ashwin/pop-compiler-lkvm/x86_64/lib/libc.a(strcasestr.o)
 ** fill        0x0000000000426024        0xc
 .text.strcasestr
                0x0000000000426030       0x47 0x10 /home/ashwin/pop-compiler-lkvm/x86_64/lib/libc.a(strcasestr.o)
                0x0000000000426030                strcasestr
 ** fill        0x0000000000426077        0x1
 .text          0x0000000000426078        0x0 0x4 /home/ashwin/pop-compiler-lkvm/x86_64/lib/libc.a(strchr.o)
 ** fill        0x0000000000426078        0x8
 .text.strchr   0x0000000000426080       0x12 0x10 /home/ashwin/pop-compiler-lkvm/x86_64/lib/libc.a(strchr.o)
                0x0000000000426080                strchr
 ** fill        0x0000000000426092        0x2
 .text          0x0000000000426094        0x0 0x4 /home/ashwin/pop-compiler-lkvm/x86_64/lib/libc.a(strchrnul.o)
 ** fill        0x0000000000426094        0xc
 .text.__strchrnul
                0x00000000004260a0       0xf8 0x10 /home/ashwin/pop-compiler-lkvm/x86_64/lib/libc.a(strchrnul.o)
                0x00000000004260a0                __strchrnul
                0x00000000004260a0                strchrnul
 .text          0x0000000000426198        0x0 0x4 /home/ashwin/pop-compiler-lkvm/x86_64/lib/libc.a(strcmp.o)
 ** fill        0x0000000000426198        0x8
 .text.strcmp   0x00000000004261a0       0x35 0x10 /home/ashwin/pop-compiler-lkvm/x86_64/lib/libc.a(strcmp.o)
                0x00000000004261a0                strcmp
 ** fill        0x00000000004261d5        0x3
 .text          0x00000000004261d8        0x0 0x4 /home/ashwin/pop-compiler-lkvm/x86_64/lib/libc.a(strcpy.o)
 ** fill        0x00000000004261d8        0x8
 .text.strcpy   0x00000000004261e0        0xe 0x10 /home/ashwin/pop-compiler-lkvm/x86_64/lib/libc.a(strcpy.o)
                0x00000000004261e0                strcpy
 ** fill        0x00000000004261ee        0x2
 .text          0x00000000004261f0        0x0 0x4 /home/ashwin/pop-compiler-lkvm/x86_64/lib/libc.a(strdup.o)
 .text.__strdup
                0x00000000004261f0       0x40 0x10 /home/ashwin/pop-compiler-lkvm/x86_64/lib/libc.a(strdup.o)
                0x00000000004261f0                __strdup
                0x00000000004261f0                strdup
 .text          0x0000000000426230        0x0 0x4 /home/ashwin/pop-compiler-lkvm/x86_64/lib/libc.a(strlen.o)
 .text.strlen   0x0000000000426230       0x7e 0x10 /home/ashwin/pop-compiler-lkvm/x86_64/lib/libc.a(strlen.o)
                0x0000000000426230                strlen
 ** fill        0x00000000004262ae        0x2
 .text          0x00000000004262b0        0x0 0x4 /home/ashwin/pop-compiler-lkvm/x86_64/lib/libc.a(strncasecmp.o)
 .text.strncasecmp
                0x00000000004262b0       0x95 0x10 /home/ashwin/pop-compiler-lkvm/x86_64/lib/libc.a(strncasecmp.o)
                0x00000000004262b0                strncasecmp
 ** fill        0x0000000000426345        0xb
 .text.__strncasecmp_l
                0x0000000000426350       0x95 0x10 /home/ashwin/pop-compiler-lkvm/x86_64/lib/libc.a(strncasecmp.o)
                0x0000000000426350                __strncasecmp_l
                0x0000000000426350                strncasecmp_l
 ** fill        0x00000000004263e5        0x3
 .text          0x00000000004263e8        0x0 0x4 /home/ashwin/pop-compiler-lkvm/x86_64/lib/libc.a(strncmp.o)
 ** fill        0x00000000004263e8        0x8
 .text.strncmp  0x00000000004263f0       0x3f 0x10 /home/ashwin/pop-compiler-lkvm/x86_64/lib/libc.a(strncmp.o)
                0x00000000004263f0                strncmp
 ** fill        0x000000000042642f        0x1
 .text          0x0000000000426430        0x0 0x4 /home/ashwin/pop-compiler-lkvm/x86_64/lib/libc.a(strncpy.o)
 .text.strncpy  0x0000000000426430        0xe 0x10 /home/ashwin/pop-compiler-lkvm/x86_64/lib/libc.a(strncpy.o)
                0x0000000000426430                strncpy
 ** fill        0x000000000042643e        0x2
 .text          0x0000000000426440        0x0 0x4 /home/ashwin/pop-compiler-lkvm/x86_64/lib/libc.a(strndup.o)
 .text.strndup  0x0000000000426440       0x3d 0x10 /home/ashwin/pop-compiler-lkvm/x86_64/lib/libc.a(strndup.o)
                0x0000000000426440                strndup
 ** fill        0x000000000042647d        0x3
 .text          0x0000000000426480        0x0 0x4 /home/ashwin/pop-compiler-lkvm/x86_64/lib/libc.a(strnlen.o)
 .text.strnlen  0x0000000000426480       0x2c 0x10 /home/ashwin/pop-compiler-lkvm/x86_64/lib/libc.a(strnlen.o)
                0x0000000000426480                strnlen
 .text          0x00000000004264ac        0x0 0x4 /home/ashwin/pop-compiler-lkvm/x86_64/lib/libc.a(strspn.o)
 ** fill        0x00000000004264ac        0x4
 .text.strspn   0x00000000004264b0       0x8f 0x10 /home/ashwin/pop-compiler-lkvm/x86_64/lib/libc.a(strspn.o)
                0x00000000004264b0                strspn
 ** fill        0x000000000042653f        0x1
 .text          0x0000000000426540        0x0 0x4 /home/ashwin/pop-compiler-lkvm/x86_64/lib/libc.a(strstr.o)
 .text.strstr   0x0000000000426540      0x60c 0x10 /home/ashwin/pop-compiler-lkvm/x86_64/lib/libc.a(strstr.o)
                0x0000000000426540                strstr
 .text          0x0000000000426b4c        0x0 0x4 /home/ashwin/pop-compiler-lkvm/x86_64/lib/libc.a(strtok.o)
 ** fill        0x0000000000426b4c        0x4
 .text.strtok   0x0000000000426b50       0x80 0x10 /home/ashwin/pop-compiler-lkvm/x86_64/lib/libc.a(strtok.o)
                0x0000000000426b50                strtok
 .text          0x0000000000426bd0        0x0 0x4 /home/ashwin/pop-compiler-lkvm/x86_64/lib/libc.a(memcpy.o)
 .text.memcpy   0x0000000000426bd0       0x32 0x1 /home/ashwin/pop-compiler-lkvm/x86_64/lib/libc.a(memcpy.o)
                0x0000000000426bd0                __memcpy_fwd
                0x0000000000426bd0                memcpy
 ** fill        0x0000000000426c02        0x2
 .text          0x0000000000426c04        0x0 0x4 /home/ashwin/pop-compiler-lkvm/x86_64/lib/libc.a(memmove.o)
 .text.memmove  0x0000000000426c04       0x25 0x1 /home/ashwin/pop-compiler-lkvm/x86_64/lib/libc.a(memmove.o)
                0x0000000000426c04                memmove
 ** fill        0x0000000000426c29        0x3
 .text          0x0000000000426c2c        0x0 0x4 /home/ashwin/pop-compiler-lkvm/x86_64/lib/libc.a(memset.o)
 .text.memset   0x0000000000426c2c       0xc4 0x1 /home/ashwin/pop-compiler-lkvm/x86_64/lib/libc.a(memset.o)
                0x0000000000426c2c                memset
 .text          0x0000000000426cf0        0x0 0x4 /home/ashwin/pop-compiler-lkvm/x86_64/lib/libc.a(mkstemp.o)
 .text.mkstemp  0x0000000000426cf0        0x9 0x1 /home/ashwin/pop-compiler-lkvm/x86_64/lib/libc.a(mkstemp.o)
                0x0000000000426cf0                mkstemp
                0x0000000000426cf0                mkstemp64
 ** fill        0x0000000000426cf9        0x3
 .text          0x0000000000426cfc        0x0 0x4 /home/ashwin/pop-compiler-lkvm/x86_64/lib/libc.a(tcgetattr.o)
 .text.tcgetattr
                0x0000000000426cfc       0x16 0x1 /home/ashwin/pop-compiler-lkvm/x86_64/lib/libc.a(tcgetattr.o)
                0x0000000000426cfc                tcgetattr
 ** fill        0x0000000000426d12        0x2
 .text          0x0000000000426d14        0x0 0x4 /home/ashwin/pop-compiler-lkvm/x86_64/lib/libc.a(tcsetattr.o)
 .text.tcsetattr
                0x0000000000426d14       0x27 0x1 /home/ashwin/pop-compiler-lkvm/x86_64/lib/libc.a(tcsetattr.o)
                0x0000000000426d14                tcsetattr
 ** fill        0x0000000000426d3b        0x1
 .text          0x0000000000426d3c        0x0 0x4 /home/ashwin/pop-compiler-lkvm/x86_64/lib/libc.a(__lock.o)
 .text.__lock   0x0000000000426d3c       0x47 0x1 /home/ashwin/pop-compiler-lkvm/x86_64/lib/libc.a(__lock.o)
                0x0000000000426d3c                __lock
 .text.__unlock
                0x0000000000426d83       0x3d 0x1 /home/ashwin/pop-compiler-lkvm/x86_64/lib/libc.a(__lock.o)
                0x0000000000426d83                __unlock
 .text          0x0000000000426dc0        0x0 0x4 /home/ashwin/pop-compiler-lkvm/x86_64/lib/libc.a(__syscall_cp.o)
 .text.sccp     0x0000000000426dc0       0x13 0x1 /home/ashwin/pop-compiler-lkvm/x86_64/lib/libc.a(__syscall_cp.o)
                0x0000000000426dc0                __syscall_cp_c
 .text.__syscall_cp
                0x0000000000426dd3        0x5 0x1 /home/ashwin/pop-compiler-lkvm/x86_64/lib/libc.a(__syscall_cp.o)
                0x0000000000426dd3                __syscall_cp
 .text          0x0000000000426dd8        0x0 0x4 /home/ashwin/pop-compiler-lkvm/x86_64/lib/libc.a(__wait.o)
 .text.__wait   0x0000000000426dd8       0x78 0x1 /home/ashwin/pop-compiler-lkvm/x86_64/lib/libc.a(__wait.o)
                0x0000000000426dd8                __wait
 .text          0x0000000000426e50        0x0 0x4 /home/ashwin/pop-compiler-lkvm/x86_64/lib/libc.a(pthread_cleanup_push.o)
 .text.dummy    0x0000000000426e50        0x1 0x1 /home/ashwin/pop-compiler-lkvm/x86_64/lib/libc.a(pthread_cleanup_push.o)
 .text._pthread_cleanup_push
                0x0000000000426e51        0xc 0x1 /home/ashwin/pop-compiler-lkvm/x86_64/lib/libc.a(pthread_cleanup_push.o)
                0x0000000000426e51                _pthread_cleanup_push
 .text._pthread_cleanup_pop
                0x0000000000426e5d       0x1e 0x1 /home/ashwin/pop-compiler-lkvm/x86_64/lib/libc.a(pthread_cleanup_push.o)
                0x0000000000426e5d                _pthread_cleanup_pop
 ** fill        0x0000000000426e7b        0x1
 .text          0x0000000000426e7c        0x0 0x4 /home/ashwin/pop-compiler-lkvm/x86_64/lib/libc.a(pthread_cond_init.o)
 .text.pthread_cond_init
                0x0000000000426e7c       0x4c 0x1 /home/ashwin/pop-compiler-lkvm/x86_64/lib/libc.a(pthread_cond_init.o)
                0x0000000000426e7c                pthread_cond_init
 .text          0x0000000000426ec8        0x0 0x4 /home/ashwin/pop-compiler-lkvm/x86_64/lib/libc.a(pthread_cond_signal.o)
 .text.pthread_cond_signal
                0x0000000000426ec8       0x52 0x1 /home/ashwin/pop-compiler-lkvm/x86_64/lib/libc.a(pthread_cond_signal.o)
                0x0000000000426ec8                pthread_cond_signal
 ** fill        0x0000000000426f1a        0x2
 .text          0x0000000000426f1c        0x0 0x4 /home/ashwin/pop-compiler-lkvm/x86_64/lib/libc.a(pthread_cond_timedwait.o)
 .text.__pthread_cond_timedwait
                0x0000000000426f1c      0x4ca 0x1 /home/ashwin/pop-compiler-lkvm/x86_64/lib/libc.a(pthread_cond_timedwait.o)
                0x0000000000426f1c                __pthread_cond_timedwait
                0x0000000000426f1c                pthread_cond_timedwait
 .text.__private_cond_signal
                0x00000000004273e6      0x181 0x1 /home/ashwin/pop-compiler-lkvm/x86_64/lib/libc.a(pthread_cond_timedwait.o)
                0x00000000004273e6                __private_cond_signal
 ** fill        0x0000000000427567        0x1
 .text          0x0000000000427568        0x0 0x4 /home/ashwin/pop-compiler-lkvm/x86_64/lib/libc.a(pthread_cond_wait.o)
 .text.pthread_cond_wait
                0x0000000000427568        0x7 0x1 /home/ashwin/pop-compiler-lkvm/x86_64/lib/libc.a(pthread_cond_wait.o)
                0x0000000000427568                pthread_cond_wait
 ** fill        0x000000000042756f        0x1
 .text          0x0000000000427570        0x0 0x4 /home/ashwin/pop-compiler-lkvm/x86_64/lib/libc.a(pthread_create.o)
 .text.dummy_0  0x0000000000427570        0x1 0x1 /home/ashwin/pop-compiler-lkvm/x86_64/lib/libc.a(pthread_create.o)
                0x0000000000427570                __acquire_ptc
                0x0000000000427570                __dl_thread_cleanup
                0x0000000000427570                __do_orphaned_stdio_locks
                0x0000000000427570                __pthread_tsd_run_dtors
                0x0000000000427570                __release_ptc
 .text.__pthread_exit
                0x0000000000427571      0x1bb 0x1 /home/ashwin/pop-compiler-lkvm/x86_64/lib/libc.a(pthread_create.o)
                0x0000000000427571                __pthread_exit
                0x0000000000427571                pthread_exit
 .text.__do_cleanup_push
                0x000000000042772c       0x1c 0x1 /home/ashwin/pop-compiler-lkvm/x86_64/lib/libc.a(pthread_create.o)
                0x000000000042772c                __do_cleanup_push
 .text.__do_cleanup_pop
                0x0000000000427748       0x15 0x1 /home/ashwin/pop-compiler-lkvm/x86_64/lib/libc.a(pthread_create.o)
                0x0000000000427748                __do_cleanup_pop
 .text.__pthread_create
                0x000000000042775d      0x5c7 0x1 /home/ashwin/pop-compiler-lkvm/x86_64/lib/libc.a(pthread_create.o)
                0x000000000042775d                __pthread_create
                0x000000000042775d                pthread_create
 .text.start_c11
                0x0000000000427d24       0x19 0x1 /home/ashwin/pop-compiler-lkvm/x86_64/lib/libc.a(pthread_create.o)
 .text.start    0x0000000000427d3d       0x94 0x1 /home/ashwin/pop-compiler-lkvm/x86_64/lib/libc.a(pthread_create.o)
 ** fill        0x0000000000427dd1        0x3
 .text          0x0000000000427dd4        0x0 0x4 /home/ashwin/pop-compiler-lkvm/x86_64/lib/libc.a(pthread_join.o)
 .text.__pthread_timedjoin_np
                0x0000000000427dd4       0xc4 0x1 /home/ashwin/pop-compiler-lkvm/x86_64/lib/libc.a(pthread_join.o)
                0x0000000000427dd4                __pthread_timedjoin_np
                0x0000000000427dd4                pthread_timedjoin_np
 .text.__pthread_join
                0x0000000000427e98        0x7 0x1 /home/ashwin/pop-compiler-lkvm/x86_64/lib/libc.a(pthread_join.o)
                0x0000000000427e98                __pthread_join
                0x0000000000427e98                pthread_join
 .text.__pthread_tryjoin_np
                0x0000000000427e9f       0x15 0x1 /home/ashwin/pop-compiler-lkvm/x86_64/lib/libc.a(pthread_join.o)
                0x0000000000427e9f                __pthread_tryjoin_np
                0x0000000000427e9f                pthread_tryjoin_np
 .text          0x0000000000427eb4        0x0 0x4 /home/ashwin/pop-compiler-lkvm/x86_64/lib/libc.a(pthread_kill.o)
 .text.pthread_kill
                0x0000000000427eb4       0x52 0x1 /home/ashwin/pop-compiler-lkvm/x86_64/lib/libc.a(pthread_kill.o)
                0x0000000000427eb4                pthread_kill
 ** fill        0x0000000000427f06        0x2
 .text          0x0000000000427f08        0x0 0x4 /home/ashwin/pop-compiler-lkvm/x86_64/lib/libc.a(pthread_mutex_init.o)
 .text.pthread_mutex_init
                0x0000000000427f08       0x3a 0x1 /home/ashwin/pop-compiler-lkvm/x86_64/lib/libc.a(pthread_mutex_init.o)
                0x0000000000427f08                pthread_mutex_init
 ** fill        0x0000000000427f42        0x2
 .text          0x0000000000427f44        0x0 0x4 /home/ashwin/pop-compiler-lkvm/x86_64/lib/libc.a(pthread_mutex_lock.o)
 .text.__pthread_mutex_lock
                0x0000000000427f44       0x25 0x1 /home/ashwin/pop-compiler-lkvm/x86_64/lib/libc.a(pthread_mutex_lock.o)
                0x0000000000427f44                __pthread_mutex_lock
                0x0000000000427f44                pthread_mutex_lock
 ** fill        0x0000000000427f69        0x3
 .text          0x0000000000427f6c        0x0 0x4 /home/ashwin/pop-compiler-lkvm/x86_64/lib/libc.a(pthread_mutex_timedlock.o)
 .text.__pthread_mutex_timedlock
                0x0000000000427f6c      0x104 0x1 /home/ashwin/pop-compiler-lkvm/x86_64/lib/libc.a(pthread_mutex_timedlock.o)
                0x0000000000427f6c                __pthread_mutex_timedlock
                0x0000000000427f6c                pthread_mutex_timedlock
 .text          0x0000000000428070        0x0 0x4 /home/ashwin/pop-compiler-lkvm/x86_64/lib/libc.a(pthread_mutex_trylock.o)
 .text.__pthread_mutex_trylock_owner
                0x0000000000428070      0x133 0x1 /home/ashwin/pop-compiler-lkvm/x86_64/lib/libc.a(pthread_mutex_trylock.o)
                0x0000000000428070                __pthread_mutex_trylock_owner
 .text.__pthread_mutex_trylock
                0x00000000004281a3       0x1e 0x1 /home/ashwin/pop-compiler-lkvm/x86_64/lib/libc.a(pthread_mutex_trylock.o)
                0x00000000004281a3                __pthread_mutex_trylock
                0x00000000004281a3                pthread_mutex_trylock
 ** fill        0x00000000004281c1        0x3
 .text          0x00000000004281c4        0x0 0x4 /home/ashwin/pop-compiler-lkvm/x86_64/lib/libc.a(pthread_mutex_unlock.o)
 .text.__pthread_mutex_unlock
                0x00000000004281c4      0x110 0x1 /home/ashwin/pop-compiler-lkvm/x86_64/lib/libc.a(pthread_mutex_unlock.o)
                0x00000000004281c4                __pthread_mutex_unlock
                0x00000000004281c4                pthread_mutex_unlock
 .text          0x00000000004282d4        0x0 0x4 /home/ashwin/pop-compiler-lkvm/x86_64/lib/libc.a(pthread_rwlock_rdlock.o)
 .text.pthread_rwlock_rdlock
                0x00000000004282d4        0x7 0x1 /home/ashwin/pop-compiler-lkvm/x86_64/lib/libc.a(pthread_rwlock_rdlock.o)
                0x00000000004282d4                pthread_rwlock_rdlock
 ** fill        0x00000000004282db        0x1
 .text          0x00000000004282dc        0x0 0x4 /home/ashwin/pop-compiler-lkvm/x86_64/lib/libc.a(pthread_rwlock_timedrdlock.o)
 .text.pthread_rwlock_timedrdlock
                0x00000000004282dc       0xaf 0x1 /home/ashwin/pop-compiler-lkvm/x86_64/lib/libc.a(pthread_rwlock_timedrdlock.o)
                0x00000000004282dc                pthread_rwlock_timedrdlock
 ** fill        0x000000000042838b        0x1
 .text          0x000000000042838c        0x0 0x4 /home/ashwin/pop-compiler-lkvm/x86_64/lib/libc.a(pthread_rwlock_tryrdlock.o)
 .text.pthread_rwlock_tryrdlock
                0x000000000042838c       0x33 0x1 /home/ashwin/pop-compiler-lkvm/x86_64/lib/libc.a(pthread_rwlock_tryrdlock.o)
                0x000000000042838c                pthread_rwlock_tryrdlock
 ** fill        0x00000000004283bf        0x1
 .text          0x00000000004283c0        0x0 0x4 /home/ashwin/pop-compiler-lkvm/x86_64/lib/libc.a(pthread_rwlock_unlock.o)
 .text.pthread_rwlock_unlock
                0x00000000004283c0       0x62 0x1 /home/ashwin/pop-compiler-lkvm/x86_64/lib/libc.a(pthread_rwlock_unlock.o)
                0x00000000004283c0                pthread_rwlock_unlock
 ** fill        0x0000000000428422        0x2
 .text          0x0000000000428424        0x0 0x4 /home/ashwin/pop-compiler-lkvm/x86_64/lib/libc.a(pthread_rwlock_wrlock.o)
 .text.pthread_rwlock_wrlock
                0x0000000000428424        0x7 0x1 /home/ashwin/pop-compiler-lkvm/x86_64/lib/libc.a(pthread_rwlock_wrlock.o)
                0x0000000000428424                pthread_rwlock_wrlock
 ** fill        0x000000000042842b        0x1
 .text          0x000000000042842c        0x0 0x4 /home/ashwin/pop-compiler-lkvm/x86_64/lib/libc.a(pthread_setcancelstate.o)
 .text.__pthread_setcancelstate
                0x000000000042842c       0x23 0x1 /home/ashwin/pop-compiler-lkvm/x86_64/lib/libc.a(pthread_setcancelstate.o)
                0x000000000042842c                __pthread_setcancelstate
                0x000000000042842c                pthread_setcancelstate
 ** fill        0x000000000042844f        0x1
 .text          0x0000000000428450        0x0 0x4 /home/ashwin/pop-compiler-lkvm/x86_64/lib/libc.a(pthread_sigmask.o)
 .text.pthread_sigmask
                0x0000000000428450       0x38 0x1 /home/ashwin/pop-compiler-lkvm/x86_64/lib/libc.a(pthread_sigmask.o)
                0x0000000000428450                pthread_sigmask
 .text          0x0000000000428488        0x0 0x4 /home/ashwin/pop-compiler-lkvm/x86_64/lib/libc.a(pthread_testcancel.o)
 .text.__pthread_testcancel
                0x0000000000428488        0x7 0x1 /home/ashwin/pop-compiler-lkvm/x86_64/lib/libc.a(pthread_testcancel.o)
                0x0000000000428488                __pthread_testcancel
                0x0000000000428488                pthread_testcancel
 .text.dummy    0x000000000042848f        0x1 0x1 /home/ashwin/pop-compiler-lkvm/x86_64/lib/libc.a(pthread_testcancel.o)
                0x000000000042848f                __testcancel
 .text          0x0000000000428490        0x0 0x4 /home/ashwin/pop-compiler-lkvm/x86_64/lib/libc.a(vmlock.o)
 .text.__vm_wait
                0x0000000000428490       0x23 0x1 /home/ashwin/pop-compiler-lkvm/x86_64/lib/libc.a(vmlock.o)
                0x0000000000428490                __vm_wait
 .text.__vm_lock
                0x00000000004284b3        0x8 0x1 /home/ashwin/pop-compiler-lkvm/x86_64/lib/libc.a(vmlock.o)
                0x00000000004284b3                __vm_lock
 .text.__vm_unlock
                0x00000000004284bb       0x4e 0x1 /home/ashwin/pop-compiler-lkvm/x86_64/lib/libc.a(vmlock.o)
                0x00000000004284bb                __vm_unlock
 ** fill        0x0000000000428509        0x3
 .text          0x000000000042850c        0x0 0x4 /home/ashwin/pop-compiler-lkvm/x86_64/lib/libc.a(__cleartid_exit_nostack.o)
 .text.__cleartid_exit_nostack
                0x000000000042850c       0x2e 0x1 /home/ashwin/pop-compiler-lkvm/x86_64/lib/libc.a(__cleartid_exit_nostack.o)
                0x000000000042850c                __cleartid_exit_nostack
 ** fill        0x000000000042853a        0x2
 .text          0x000000000042853c        0x0 0x4 /home/ashwin/pop-compiler-lkvm/x86_64/lib/libc.a(__unmapself.o)
 .text.__unmapself
                0x000000000042853c       0x11 0x1 /home/ashwin/pop-compiler-lkvm/x86_64/lib/libc.a(__unmapself.o)
                0x000000000042853c                __unmapself
 ** fill        0x000000000042854d        0x3
 .text          0x0000000000428550        0x0 0x4 /home/ashwin/pop-compiler-lkvm/x86_64/lib/libc.a(clone.o)
 .text.__clone  0x0000000000428550       0x39 0x1 /home/ashwin/pop-compiler-lkvm/x86_64/lib/libc.a(clone.o)
                0x0000000000428550                __clone
 ** fill        0x0000000000428589        0x3
 .text          0x000000000042858c        0x0 0x4 /home/ashwin/pop-compiler-lkvm/x86_64/lib/libc.a(gmtime.o)
 .text.gmtime   0x000000000042858c        0xa 0x1 /home/ashwin/pop-compiler-lkvm/x86_64/lib/libc.a(gmtime.o)
                0x000000000042858c                gmtime
 ** fill        0x0000000000428596        0x2
 .text          0x0000000000428598        0x0 0x4 /home/ashwin/pop-compiler-lkvm/x86_64/lib/libc.a(gmtime_r.o)
 .text.__gmtime_r
                0x0000000000428598       0x3b 0x1 /home/ashwin/pop-compiler-lkvm/x86_64/lib/libc.a(gmtime_r.o)
                0x0000000000428598                __gmtime_r
                0x0000000000428598                gmtime_r
 ** fill        0x00000000004285d3        0x1
 .text          0x00000000004285d4        0x0 0x4 /home/ashwin/pop-compiler-lkvm/x86_64/lib/libc.a(time.o)
 .text.time     0x00000000004285d4       0x2c 0x1 /home/ashwin/pop-compiler-lkvm/x86_64/lib/libc.a(time.o)
                0x00000000004285d4                time
 .text          0x0000000000428600        0x0 0x4 /home/ashwin/pop-compiler-lkvm/x86_64/lib/libc.a(_exit.o)
 .text._exit    0x0000000000428600        0x6 0x1 /home/ashwin/pop-compiler-lkvm/x86_64/lib/libc.a(_exit.o)
                0x0000000000428600                _exit
 ** fill        0x0000000000428606        0x2
 .text          0x0000000000428608        0x0 0x4 /home/ashwin/pop-compiler-lkvm/x86_64/lib/libc.a(access.o)
 .text.access   0x0000000000428608       0x12 0x1 /home/ashwin/pop-compiler-lkvm/x86_64/lib/libc.a(access.o)
                0x0000000000428608                access
 ** fill        0x000000000042861a        0x2
 .text          0x000000000042861c        0x0 0x4 /home/ashwin/pop-compiler-lkvm/x86_64/lib/libc.a(close.o)
 .text.dummy    0x000000000042861c        0x3 0x1 /home/ashwin/pop-compiler-lkvm/x86_64/lib/libc.a(close.o)
                0x000000000042861c                __aio_close
 .text.close    0x000000000042861f       0x3b 0x1 /home/ashwin/pop-compiler-lkvm/x86_64/lib/libc.a(close.o)
                0x000000000042861f                close
 ** fill        0x000000000042865a        0x2
 .text          0x000000000042865c        0x0 0x4 /home/ashwin/pop-compiler-lkvm/x86_64/lib/libc.a(fdatasync.o)
 .text.fdatasync
                0x000000000042865c       0x29 0x1 /home/ashwin/pop-compiler-lkvm/x86_64/lib/libc.a(fdatasync.o)
                0x000000000042865c                fdatasync
 ** fill        0x0000000000428685        0x3
 .text          0x0000000000428688        0x0 0x4 /home/ashwin/pop-compiler-lkvm/x86_64/lib/libc.a(fsync.o)
 .text.fsync    0x0000000000428688       0x29 0x1 /home/ashwin/pop-compiler-lkvm/x86_64/lib/libc.a(fsync.o)
                0x0000000000428688                fsync
 ** fill        0x00000000004286b1        0x3
 .text          0x00000000004286b4        0x0 0x4 /home/ashwin/pop-compiler-lkvm/x86_64/lib/libc.a(ftruncate.o)
 .text.ftruncate
                0x00000000004286b4       0x12 0x1 /home/ashwin/pop-compiler-lkvm/x86_64/lib/libc.a(ftruncate.o)
                0x00000000004286b4                ftruncate
                0x00000000004286b4                ftruncate64
 ** fill        0x00000000004286c6        0x2
 .text          0x00000000004286c8        0x0 0x4 /home/ashwin/pop-compiler-lkvm/x86_64/lib/libc.a(getpid.o)
 .text.getpid   0x00000000004286c8        0x8 0x1 /home/ashwin/pop-compiler-lkvm/x86_64/lib/libc.a(getpid.o)
                0x00000000004286c8                getpid
 .text          0x00000000004286d0        0x0 0x4 /home/ashwin/pop-compiler-lkvm/x86_64/lib/libc.a(isatty.o)
 .text.isatty   0x00000000004286d0       0x1f 0x1 /home/ashwin/pop-compiler-lkvm/x86_64/lib/libc.a(isatty.o)
                0x00000000004286d0                isatty
 ** fill        0x00000000004286ef        0x1
 .text          0x00000000004286f0        0x0 0x4 /home/ashwin/pop-compiler-lkvm/x86_64/lib/libc.a(lchown.o)
 .text.lchown   0x00000000004286f0       0x13 0x1 /home/ashwin/pop-compiler-lkvm/x86_64/lib/libc.a(lchown.o)
                0x00000000004286f0                lchown
 ** fill        0x0000000000428703        0x1
 .text          0x0000000000428704        0x0 0x4 /home/ashwin/pop-compiler-lkvm/x86_64/lib/libc.a(link.o)
 .text.link     0x0000000000428704        0xf 0x1 /home/ashwin/pop-compiler-lkvm/x86_64/lib/libc.a(link.o)
                0x0000000000428704                link
 ** fill        0x0000000000428713        0x1
 .text          0x0000000000428714        0x0 0x4 /home/ashwin/pop-compiler-lkvm/x86_64/lib/libc.a(lseek.o)
 .text.lseek    0x0000000000428714       0x15 0x1 /home/ashwin/pop-compiler-lkvm/x86_64/lib/libc.a(lseek.o)
                0x0000000000428714                lseek
                0x0000000000428714                lseek64
 ** fill        0x0000000000428729        0x3
 .text          0x000000000042872c        0x0 0x4 /home/ashwin/pop-compiler-lkvm/x86_64/lib/libc.a(pread.o)
 .text.pread    0x000000000042872c       0x2b 0x1 /home/ashwin/pop-compiler-lkvm/x86_64/lib/libc.a(pread.o)
                0x000000000042872c                pread
                0x000000000042872c                pread64
 ** fill        0x0000000000428757        0x1
 .text          0x0000000000428758        0x0 0x4 /home/ashwin/pop-compiler-lkvm/x86_64/lib/libc.a(preadv.o)
 .text.preadv   0x0000000000428758       0x32 0x1 /home/ashwin/pop-compiler-lkvm/x86_64/lib/libc.a(preadv.o)
                0x0000000000428758                preadv
                0x0000000000428758                preadv64
 ** fill        0x000000000042878a        0x2
 .text          0x000000000042878c        0x0 0x4 /home/ashwin/pop-compiler-lkvm/x86_64/lib/libc.a(pwrite.o)
 .text.pwrite   0x000000000042878c       0x2b 0x1 /home/ashwin/pop-compiler-lkvm/x86_64/lib/libc.a(pwrite.o)
                0x000000000042878c                pwrite
                0x000000000042878c                pwrite64
 ** fill        0x00000000004287b7        0x1
 .text          0x00000000004287b8        0x0 0x4 /home/ashwin/pop-compiler-lkvm/x86_64/lib/libc.a(pwritev.o)
 .text.pwritev  0x00000000004287b8       0x32 0x1 /home/ashwin/pop-compiler-lkvm/x86_64/lib/libc.a(pwritev.o)
                0x00000000004287b8                pwritev
                0x00000000004287b8                pwritev64
 ** fill        0x00000000004287ea        0x2
 .text          0x00000000004287ec        0x0 0x4 /home/ashwin/pop-compiler-lkvm/x86_64/lib/libc.a(read.o)
 .text.read     0x00000000004287ec       0x28 0x1 /home/ashwin/pop-compiler-lkvm/x86_64/lib/libc.a(read.o)
                0x00000000004287ec                read
 .text          0x0000000000428814        0x0 0x4 /home/ashwin/pop-compiler-lkvm/x86_64/lib/libc.a(readlink.o)
 .text.readlink
                0x0000000000428814        0xf 0x1 /home/ashwin/pop-compiler-lkvm/x86_64/lib/libc.a(readlink.o)
                0x0000000000428814                readlink
 ** fill        0x0000000000428823        0x1
 .text          0x0000000000428824        0x0 0x4 /home/ashwin/pop-compiler-lkvm/x86_64/lib/libc.a(readv.o)
 .text.readv    0x0000000000428824       0x2e 0x1 /home/ashwin/pop-compiler-lkvm/x86_64/lib/libc.a(readv.o)
                0x0000000000428824                readv
 ** fill        0x0000000000428852        0x2
 .text          0x0000000000428854        0x0 0x4 /home/ashwin/pop-compiler-lkvm/x86_64/lib/libc.a(sleep.o)
 .text.sleep    0x0000000000428854       0x2b 0x1 /home/ashwin/pop-compiler-lkvm/x86_64/lib/libc.a(sleep.o)
                0x0000000000428854                sleep
 ** fill        0x000000000042887f        0x1
 .text          0x0000000000428880        0x0 0x4 /home/ashwin/pop-compiler-lkvm/x86_64/lib/libc.a(symlink.o)
 .text.symlink  0x0000000000428880        0xf 0x1 /home/ashwin/pop-compiler-lkvm/x86_64/lib/libc.a(symlink.o)
                0x0000000000428880                symlink
 ** fill        0x000000000042888f        0x1
 .text          0x0000000000428890        0x0 0x4 /home/ashwin/pop-compiler-lkvm/x86_64/lib/libc.a(truncate.o)
 .text.truncate
                0x0000000000428890        0xf 0x1 /home/ashwin/pop-compiler-lkvm/x86_64/lib/libc.a(truncate.o)
                0x0000000000428890                truncate
                0x0000000000428890                truncate64
 ** fill        0x000000000042889f        0x1
 .text          0x00000000004288a0        0x0 0x4 /home/ashwin/pop-compiler-lkvm/x86_64/lib/libc.a(unlink.o)
 .text.unlink   0x00000000004288a0        0xf 0x1 /home/ashwin/pop-compiler-lkvm/x86_64/lib/libc.a(unlink.o)
                0x00000000004288a0                unlink
 ** fill        0x00000000004288af        0x1
 .text          0x00000000004288b0        0x0 0x4 /home/ashwin/pop-compiler-lkvm/x86_64/lib/libc.a(usleep.o)
 .text.usleep   0x00000000004288b0       0x38 0x1 /home/ashwin/pop-compiler-lkvm/x86_64/lib/libc.a(usleep.o)
                0x00000000004288b0                usleep
 .text          0x00000000004288e8        0x0 0x4 /home/ashwin/pop-compiler-lkvm/x86_64/lib/libc.a(write.o)
 .text.write    0x00000000004288e8       0x2b 0x1 /home/ashwin/pop-compiler-lkvm/x86_64/lib/libc.a(write.o)
                0x00000000004288e8                write
 ** fill        0x0000000000428913        0x1
 .text          0x0000000000428914        0x0 0x4 /home/ashwin/pop-compiler-lkvm/x86_64/lib/libc.a(writev.o)
 .text.writev   0x0000000000428914       0x2e 0x1 /home/ashwin/pop-compiler-lkvm/x86_64/lib/libc.a(writev.o)
                0x0000000000428914                writev
 ** fill        0x0000000000428942        0x2
 .text          0x0000000000428944        0x0 0x4 /home/ashwin/pop-compiler-lkvm/x86_64/lib/libc.a(tolower.o)
 .text.tolower  0x0000000000428944        0xf 0x1 /home/ashwin/pop-compiler-lkvm/x86_64/lib/libc.a(tolower.o)
                0x0000000000428944                tolower
 .text.__tolower_l
                0x0000000000428953        0xf 0x1 /home/ashwin/pop-compiler-lkvm/x86_64/lib/libc.a(tolower.o)
                0x0000000000428953                __tolower_l
                0x0000000000428953                tolower_l
 ** fill        0x0000000000428962        0x2
 .text          0x0000000000428964        0x0 0x4 /home/ashwin/pop-compiler-lkvm/x86_64/lib/libc.a(__environ.o)
 .text          0x0000000000428964        0x0 0x4 /home/ashwin/pop-compiler-lkvm/x86_64/lib/libc.a(__init_tls.o)
 .text.__init_tp
                0x0000000000428964       0x50 0x1 /home/ashwin/pop-compiler-lkvm/x86_64/lib/libc.a(__init_tls.o)
                0x0000000000428964                __init_tp
 .text.__copy_tls
                0x00000000004289b4       0xa5 0x1 /home/ashwin/pop-compiler-lkvm/x86_64/lib/libc.a(__init_tls.o)
                0x00000000004289b4                __copy_tls
 .text.static_init_tls
                0x0000000000428a59      0x142 0x1 /home/ashwin/pop-compiler-lkvm/x86_64/lib/libc.a(__init_tls.o)
                0x0000000000428a59                __init_tls
 ** fill        0x0000000000428b9b        0x1
 .text          0x0000000000428b9c        0x0 0x4 /home/ashwin/pop-compiler-lkvm/x86_64/lib/libc.a(platform.o)
 .text.popcorn_getnid
                0x0000000000428b9c       0x2e 0x1 /home/ashwin/pop-compiler-lkvm/x86_64/lib/libc.a(platform.o)
                0x0000000000428b9c                popcorn_getnid
 .text.popcorn_getthreadinfo
                0x0000000000428bca        0xf 0x1 /home/ashwin/pop-compiler-lkvm/x86_64/lib/libc.a(platform.o)
                0x0000000000428bca                popcorn_getthreadinfo
 .text.popcorn_getnodeinfo
                0x0000000000428bd9       0x74 0x1 /home/ashwin/pop-compiler-lkvm/x86_64/lib/libc.a(platform.o)
                0x0000000000428bd9                popcorn_getnodeinfo
 ** fill        0x0000000000428c4d        0x3
 .text          0x0000000000428c50        0x0 0x4 /home/ashwin/pop-compiler-lkvm/x86_64/lib/libc.a(_Exit.o)
 .text._Exit    0x0000000000428c50       0x13 0x1 /home/ashwin/pop-compiler-lkvm/x86_64/lib/libc.a(_Exit.o)
                0x0000000000428c50                _Exit
 ** fill        0x0000000000428c63        0x1
 .text          0x0000000000428c64        0x0 0x4 /home/ashwin/pop-compiler-lkvm/x86_64/lib/libc.a(floatscan.o)
 ** fill        0x0000000000428c64        0xc
 .text.__floatscan
                0x0000000000428c70     0x185f 0x10 /home/ashwin/pop-compiler-lkvm/x86_64/lib/libc.a(floatscan.o)
                0x0000000000428c70                __floatscan
 ** fill        0x000000000042a4cf        0x1
 .text.scanexp  0x000000000042a4d0      0x20f 0x10 /home/ashwin/pop-compiler-lkvm/x86_64/lib/libc.a(floatscan.o)
 ** fill        0x000000000042a6df        0x1
 .text          0x000000000042a6e0        0x0 0x4 /home/ashwin/pop-compiler-lkvm/x86_64/lib/libc.a(intscan.o)
 .text.__intscan
                0x000000000042a6e0      0x6ac 0x10 /home/ashwin/pop-compiler-lkvm/x86_64/lib/libc.a(intscan.o)
                0x000000000042a6e0                __intscan
 .text          0x000000000042ad8c        0x0 0x4 /home/ashwin/pop-compiler-lkvm/x86_64/lib/libc.a(procfdname.o)
 ** fill        0x000000000042ad8c        0x4
 .text.__procfdname
                0x000000000042ad90       0x83 0x10 /home/ashwin/pop-compiler-lkvm/x86_64/lib/libc.a(procfdname.o)
                0x000000000042ad90                __procfdname
 ** fill        0x000000000042ae13        0x1
 .text          0x000000000042ae14        0x0 0x4 /home/ashwin/pop-compiler-lkvm/x86_64/lib/libc.a(shgetc.o)
 ** fill        0x000000000042ae14        0xc
 .text.__shlim  0x000000000042ae20       0x39 0x10 /home/ashwin/pop-compiler-lkvm/x86_64/lib/libc.a(shgetc.o)
                0x000000000042ae20                __shlim
 ** fill        0x000000000042ae59        0x7
 .text.__shgetc
                0x000000000042ae60       0xc1 0x10 /home/ashwin/pop-compiler-lkvm/x86_64/lib/libc.a(shgetc.o)
                0x000000000042ae60                __shgetc
 ** fill        0x000000000042af21        0x3
 .text          0x000000000042af24        0x0 0x4 /home/ashwin/pop-compiler-lkvm/x86_64/lib/libc.a(syscall.o)
 .text.__syscall
                0x000000000042af24       0x1a 0x1 /home/ashwin/pop-compiler-lkvm/x86_64/lib/libc.a(syscall.o)
                0x000000000042af24                __syscall
 ** fill        0x000000000042af3e        0x2
 .text          0x000000000042af40        0x0 0x4 /home/ashwin/pop-compiler-lkvm/x86_64/lib/libc.a(expand_heap.o)
 .text.__expand_heap
                0x000000000042af40      0x151 0x10 /home/ashwin/pop-compiler-lkvm/x86_64/lib/libc.a(expand_heap.o)
                0x000000000042af40                __expand_heap
 ** fill        0x000000000042b091        0xf
 .text.__expand_heap_node
                0x000000000042b0a0      0x1ff 0x10 /home/ashwin/pop-compiler-lkvm/x86_64/lib/libc.a(expand_heap.o)
                0x000000000042b0a0                __expand_heap_node
 ** fill        0x000000000042b29f        0x1
 .text.popcorn_get_arena
                0x000000000042b2a0       0xfe 0x10 /home/ashwin/pop-compiler-lkvm/x86_64/lib/libc.a(expand_heap.o)
                0x000000000042b2a0                popcorn_get_arena
 ** fill        0x000000000042b39e        0x2
 .text          0x000000000042b3a0        0x0 0x4 /home/ashwin/pop-compiler-lkvm/x86_64/lib/libc.a(__fpclassifyl.o)
 .text.__fpclassifyl
                0x000000000042b3a0       0x4e 0x1 /home/ashwin/pop-compiler-lkvm/x86_64/lib/libc.a(__fpclassifyl.o)
                0x000000000042b3a0                __fpclassifyl
 ** fill        0x000000000042b3ee        0x2
 .text          0x000000000042b3f0        0x0 0x4 /home/ashwin/pop-compiler-lkvm/x86_64/lib/libc.a(__signbitl.o)
 .text.__signbitl
                0x000000000042b3f0        0xa 0x1 /home/ashwin/pop-compiler-lkvm/x86_64/lib/libc.a(__signbitl.o)
                0x000000000042b3f0                __signbitl
 ** fill        0x000000000042b3fa        0x2
 .text          0x000000000042b3fc        0x0 0x4 /home/ashwin/pop-compiler-lkvm/x86_64/lib/libc.a(copysignl.o)
 .text.copysignl
                0x000000000042b3fc       0x2a 0x1 /home/ashwin/pop-compiler-lkvm/x86_64/lib/libc.a(copysignl.o)
                0x000000000042b3fc                copysignl
 ** fill        0x000000000042b426        0x2
 .text          0x000000000042b428        0x0 0x4 /home/ashwin/pop-compiler-lkvm/x86_64/lib/libc.a(frexpl.o)
 .text.frexpl   0x000000000042b428       0x7f 0x1 /home/ashwin/pop-compiler-lkvm/x86_64/lib/libc.a(frexpl.o)
                0x000000000042b428                frexpl
 ** fill        0x000000000042b4a7        0x1
 .text          0x000000000042b4a8        0x0 0x4 /home/ashwin/pop-compiler-lkvm/x86_64/lib/libc.a(scalbn.o)
 .text.scalbn   0x000000000042b4a8       0x8c 0x1 /home/ashwin/pop-compiler-lkvm/x86_64/lib/libc.a(scalbn.o)
                0x000000000042b4a8                scalbn
 .text          0x000000000042b534        0x0 0x4 /home/ashwin/pop-compiler-lkvm/x86_64/lib/libc.a(scalbnl.o)
 .text.scalbnl  0x000000000042b534       0x99 0x1 /home/ashwin/pop-compiler-lkvm/x86_64/lib/libc.a(scalbnl.o)
                0x000000000042b534                scalbnl
 ** fill        0x000000000042b5cd        0x3
 .text          0x000000000042b5d0        0x0 0x4 /home/ashwin/pop-compiler-lkvm/x86_64/lib/libc.a(fabs.o)
 .text.fabs     0x000000000042b5d0       0x12 0x1 /home/ashwin/pop-compiler-lkvm/x86_64/lib/libc.a(fabs.o)
                0x000000000042b5d0                fabs
 ** fill        0x000000000042b5e2        0x2
 .text          0x000000000042b5e4        0x0 0x4 /home/ashwin/pop-compiler-lkvm/x86_64/lib/libc.a(fmodl.o)
 .text.fmodl    0x000000000042b5e4       0x14 0x1 /home/ashwin/pop-compiler-lkvm/x86_64/lib/libc.a(fmodl.o)
                0x000000000042b5e4                fmodl
 .text          0x000000000042b5f8        0x0 0x4 /home/ashwin/pop-compiler-lkvm/x86_64/lib/libc.a(mbrtowc.o)
 .text.mbrtowc  0x000000000042b5f8      0x129 0x1 /home/ashwin/pop-compiler-lkvm/x86_64/lib/libc.a(mbrtowc.o)
                0x000000000042b5f8                mbrtowc
 ** fill        0x000000000042b721        0x3
 .text          0x000000000042b724        0x0 0x4 /home/ashwin/pop-compiler-lkvm/x86_64/lib/libc.a(mbsinit.o)
 .text.mbsinit  0x000000000042b724       0x14 0x1 /home/ashwin/pop-compiler-lkvm/x86_64/lib/libc.a(mbsinit.o)
                0x000000000042b724                mbsinit
 .text          0x000000000042b738        0x0 0x4 /home/ashwin/pop-compiler-lkvm/x86_64/lib/libc.a(wctomb.o)
 .text.wctomb   0x000000000042b738       0x15 0x1 /home/ashwin/pop-compiler-lkvm/x86_64/lib/libc.a(wctomb.o)
                0x000000000042b738                wctomb
 ** fill        0x000000000042b74d        0x3
 .text          0x000000000042b750        0x0 0x4 /home/ashwin/pop-compiler-lkvm/x86_64/lib/libc.a(sigaction.o)
 .text.__get_handler_set
                0x000000000042b750        0xf 0x1 /home/ashwin/pop-compiler-lkvm/x86_64/lib/libc.a(sigaction.o)
                0x000000000042b750                __get_handler_set
 .text.__libc_sigaction
                0x000000000042b75f      0x135 0x1 /home/ashwin/pop-compiler-lkvm/x86_64/lib/libc.a(sigaction.o)
                0x000000000042b75f                __libc_sigaction
 .text.__sigaction
                0x000000000042b894       0x2a 0x1 /home/ashwin/pop-compiler-lkvm/x86_64/lib/libc.a(sigaction.o)
                0x000000000042b894                __sigaction
                0x000000000042b894                sigaction
 ** fill        0x000000000042b8be        0x2
 .text          0x000000000042b8c0        0x0 0x4 /home/ashwin/pop-compiler-lkvm/x86_64/lib/libc.a(restore.o)
 .text.__restore_rt
                0x000000000042b8c0        0x9 0x1 /home/ashwin/pop-compiler-lkvm/x86_64/lib/libc.a(restore.o)
                0x000000000042b8c0                __restore_rt
 ** fill        0x000000000042b8c9        0x3
 .text          0x000000000042b8cc        0x0 0x4 /home/ashwin/pop-compiler-lkvm/x86_64/lib/libc.a(__fdopen.o)
 .text.__fdopen
                0x000000000042b8cc      0x179 0x1 /home/ashwin/pop-compiler-lkvm/x86_64/lib/libc.a(__fdopen.o)
                0x000000000042b8cc                __fdopen
                0x000000000042b8cc                fdopen
 ** fill        0x000000000042ba45        0x3
 .text          0x000000000042ba48        0x0 0x4 /home/ashwin/pop-compiler-lkvm/x86_64/lib/libc.a(__fmodeflags.o)
 .text.__fmodeflags
                0x000000000042ba48       0x89 0x1 /home/ashwin/pop-compiler-lkvm/x86_64/lib/libc.a(__fmodeflags.o)
                0x000000000042ba48                __fmodeflags
 ** fill        0x000000000042bad1        0x3
 .text          0x000000000042bad4        0x0 0x4 /home/ashwin/pop-compiler-lkvm/x86_64/lib/libc.a(__lockfile.o)
 .text.__lockfile
                0x000000000042bad4       0x73 0x1 /home/ashwin/pop-compiler-lkvm/x86_64/lib/libc.a(__lockfile.o)
                0x000000000042bad4                __lockfile
 .text.__unlockfile
                0x000000000042bb47       0x46 0x1 /home/ashwin/pop-compiler-lkvm/x86_64/lib/libc.a(__lockfile.o)
                0x000000000042bb47                __unlockfile
 ** fill        0x000000000042bb8d        0x3
 .text          0x000000000042bb90        0x0 0x4 /home/ashwin/pop-compiler-lkvm/x86_64/lib/libc.a(__overflow.o)
 .text.__overflow
                0x000000000042bb90       0x84 0x1 /home/ashwin/pop-compiler-lkvm/x86_64/lib/libc.a(__overflow.o)
                0x000000000042bb90                __overflow
 .text          0x000000000042bc14        0x0 0x4 /home/ashwin/pop-compiler-lkvm/x86_64/lib/libc.a(__stdio_close.o)
 .text.dummy    0x000000000042bc14        0x3 0x1 /home/ashwin/pop-compiler-lkvm/x86_64/lib/libc.a(__stdio_close.o)
 .text.__stdio_close
                0x000000000042bc17       0x1c 0x1 /home/ashwin/pop-compiler-lkvm/x86_64/lib/libc.a(__stdio_close.o)
                0x000000000042bc17                __stdio_close
 ** fill        0x000000000042bc33        0x1
 .text          0x000000000042bc34        0x0 0x4 /home/ashwin/pop-compiler-lkvm/x86_64/lib/libc.a(__stdio_read.o)
 .text.__stdio_read
                0x000000000042bc34       0xaf 0x1 /home/ashwin/pop-compiler-lkvm/x86_64/lib/libc.a(__stdio_read.o)
                0x000000000042bc34                __stdio_read
 ** fill        0x000000000042bce3        0x1
 .text          0x000000000042bce4        0x0 0x4 /home/ashwin/pop-compiler-lkvm/x86_64/lib/libc.a(__stdio_seek.o)
 .text.__stdio_seek
                0x000000000042bce4       0x16 0x1 /home/ashwin/pop-compiler-lkvm/x86_64/lib/libc.a(__stdio_seek.o)
                0x000000000042bce4                __stdio_seek
 ** fill        0x000000000042bcfa        0x2
 .text          0x000000000042bcfc        0x0 0x4 /home/ashwin/pop-compiler-lkvm/x86_64/lib/libc.a(__stdio_write.o)
 .text.__stdio_write
                0x000000000042bcfc      0x117 0x1 /home/ashwin/pop-compiler-lkvm/x86_64/lib/libc.a(__stdio_write.o)
                0x000000000042bcfc                __stdio_write
 ** fill        0x000000000042be13        0x1
 .text          0x000000000042be14        0x0 0x4 /home/ashwin/pop-compiler-lkvm/x86_64/lib/libc.a(__stdout_write.o)
 .text.__stdout_write
                0x000000000042be14       0x47 0x1 /home/ashwin/pop-compiler-lkvm/x86_64/lib/libc.a(__stdout_write.o)
                0x000000000042be14                __stdout_write
 ** fill        0x000000000042be5b        0x1
 .text          0x000000000042be5c        0x0 0x4 /home/ashwin/pop-compiler-lkvm/x86_64/lib/libc.a(__string_read.o)
 .text.__string_read
                0x000000000042be5c       0x79 0x1 /home/ashwin/pop-compiler-lkvm/x86_64/lib/libc.a(__string_read.o)
                0x000000000042be5c                __string_read
 ** fill        0x000000000042bed5        0x3
 .text          0x000000000042bed8        0x0 0x4 /home/ashwin/pop-compiler-lkvm/x86_64/lib/libc.a(__towrite.o)
 .text.__towrite
                0x000000000042bed8       0x40 0x1 /home/ashwin/pop-compiler-lkvm/x86_64/lib/libc.a(__towrite.o)
                0x000000000042bed8                __towrite
 .text.__towrite_needs_stdio_exit
                0x000000000042bf18        0x5 0x1 /home/ashwin/pop-compiler-lkvm/x86_64/lib/libc.a(__towrite.o)
                0x000000000042bf18                __towrite_needs_stdio_exit
 ** fill        0x000000000042bf1d        0x3
 .text          0x000000000042bf20        0x0 0x4 /home/ashwin/pop-compiler-lkvm/x86_64/lib/libc.a(__uflow.o)
 .text.__uflow  0x000000000042bf20       0x41 0x1 /home/ashwin/pop-compiler-lkvm/x86_64/lib/libc.a(__uflow.o)
                0x000000000042bf20                __uflow
 ** fill        0x000000000042bf61        0x3
 .text          0x000000000042bf64        0x0 0x4 /home/ashwin/pop-compiler-lkvm/x86_64/lib/libc.a(fputs.o)
 .text.fputs    0x000000000042bf64       0x38 0x1 /home/ashwin/pop-compiler-lkvm/x86_64/lib/libc.a(fputs.o)
                0x000000000042bf64                fputs
                0x000000000042bf64                fputs_unlocked
 .text          0x000000000042bf9c        0x0 0x4 /home/ashwin/pop-compiler-lkvm/x86_64/lib/libc.a(getdelim.o)
 .text.getdelim
                0x000000000042bf9c      0x273 0x1 /home/ashwin/pop-compiler-lkvm/x86_64/lib/libc.a(getdelim.o)
                0x000000000042bf9c                __getdelim
                0x000000000042bf9c                getdelim
 ** fill        0x000000000042c20f        0x1
 .text          0x000000000042c210        0x0 0x4 /home/ashwin/pop-compiler-lkvm/x86_64/lib/libc.a(ofl_add.o)
 .text.__ofl_add
                0x000000000042c210       0x29 0x1 /home/ashwin/pop-compiler-lkvm/x86_64/lib/libc.a(ofl_add.o)
                0x000000000042c210                __ofl_add
 ** fill        0x000000000042c239        0x3
 .text          0x000000000042c23c        0x0 0x4 /home/ashwin/pop-compiler-lkvm/x86_64/lib/libc.a(memcmp.o)
 ** fill        0x000000000042c23c        0x4
 .text.memcmp   0x000000000042c240       0x34 0x10 /home/ashwin/pop-compiler-lkvm/x86_64/lib/libc.a(memcmp.o)
                0x000000000042c240                memcmp
 .text          0x000000000042c274        0x0 0x4 /home/ashwin/pop-compiler-lkvm/x86_64/lib/libc.a(stpcpy.o)
 ** fill        0x000000000042c274        0xc
 .text.__stpcpy
                0x000000000042c280       0xc4 0x10 /home/ashwin/pop-compiler-lkvm/x86_64/lib/libc.a(stpcpy.o)
                0x000000000042c280                __stpcpy
                0x000000000042c280                stpcpy
 .text          0x000000000042c344        0x0 0x4 /home/ashwin/pop-compiler-lkvm/x86_64/lib/libc.a(stpncpy.o)
 ** fill        0x000000000042c344        0xc
 .text.__stpncpy
                0x000000000042c350       0xe4 0x10 /home/ashwin/pop-compiler-lkvm/x86_64/lib/libc.a(stpncpy.o)
                0x000000000042c350                __stpncpy
                0x000000000042c350                stpncpy
 .text          0x000000000042c434        0x0 0x4 /home/ashwin/pop-compiler-lkvm/x86_64/lib/libc.a(strcspn.o)
 ** fill        0x000000000042c434        0xc
 .text.strcspn  0x000000000042c440       0x9a 0x10 /home/ashwin/pop-compiler-lkvm/x86_64/lib/libc.a(strcspn.o)
                0x000000000042c440                strcspn
 ** fill        0x000000000042c4da        0x2
 .text          0x000000000042c4dc        0x0 0x4 /home/ashwin/pop-compiler-lkvm/x86_64/lib/libc.a(mkostemps.o)
 .text.__mkostemps
                0x000000000042c4dc       0xb7 0x1 /home/ashwin/pop-compiler-lkvm/x86_64/lib/libc.a(mkostemps.o)
                0x000000000042c4dc                __mkostemps
                0x000000000042c4dc                mkostemps
                0x000000000042c4dc                mkostemps64
 ** fill        0x000000000042c593        0x1
 .text          0x000000000042c594        0x0 0x4 /home/ashwin/pop-compiler-lkvm/x86_64/lib/libc.a(__timedwait.o)
 .text.__timedwait_cp
                0x000000000042c594       0xf3 0x1 /home/ashwin/pop-compiler-lkvm/x86_64/lib/libc.a(__timedwait.o)
                0x000000000042c594                __timedwait_cp
 .text.__timedwait
                0x000000000042c687       0x55 0x1 /home/ashwin/pop-compiler-lkvm/x86_64/lib/libc.a(__timedwait.o)
                0x000000000042c687                __timedwait
 .text          0x000000000042c6dc        0x0 0x4 /home/ashwin/pop-compiler-lkvm/x86_64/lib/libc.a(pthread_rwlock_timedwrlock.o)
 .text.pthread_rwlock_timedwrlock
                0x000000000042c6dc       0x98 0x1 /home/ashwin/pop-compiler-lkvm/x86_64/lib/libc.a(pthread_rwlock_timedwrlock.o)
                0x000000000042c6dc                pthread_rwlock_timedwrlock
 .text          0x000000000042c774        0x0 0x4 /home/ashwin/pop-compiler-lkvm/x86_64/lib/libc.a(pthread_rwlock_trywrlock.o)
 .text.pthread_rwlock_trywrlock
                0x000000000042c774       0x18 0x1 /home/ashwin/pop-compiler-lkvm/x86_64/lib/libc.a(pthread_rwlock_trywrlock.o)
                0x000000000042c774                pthread_rwlock_trywrlock
 .text          0x000000000042c78c        0x0 0x4 /home/ashwin/pop-compiler-lkvm/x86_64/lib/libc.a(__set_thread_area.o)
 .text.__set_thread_area
                0x000000000042c78c       0x10 0x1 /home/ashwin/pop-compiler-lkvm/x86_64/lib/libc.a(__set_thread_area.o)
                0x000000000042c78c                __set_thread_area
 .text          0x000000000042c79c        0x0 0x4 /home/ashwin/pop-compiler-lkvm/x86_64/lib/libc.a(__secs_to_tm.o)
 .text.__secs_to_tm
                0x000000000042c79c      0x2a8 0x1 /home/ashwin/pop-compiler-lkvm/x86_64/lib/libc.a(__secs_to_tm.o)
                0x000000000042c79c                __secs_to_tm
 .text          0x000000000042ca44        0x0 0x4 /home/ashwin/pop-compiler-lkvm/x86_64/lib/libc.a(__tz.o)
 .text.__secs_to_zone
                0x000000000042ca44      0x46c 0x1 /home/ashwin/pop-compiler-lkvm/x86_64/lib/libc.a(__tz.o)
                0x000000000042ca44                __secs_to_zone
 .text.rule_to_secs
                0x000000000042ceb0      0x131 0x1 /home/ashwin/pop-compiler-lkvm/x86_64/lib/libc.a(__tz.o)
 .text.__tzset  0x000000000042cfe1       0x1b 0x1 /home/ashwin/pop-compiler-lkvm/x86_64/lib/libc.a(__tz.o)
                0x000000000042cfe1                __tzset
                0x000000000042cfe1                tzset
 .text.__tm_to_tzname
                0x000000000042cffc       0x7b 0x1 /home/ashwin/pop-compiler-lkvm/x86_64/lib/libc.a(__tz.o)
                0x000000000042cffc                __tm_to_tzname
 .text.do_tzset
                0x000000000042d077      0x57c 0x1 /home/ashwin/pop-compiler-lkvm/x86_64/lib/libc.a(__tz.o)
 .text.getname  0x000000000042d5f3       0x95 0x1 /home/ashwin/pop-compiler-lkvm/x86_64/lib/libc.a(__tz.o)
 .text.getoff   0x000000000042d688       0xe7 0x1 /home/ashwin/pop-compiler-lkvm/x86_64/lib/libc.a(__tz.o)
 .text.getrule  0x000000000042d76f      0x11a 0x1 /home/ashwin/pop-compiler-lkvm/x86_64/lib/libc.a(__tz.o)
 ** fill        0x000000000042d889        0x3
 .text          0x000000000042d88c        0x0 0x4 /home/ashwin/pop-compiler-lkvm/x86_64/lib/libc.a(__year_to_secs.o)
 .text.__year_to_secs
                0x000000000042d88c      0x139 0x1 /home/ashwin/pop-compiler-lkvm/x86_64/lib/libc.a(__year_to_secs.o)
                0x000000000042d88c                __year_to_secs
 ** fill        0x000000000042d9c5        0x3
 .text          0x000000000042d9c8        0x0 0x4 /home/ashwin/pop-compiler-lkvm/x86_64/lib/libc.a(clock_gettime.o)
 .text.__clock_gettime
                0x000000000042d9c8       0x56 0x1 /home/ashwin/pop-compiler-lkvm/x86_64/lib/libc.a(clock_gettime.o)
                0x000000000042d9c8                __clock_gettime
                0x000000000042d9c8                clock_gettime
 ** fill        0x000000000042da1e        0x2
 .text          0x000000000042da20        0x0 0x4 /home/ashwin/pop-compiler-lkvm/x86_64/lib/libc.a(nanosleep.o)
 .text.nanosleep
                0x000000000042da20       0x2a 0x1 /home/ashwin/pop-compiler-lkvm/x86_64/lib/libc.a(nanosleep.o)
                0x000000000042da20                nanosleep
 ** fill        0x000000000042da4a        0x2
 .text          0x000000000042da4c        0x0 0x4 /home/ashwin/pop-compiler-lkvm/x86_64/lib/libc.a(internal.o)
 .text          0x000000000042da4c        0x0 0x4 /home/ashwin/pop-compiler-lkvm/x86_64/lib/libc.a(wcrtomb.o)
 .text.wcrtomb  0x000000000042da4c       0xfd 0x1 /home/ashwin/pop-compiler-lkvm/x86_64/lib/libc.a(wcrtomb.o)
                0x000000000042da4c                wcrtomb
 ** fill        0x000000000042db49        0x3
 .text          0x000000000042db4c        0x0 0x4 /home/ashwin/pop-compiler-lkvm/x86_64/lib/libc.a(__stdio_exit.o)
 .text.__stdio_exit
                0x000000000042db4c       0x35 0x1 /home/ashwin/pop-compiler-lkvm/x86_64/lib/libc.a(__stdio_exit.o)
                0x000000000042db4c                __stdio_exit
                0x000000000042db4c                __stdio_exit_needed
 .text.close_file
                0x000000000042db81       0x4b 0x1 /home/ashwin/pop-compiler-lkvm/x86_64/lib/libc.a(__stdio_exit.o)
 .text          0x000000000042dbcc        0x0 0x4 /home/ashwin/pop-compiler-lkvm/x86_64/lib/libc.a(__toread.o)
 .text.__toread
                0x000000000042dbcc       0x6e 0x1 /home/ashwin/pop-compiler-lkvm/x86_64/lib/libc.a(__toread.o)
                0x000000000042dbcc                __toread
 .text.__toread_needs_stdio_exit
                0x000000000042dc3a        0x5 0x1 /home/ashwin/pop-compiler-lkvm/x86_64/lib/libc.a(__toread.o)
                0x000000000042dc3a                __toread_needs_stdio_exit
 ** fill        0x000000000042dc3f        0x1
 .text          0x000000000042dc40        0x0 0x4 /home/ashwin/pop-compiler-lkvm/x86_64/lib/libc.a(__randname.o)
 .text.__randname
                0x000000000042dc40       0x61 0x1 /home/ashwin/pop-compiler-lkvm/x86_64/lib/libc.a(__randname.o)
                0x000000000042dc40                __randname
 ** fill        0x000000000042dca1        0x3
 .text          0x000000000042dca4        0x0 0x4 /home/ashwin/pop-compiler-lkvm/x86_64/lib/libc.a(__map_file.o)
 .text.__map_file
                0x000000000042dca4       0x86 0x1 /home/ashwin/pop-compiler-lkvm/x86_64/lib/libc.a(__map_file.o)
                0x000000000042dca4                __map_file
 ** fill        0x000000000042dd2a        0x2
 .text          0x000000000042dd2c        0x0 0x4 /home/ashwin/pop-compiler-lkvm/x86_64/lib/libc.a(__month_to_secs.o)
 .text.__month_to_secs
                0x000000000042dd2c       0x1c 0x1 /home/ashwin/pop-compiler-lkvm/x86_64/lib/libc.a(__month_to_secs.o)
                0x000000000042dd2c                __month_to_secs

.rodata         0x000000000042dd50     0x6d30
 ** merge constants
                0x000000000042dd50      0x310
 ** merge strings
                0x000000000042e060     0x3677
 .rodata        0x00000000004316e0      0x1c0 0x10 builtin-balloon.o
 .rodata        0x00000000004318a0      0x250 0x10 builtin-debug.o
 .rodata        0x0000000000431af0       0x64 0x10 builtin-help.o
                0x0000000000431b10                kvm_more_info_string
                0x0000000000431af0                kvm_usage_string
 .rodata        0x0000000000431b60      0x130 0x10 builtin-list.o
 .rodata        0x0000000000431c90      0x1f0 0x10 builtin-stat.o
 ** merge constants
                0x0000000000431e80       0x10
 .rodata        0x0000000000431e90      0x130 0x10 builtin-pause.o
 .rodata        0x0000000000431fc0      0x130 0x10 builtin-resume.o
 ** merge constants
                0x00000000004320f0       0x48
 .rodata        0x0000000000432140       0x50 0x10 builtin-run.o
 .rodata        0x0000000000432190       0xc0 0x10 builtin-setup.o
 .rodata        0x0000000000432250      0x130 0x10 builtin-stop.o
 .rodata        0x0000000000432380       0x68 0x8 kvm-cpu_common.o
 .rodata        0x00000000004323e8      0x198 0x8 hw/rtc.o
 .rodata        0x0000000000432580       0x80 0x8 hw/serial.o
 .rodata        0x0000000000432600       0x80 0x10 x86/kvm-cpu.o
 .rodata        0x0000000000432680       0x48 0x8 virtio/blk.o
 .rodata        0x00000000004326c8       0x78 0x8 virtio/net.o
 .rodata        0x0000000000432740       0xe0 0x8 virtio/pci.o
 .rodata        0x0000000000432820        0xc 0x1 ioeventfd.o
 .rodata        0x0000000000432830       0x80 0x8 util/parse-options.o
 .rodata        0x00000000004328b0      0x240 0x8 hw/i8042.o
 .rodata        0x0000000000432af0      0x3d8 0x10 virtio/9p.o
 .rodata        0x0000000000432ec8      0x2c8 0x8 virtio/mmio.o
 .rodata        0x0000000000433190      0x330 0x8 virtio/9p-pdu.o
 .rodata        0x00000000004334c0       0x58 0x8 x86/cpuid.o
 .rodata.sysconf
                0x0000000000433518       0x50 0x8 /home/ashwin/pop-compiler-lkvm/x86_64/lib/libc.a(sysconf.o)
 .rodata.src_conf_sysconf_c_sysconf_values
                0x0000000000433570      0x1f2 0x10 /home/ashwin/pop-compiler-lkvm/x86_64/lib/libc.a(sysconf.o)
 .rodata.src_env___libc_start_main__str_
                0x0000000000433762        0x1 0x1 /home/ashwin/pop-compiler-lkvm/x86_64/lib/libc.a(__libc_start_main.o)
                0x0000000000433762                src_env___libc_start_main__str_
 .rodata.src_env___libc_start_main___const___init_libc_pfd_
                0x0000000000433770       0x18 0x10 /home/ashwin/pop-compiler-lkvm/x86_64/lib/libc.a(__libc_start_main.o)
                0x0000000000433770                src_env___libc_start_main___const___init_libc_pfd_
 .rodata.src_env___libc_start_main__str_1__dev_null_
                0x0000000000433788        0xa 0x1 /home/ashwin/pop-compiler-lkvm/x86_64/lib/libc.a(__libc_start_main.o)
                0x0000000000433788                src_env___libc_start_main__str_1__dev_null_
 ** merge strings
                0x00000000004337a0       0x58
 .rodata.src_errno_strerror_c_errmsg
                0x0000000000433800      0x70c 0x10 /home/ashwin/pop-compiler-lkvm/x86_64/lib/libc.a(strerror.o)
 .rodata.src_malloc_malloc_c_bin_tab
                0x0000000000433f10       0x3c 0x10 /home/ashwin/pop-compiler-lkvm/x86_64/lib/libc.a(malloc.o)
 .rodata.src_malloc_popcorn_malloc_c_bin_tab
                0x0000000000433f50       0x3c 0x10 /home/ashwin/pop-compiler-lkvm/x86_64/lib/libc.a(popcorn_malloc.o)
 .rodata.src_misc_mntent__str___________
                0x0000000000433f8c        0xc 0x1 /home/ashwin/pop-compiler-lkvm/x86_64/lib/libc.a(mntent.o)
                0x0000000000433f8c                src_misc_mntent__str___________
 .rodata.src_misc_mntent__str_1___n__s_n__
                0x0000000000433f98       0x27 0x1 /home/ashwin/pop-compiler-lkvm/x86_64/lib/libc.a(mntent.o)
                0x0000000000433f98                src_misc_mntent__str_1___n__s_n__
 .rodata.src_misc_mntent__str_2__s__s__s__
                0x0000000000433fbf       0x13 0x1 /home/ashwin/pop-compiler-lkvm/x86_64/lib/libc.a(mntent.o)
                0x0000000000433fbf                src_misc_mntent__str_2__s__s__s__
 .rodata.src_misc_openpty__str__dev_ptmx_
                0x0000000000433fd2        0xa 0x1 /home/ashwin/pop-compiler-lkvm/x86_64/lib/libc.a(openpty.o)
                0x0000000000433fd2                src_misc_openpty__str__dev_ptmx_
 .rodata.src_misc_openpty__str_1__dev_pts__
                0x0000000000433fdc        0xc 0x1 /home/ashwin/pop-compiler-lkvm/x86_64/lib/libc.a(openpty.o)
                0x0000000000433fdc                src_misc_openpty__str_1__dev_pts__
 .rodata.src_mman_shm_open__str__dev_shm__
                0x0000000000433fe8        0xa 0x1 /home/ashwin/pop-compiler-lkvm/x86_64/lib/libc.a(shm_open.o)
                0x0000000000433fe8                src_mman_shm_open__str__dev_shm__
 .rodata.__inet_aton
                0x0000000000433ff8       0x28 0x8 /home/ashwin/pop-compiler-lkvm/x86_64/lib/libc.a(inet_aton.o)
 .rodata.src_signal_block_c_all_mask
                0x0000000000434020        0x8 0x8 /home/ashwin/pop-compiler-lkvm/x86_64/lib/libc.a(block.o)
 .rodata.src_signal_block_c_app_mask
                0x0000000000434028        0x8 0x8 /home/ashwin/pop-compiler-lkvm/x86_64/lib/libc.a(block.o)
 .rodata.src_stdio_fopen__str_rwa_
                0x0000000000434030        0x4 0x1 /home/ashwin/pop-compiler-lkvm/x86_64/lib/libc.a(fopen.o)
                0x0000000000434030                src_stdio_fopen__str_rwa_
 .rodata.stderr
                0x0000000000434038        0x8 0x8 /home/ashwin/pop-compiler-lkvm/x86_64/lib/libc.a(stderr.o)
                0x0000000000434038                stderr
 .rodata.stdout
                0x0000000000434040        0x8 0x8 /home/ashwin/pop-compiler-lkvm/x86_64/lib/libc.a(stdout.o)
                0x0000000000434040                stdout
 ** merge constants
                0x0000000000434048       0x2c
 .rodata.printf_core
                0x0000000000434078      0x170 0x8 /home/ashwin/pop-compiler-lkvm/x86_64/lib/libc.a(vfprintf.o)
 .rodata.pop_arg
                0x00000000004341e8       0x90 0x8 /home/ashwin/pop-compiler-lkvm/x86_64/lib/libc.a(vfprintf.o)
 .rodata.src_stdio_vfprintf__str______0X0x_
                0x0000000000434278        0xa 0x1 /home/ashwin/pop-compiler-lkvm/x86_64/lib/libc.a(vfprintf.o)
                0x0000000000434278                src_stdio_vfprintf__str______0X0x_
 .rodata.src_stdio_vfprintf__str_1__null__
                0x0000000000434282        0x7 0x1 /home/ashwin/pop-compiler-lkvm/x86_64/lib/libc.a(vfprintf.o)
                0x0000000000434282                src_stdio_vfprintf__str_1__null__
 .rodata.src_stdio_vfprintf_c_states
                0x0000000000434290      0x1d0 0x10 /home/ashwin/pop-compiler-lkvm/x86_64/lib/libc.a(vfprintf.o)
 .rodata.src_stdio_vfprintf__str_3__0X_0X_0X_
                0x0000000000434460       0x13 0x1 /home/ashwin/pop-compiler-lkvm/x86_64/lib/libc.a(vfprintf.o)
                0x0000000000434460                src_stdio_vfprintf__str_3__0X_0X_0X_
 .rodata.src_stdio_vfprintf__str_4_inf_
                0x0000000000434473        0x4 0x1 /home/ashwin/pop-compiler-lkvm/x86_64/lib/libc.a(vfprintf.o)
                0x0000000000434473                src_stdio_vfprintf__str_4_inf_
 .rodata.src_stdio_vfprintf__str_5_INF_
                0x0000000000434477        0x4 0x1 /home/ashwin/pop-compiler-lkvm/x86_64/lib/libc.a(vfprintf.o)
                0x0000000000434477                src_stdio_vfprintf__str_5_INF_
 .rodata.src_stdio_vfprintf__str_6_nan_
                0x000000000043447b        0x4 0x1 /home/ashwin/pop-compiler-lkvm/x86_64/lib/libc.a(vfprintf.o)
                0x000000000043447b                src_stdio_vfprintf__str_6_nan_
 .rodata.src_stdio_vfprintf__str_7_NAN_
                0x000000000043447f        0x4 0x1 /home/ashwin/pop-compiler-lkvm/x86_64/lib/libc.a(vfprintf.o)
                0x000000000043447f                src_stdio_vfprintf__str_7_NAN_
 .rodata.src_stdio_vfprintf__str_8___
                0x0000000000434483        0x2 0x1 /home/ashwin/pop-compiler-lkvm/x86_64/lib/libc.a(vfprintf.o)
                0x0000000000434483                src_stdio_vfprintf__str_8___
 .rodata.vfscanf
                0x0000000000434488      0x338 0x8 /home/ashwin/pop-compiler-lkvm/x86_64/lib/libc.a(vfscanf.o)
 ** merge constants
                0x00000000004347c0       0x20
 .rodata.src_internal_floatscan_switch_table___floatscan_
                0x00000000004347e0        0xc 0x4 /home/ashwin/pop-compiler-lkvm/x86_64/lib/libc.a(floatscan.o)
                0x00000000004347e0                src_internal_floatscan_switch_table___floatscan_
 .rodata.src_internal_floatscan_switch_table___floatscan_2_
                0x00000000004347ec        0xc 0x4 /home/ashwin/pop-compiler-lkvm/x86_64/lib/libc.a(floatscan.o)
                0x00000000004347ec                src_internal_floatscan_switch_table___floatscan_2_
 .rodata.src_internal_intscan_c_table
                0x0000000000434800      0x101 0x10 /home/ashwin/pop-compiler-lkvm/x86_64/lib/libc.a(intscan.o)
 .rodata.src_internal_intscan__str__________
                0x0000000000434901        0x9 0x1 /home/ashwin/pop-compiler-lkvm/x86_64/lib/libc.a(intscan.o)
                0x0000000000434901                src_internal_intscan__str__________
 .rodata.src_stdio___fdopen__str_rwa_
                0x000000000043490a        0x4 0x1 /home/ashwin/pop-compiler-lkvm/x86_64/lib/libc.a(__fdopen.o)
                0x000000000043490a                src_stdio___fdopen__str_rwa_
 .rodata.src_temp_mkostemps__str_XXXXXX_
                0x000000000043490e        0x7 0x1 /home/ashwin/pop-compiler-lkvm/x86_64/lib/libc.a(mkostemps.o)
                0x000000000043490e                src_temp_mkostemps__str_XXXXXX_
 .rodata.src_time___secs_to_tm_c___secs_to_tm_days_in_month
                0x0000000000434915        0xc 0x1 /home/ashwin/pop-compiler-lkvm/x86_64/lib/libc.a(__secs_to_tm.o)
 .rodata.__gmt  0x0000000000434921        0x4 0x1 /home/ashwin/pop-compiler-lkvm/x86_64/lib/libc.a(__tz.o)
                0x0000000000434921                __gmt
 .rodata.src_time___tz__str_
                0x0000000000434925        0x1 0x1 /home/ashwin/pop-compiler-lkvm/x86_64/lib/libc.a(__tz.o)
                0x0000000000434925                src_time___tz__str_
 .rodata.src_time___tz_c_do_tzset_search
                0x0000000000434930       0x36 0x10 /home/ashwin/pop-compiler-lkvm/x86_64/lib/libc.a(__tz.o)
 .rodata.src_time___tz__str_1_TZ_
                0x0000000000434966        0x3 0x1 /home/ashwin/pop-compiler-lkvm/x86_64/lib/libc.a(__tz.o)
                0x0000000000434966                src_time___tz__str_1_TZ_
 .rodata.src_time___tz__str_2__etc_local
                0x0000000000434969        0xf 0x1 /home/ashwin/pop-compiler-lkvm/x86_64/lib/libc.a(__tz.o)
                0x0000000000434969                src_time___tz__str_2__etc_local
 .rodata.src_time___tz__str_3_TZif_
                0x0000000000434978        0x5 0x1 /home/ashwin/pop-compiler-lkvm/x86_64/lib/libc.a(__tz.o)
                0x0000000000434978                src_time___tz__str_3_TZif_
 .rodata.__fsmu8
                0x0000000000434980       0xcc 0x10 /home/ashwin/pop-compiler-lkvm/x86_64/lib/libc.a(internal.o)
                0x0000000000434980                __fsmu8
 .rodata.src_time___month_to_secs_c___month_to_secs_secs_through_month
                0x0000000000434a50       0x30 0x10 /home/ashwin/pop-compiler-lkvm/x86_64/lib/libc.a(__month_to_secs.o)

.llvm_pcn_stackmaps
                0x0000000000434a80       0xe0
 .llvm_pcn_stackmaps
                0x0000000000434a80       0x50 0x8 /home/ashwin/pop-compiler-lkvm/x86_64/lib/libc.a(__libc_start_main.o)
 .llvm_pcn_stackmaps
                0x0000000000434ad0       0x90 0x8 /home/ashwin/pop-compiler-lkvm/x86_64/lib/libc.a(pthread_create.o)

.eh_frame       0x0000000000434b60     0x5b08
 ** eh_frame    0x0000000000434b60     0x5b08

.tbss           0x000000000043be90        0x8
 .tbss          0x000000000043be90        0x8 0x8 builtin-run.o
                0x0000000000000000                current_kvm_cpu

.init_array     0x000000000043be90      0x170
 .init_array    0x000000000043be90       0x10 0x8 kvm-cpu_common.o
 .init_array    0x000000000043bea0       0x10 0x8 disk/core.o
 .init_array    0x000000000043beb0       0x10 0x8 framebuffer.o
 .init_array    0x000000000043bec0       0x10 0x8 hw/rtc.o
 .init_array    0x000000000043bed0       0x10 0x8 hw/serial.o
 .init_array    0x000000000043bee0       0x10 0x8 ioport_common.o
 .init_array    0x000000000043bef0       0x10 0x8 kvm_common.o
 .init_array    0x000000000043bf00       0x10 0x8 pci_common.o
 .init_array    0x000000000043bf10       0x10 0x8 term.o
 .init_array    0x000000000043bf20       0x10 0x8 virtio/blk.o
 .init_array    0x000000000043bf30       0x10 0x8 virtio/scsi.o
 .init_array    0x000000000043bf40       0x10 0x8 virtio/console.o
 .init_array    0x000000000043bf50       0x10 0x8 virtio/net.o
 .init_array    0x000000000043bf60       0x10 0x8 virtio/rng.o
 .init_array    0x000000000043bf70       0x10 0x8 virtio/balloon.o
 .init_array    0x000000000043bf80       0x10 0x8 ioeventfd.o
 .init_array    0x000000000043bf90       0x10 0x8 kvm-ipc.o
 .init_array    0x000000000043bfa0       0x10 0x8 util/threadpool.o
 .init_array    0x000000000043bfb0       0x10 0x8 hw/pci-shmem.o
 .init_array    0x000000000043bfc0        0x8 0x8 hw/i8042.o
 .init_array    0x000000000043bfc8        0x8 0x8 virtio/9p.o
 .init_array    0x000000000043bfd0       0x10 0x8 x86/irq.o
 .init_array    0x000000000043bfe0       0x10 0x8 x86/mptable.o
 .init_array    0x000000000043bff0        0x8 0x8 /home/ashwin/pop-compiler-lkvm/x86_64/lib/libc.a(malloc.o)
 .init_array    0x000000000043bff8        0x8 0x8 /home/ashwin/pop-compiler-lkvm/x86_64/lib/libc.a(popcorn_malloc.o)

.data           0x000000000043c000    0xc9c58
 .data          0x000000000043c000        0x0 0x1 x86/bios/bios-rom.o
 .data          0x000000000043c000    0xc82a0 0x1 guest/guest_init.o
                0x00000000005042a0                _binary_guest_init_end
                0x000000000043c000                _binary_guest_init_start
 .data          0x00000000005042a0        0x4 0x4 builtin-debug.o
 .data          0x00000000005042b0      0x420 0x10 builtin-help.o
 .data          0x00000000005046d0       0x1c 0x1 kvm-cpu_common.o
 .data          0x00000000005046f0       0x31 0x10 disk/core.o
 .data          0x0000000000504728       0x22 0x8 framebuffer.o
 .data          0x0000000000504750       0x10 0x8 guest_compat.o
 .data          0x0000000000504760       0x44 0x8 hw/rtc.o
 .data          0x00000000005047b0      0x378 0x10 hw/serial.o
 .data          0x0000000000504b28       0x1a 0x1 ioport_common.o
 .data          0x0000000000504b42        0x1 0x1 irq_common.o
 .data          0x0000000000504b50       0xa4 0x10 kvm_common.o
                0x0000000000504b50                kvm_exit_reasons
 .data          0x0000000000504bf8       0x4c 0x8 pci_common.o
 .data          0x0000000000504c44       0x18 0x4 term.o
                0x0000000000504c44                term_escape_char
 .data          0x0000000000504c60       0xc4 0x10 virtio/blk.o
 .data          0x0000000000504d30       0xc4 0x10 virtio/scsi.o
 .data          0x0000000000504e00      0x258 0x10 virtio/console.o
 .data          0x0000000000505060       0x6c 0x10 virtio/net.o
 .data          0x00000000005050d0       0xc1 0x10 virtio/rng.o
 .data          0x00000000005051a0       0xb1 0x10 virtio/balloon.o
                0x00000000005051a0                bln_dev_virtio_ops
 .data          0x0000000000505258       0x18 0x8 virtio/pci.o
 .data          0x0000000000505270       0x20 0x8 disk/blk.o
 .data          0x0000000000505290       0x40 0x8 disk/qcow.o
 .data          0x00000000005052d0       0x60 0x8 disk/raw.o
                0x00000000005052d0                ro_ops
                0x00000000005052f0                ro_ops_nowrite
 .data          0x0000000000505330       0x30 0x10 ioeventfd.o
 .data          0x0000000000505360      0x1c0 0x10 kvm-cmd.o
                0x0000000000505360                kvm_commands
 .data          0x0000000000505520       0x1c 0x1 kvm-ipc.o
 .data          0x0000000000505540       0x48 0x10 util/threadpool.o
 .data          0x0000000000505590      0x160 0x10 hw/pci-shmem.o
 .data          0x00000000005056f0       0x22 0x8 hw/i8042.o
 .data          0x0000000000505720       0xa4 0x10 virtio/9p.o
                0x0000000000505720                p9_dev_virtio_ops
 .data          0x00000000005057c4        0x4 0x4 virtio/mmio.o
 .data          0x00000000005057d0       0xa0 0x10 x86/kvm.o
                0x00000000005057d0                kvm_req_ext
 .data          0x0000000000505870       0x78 0x8 x86/ioport.o
 .data          0x00000000005058e8       0x18 0x4 x86/irq.o
 .data          0x0000000000505900       0x1c 0x1 x86/mptable.o
 .data          0x0000000000505920      0x138 0x8 hw/vesa.o
 .data.src_stdio_stderr_c_f
                0x0000000000505a58       0xe8 0x8 /home/ashwin/pop-compiler-lkvm/x86_64/lib/libc.a(stderr.o)
 .data.__stderr_used
                0x0000000000505b40        0x8 0x8 /home/ashwin/pop-compiler-lkvm/x86_64/lib/libc.a(stderr.o)
                0x0000000000505b40                __stderr_used
 .data.src_stdio_stdout_c_f
                0x0000000000505b48       0xe8 0x8 /home/ashwin/pop-compiler-lkvm/x86_64/lib/libc.a(stdout.o)
 .data.__stdout_used
                0x0000000000505c30        0x8 0x8 /home/ashwin/pop-compiler-lkvm/x86_64/lib/libc.a(stdout.o)
                0x0000000000505c30                __stdout_used
 .data.__default_stacksize
                0x0000000000505c38        0x8 0x8 /home/ashwin/pop-compiler-lkvm/x86_64/lib/libc.a(pthread_create.o)
                0x0000000000505c38                __default_stacksize
 .data.__default_guardsize
                0x0000000000505c40        0x8 0x8 /home/ashwin/pop-compiler-lkvm/x86_64/lib/libc.a(pthread_create.o)
                0x0000000000505c40                __default_guardsize
 .data.src_time___tz_c_old_tz
                0x0000000000505c48        0x8 0x8 /home/ashwin/pop-compiler-lkvm/x86_64/lib/libc.a(__tz.o)
 .data.src_time___tz_c_old_tz_size
                0x0000000000505c50        0x8 0x8 /home/ashwin/pop-compiler-lkvm/x86_64/lib/libc.a(__tz.o)

.bss            0x0000000000506000    0x260ac
 .bss           0x0000000000506000        0x0 0x1 x86/bios/bios-rom.o
 .bss           0x0000000000506000       0x18 0x8 builtin-balloon.o
 .bss           0x0000000000506018       0x20 0x8 builtin-debug.o
 .bss           0x0000000000506038        0x2 0x1 builtin-list.o
 .bss           0x0000000000506040       0x10 0x8 builtin-stat.o
 .bss           0x0000000000506050       0x10 0x8 builtin-pause.o
 .bss           0x0000000000506060       0x10 0x8 builtin-resume.o
 .bss           0x0000000000506070     0x1830 0x10 builtin-run.o
                0x0000000000506070                do_debug_print
 .bss           0x00000000005078a0        0x8 0x8 builtin-setup.o
 .bss           0x00000000005078a8       0x10 0x8 builtin-stop.o
 .bss           0x00000000005078c0       0x30 0x10 devices.o
 .bss           0x00000000005078f0       0x40 0x8 kvm-cpu_common.o
 .bss           0x0000000000507930       0x40 0x8 disk/core.o
 .bss           0x0000000000507970       0x40 0x8 framebuffer.o
 .bss           0x00000000005079b0       0x30 0x8 guest_compat.o
 .bss           0x00000000005079e0       0xc1 0x8 hw/rtc.o
 .bss           0x0000000000507aa8       0x48 0x8 hw/serial.o
 .bss           0x0000000000507af0       0x72 0x8 ioport_common.o
                0x0000000000507af0                ioport_mutex
 .bss           0x0000000000507b64        0x4 0x4 x86/kvm-cpu.o
 .bss           0x0000000000507b70     0x1070 0x10 kvm_common.o
 .bss           0x0000000000508be0        0x8 0x8 mmio_common.o
 .bss           0x0000000000508be8       0x44 0x8 pci_common.o
 .bss           0x0000000000508c30       0x88 0x8 term.o
                0x0000000000508c30                term_got_escape
 .bss           0x0000000000508cb8       0x40 0x8 virtio/blk.o
 .bss           0x0000000000508cf8       0x40 0x8 virtio/scsi.o
 .bss           0x0000000000508d38       0x40 0x8 virtio/console.o
 .bss           0x0000000000508d80       0x98 0x10 virtio/net.o
 .bss           0x0000000000508e18       0x40 0x8 virtio/rng.o
 .bss           0x0000000000508e58      0x278 0x8 virtio/balloon.o
 .bss           0x00000000005090d0      0x140 0x10 ioeventfd.o
 .bss           0x0000000000509210       0xa0 0x10 util/init.o
 .bss           0x00000000005092b0      0x118 0x10 kvm-ipc.o
 .bss           0x00000000005093c8       0xd8 0x8 util/threadpool.o
 .bss           0x00000000005094a0       0x88 0x10 hw/pci-shmem.o
 .bss           0x0000000000509528      0x150 0x8 hw/i8042.o
 .bss           0x0000000000509678       0x20 0x8 virtio/9p.o
 .bss           0x0000000000509698       0x40 0x8 x86/irq.o
 .bss           0x00000000005096d8       0x40 0x8 x86/mptable.o
 .bss           0x0000000000509718       0x58 0x8 hw/vesa.o
 .bss.__popcorn_stack_base
                0x0000000000509770        0x8 0x8 /home/ashwin/pop-compiler-lkvm/x86_64/lib/libc.a(__libc_start_main.o)
                0x0000000000509770                __popcorn_stack_base
 .bss.src_exit_atexit_c_lock
                0x0000000000509778        0x8 0x4 /home/ashwin/pop-compiler-lkvm/x86_64/lib/libc.a(atexit.o)
 .bss.src_exit_atexit_c_head
                0x0000000000509780        0x8 0x8 /home/ashwin/pop-compiler-lkvm/x86_64/lib/libc.a(atexit.o)
 .bss.src_exit_atexit_c_slot
                0x0000000000509788        0x4 0x4 /home/ashwin/pop-compiler-lkvm/x86_64/lib/libc.a(atexit.o)
 .bss.src_exit_atexit_c_builtin
                0x0000000000509790      0x208 0x8 /home/ashwin/pop-compiler-lkvm/x86_64/lib/libc.a(atexit.o)
 .bss.__progname
                0x0000000000509998        0x8 0x8 /home/ashwin/pop-compiler-lkvm/x86_64/lib/libc.a(libc.o)
                0x0000000000509998                __progname
                0x0000000000509998                program_invocation_short_name
 .bss.__progname_full
                0x00000000005099a0        0x8 0x8 /home/ashwin/pop-compiler-lkvm/x86_64/lib/libc.a(libc.o)
                0x00000000005099a0                __progname_full
                0x00000000005099a0                program_invocation_name
 .bss.src_malloc_lite_malloc_c___simple_malloc_cur
                0x00000000005099a8        0x8 0x8 /home/ashwin/pop-compiler-lkvm/x86_64/lib/libc.a(lite_malloc.o)
 .bss.src_malloc_lite_malloc_c___simple_malloc_end
                0x00000000005099b0        0x8 0x8 /home/ashwin/pop-compiler-lkvm/x86_64/lib/libc.a(lite_malloc.o)
 .bss.src_malloc_lite_malloc_c___simple_malloc_lock
                0x00000000005099b8        0x8 0x4 /home/ashwin/pop-compiler-lkvm/x86_64/lib/libc.a(lite_malloc.o)
 .bss.src_malloc_malloc_c_mal
                0x000000000050a000     0x1000 0x1000 /home/ashwin/pop-compiler-lkvm/x86_64/lib/libc.a(malloc.o)
 .bss.src_malloc_malloc_c_expand_heap_heap_lock
                0x000000000050b000        0x8 0x4 /home/ashwin/pop-compiler-lkvm/x86_64/lib/libc.a(malloc.o)
 .bss.src_malloc_malloc_c_expand_heap_end
                0x000000000050b008        0x8 0x8 /home/ashwin/pop-compiler-lkvm/x86_64/lib/libc.a(malloc.o)
 .bss.src_malloc_popcorn_malloc_c_expand_heap_heap_lock
                0x000000000050b010      0x100 0x10 /home/ashwin/pop-compiler-lkvm/x86_64/lib/libc.a(popcorn_malloc.o)
 .bss.src_malloc_popcorn_malloc_c_expand_heap_end
                0x000000000050b110      0x100 0x10 /home/ashwin/pop-compiler-lkvm/x86_64/lib/libc.a(popcorn_malloc.o)
 .bss.src_misc_mntent_c_internal_buf
                0x000000000050b210        0x8 0x8 /home/ashwin/pop-compiler-lkvm/x86_64/lib/libc.a(mntent.o)
 .bss.src_misc_mntent_c_internal_bufsize
                0x000000000050b218        0x8 0x8 /home/ashwin/pop-compiler-lkvm/x86_64/lib/libc.a(mntent.o)
 .bss.src_misc_mntent_c_getmntent_mnt
                0x000000000050b220       0x28 0x8 /home/ashwin/pop-compiler-lkvm/x86_64/lib/libc.a(mntent.o)
 .bss.src_stdio_fflush_c_dummy
                0x000000000050b248        0x8 0x8 /home/ashwin/pop-compiler-lkvm/x86_64/lib/libc.a(fflush.o)
 .bss.src_stdio_ofl_c_ofl_lock
                0x000000000050b250        0x8 0x4 /home/ashwin/pop-compiler-lkvm/x86_64/lib/libc.a(ofl.o)
 .bss.src_stdio_ofl_c_ofl_head
                0x000000000050b258        0x8 0x8 /home/ashwin/pop-compiler-lkvm/x86_64/lib/libc.a(ofl.o)
 .bss.src_stdio_stderr_c_buf
                0x000000000050b260        0x8 0x1 /home/ashwin/pop-compiler-lkvm/x86_64/lib/libc.a(stderr.o)
 .bss.src_stdio_stdout_c_buf
                0x000000000050b270      0x408 0x10 /home/ashwin/pop-compiler-lkvm/x86_64/lib/libc.a(stdout.o)
 .bss.src_string_strtok_c_strtok_p
                0x000000000050b678        0x8 0x8 /home/ashwin/pop-compiler-lkvm/x86_64/lib/libc.a(strtok.o)
 .bss.src_thread_pthread_create_c_dummy
                0x000000000050b680        0x8 0x8 /home/ashwin/pop-compiler-lkvm/x86_64/lib/libc.a(pthread_create.o)
                0x000000000050b680                __pthread_tsd_size
 .bss.src_thread_pthread_create_c_dummy_tsd
                0x000000000050b688        0x8 0x8 /home/ashwin/pop-compiler-lkvm/x86_64/lib/libc.a(pthread_create.o)
                0x000000000050b688                __pthread_tsd_main
 .bss.__block_new_threads
                0x000000000050b690        0x4 0x4 /home/ashwin/pop-compiler-lkvm/x86_64/lib/libc.a(pthread_create.o)
                0x000000000050b690                __block_new_threads
 .bss.src_thread_pthread_create_c_dummy_file
                0x000000000050b698        0x8 0x8 /home/ashwin/pop-compiler-lkvm/x86_64/lib/libc.a(pthread_create.o)
                0x000000000050b698                __stdin_used
 .bss.src_thread_vmlock_c_vmlock
                0x000000000050b6a0        0x8 0x4 /home/ashwin/pop-compiler-lkvm/x86_64/lib/libc.a(vmlock.o)
 .bss.src_time_gmtime_c_gmtime_tm
                0x000000000050b6a8       0x38 0x8 /home/ashwin/pop-compiler-lkvm/x86_64/lib/libc.a(gmtime.o)
 .bss.__environ
                0x000000000050b6e0        0x8 0x8 /home/ashwin/pop-compiler-lkvm/x86_64/lib/libc.a(__environ.o)
                0x000000000050b6e0                ___environ
                0x000000000050b6e0                __environ
                0x000000000050b6e0                _environ
                0x000000000050b6e0                environ
 .bss.src_env___init_tls_c_main_tls
                0x000000000050b6e8       0x30 0x8 /home/ashwin/pop-compiler-lkvm/x86_64/lib/libc.a(__init_tls.o)
 .bss.src_env___init_tls_c_builtin_tls
                0x000000000050b720      0x1a8 0x10 /home/ashwin/pop-compiler-lkvm/x86_64/lib/libc.a(__init_tls.o)
 .bss.src_malloc_expand_heap_c___expand_heap_brk
                0x000000000050b8c8        0x8 0x8 /home/ashwin/pop-compiler-lkvm/x86_64/lib/libc.a(expand_heap.o)
 .bss.src_malloc_expand_heap_c___expand_heap_mmap_step
                0x000000000050b8d0        0x4 0x4 /home/ashwin/pop-compiler-lkvm/x86_64/lib/libc.a(expand_heap.o)
 .bss.src_malloc_expand_heap_c___expand_heap_node_node_arenas
                0x000000000050b8e0      0x100 0x10 /home/ashwin/pop-compiler-lkvm/x86_64/lib/libc.a(expand_heap.o)
 .bss.src_malloc_expand_heap_c___expand_heap_node_node_sizes
                0x000000000050b9e0      0x100 0x10 /home/ashwin/pop-compiler-lkvm/x86_64/lib/libc.a(expand_heap.o)
 .bss.src_malloc_expand_heap_c_arena_start
                0x000000000050bae0        0x8 0x8 /home/ashwin/pop-compiler-lkvm/x86_64/lib/libc.a(expand_heap.o)
 .bss.src_malloc_expand_heap_c_set_arena_start_lock
                0x000000000050bae8        0x8 0x4 /home/ashwin/pop-compiler-lkvm/x86_64/lib/libc.a(expand_heap.o)
 .bss.src_multibyte_mbrtowc_c_mbrtowc_internal_state
                0x000000000050baf0        0x4 0x4 /home/ashwin/pop-compiler-lkvm/x86_64/lib/libc.a(mbrtowc.o)
 .bss.src_signal_sigaction_c_handler_set
                0x000000000050baf8        0x8 0x8 /home/ashwin/pop-compiler-lkvm/x86_64/lib/libc.a(sigaction.o)
 .bss.src_signal_sigaction_c_unmask_done
                0x000000000050bb00        0x1 0x4 /home/ashwin/pop-compiler-lkvm/x86_64/lib/libc.a(sigaction.o)
 .bss.__timezone
                0x000000000050bb08        0x8 0x8 /home/ashwin/pop-compiler-lkvm/x86_64/lib/libc.a(__tz.o)
                0x000000000050bb08                __timezone
                0x000000000050bb08                timezone
 .bss.__daylight
                0x000000000050bb10        0x4 0x4 /home/ashwin/pop-compiler-lkvm/x86_64/lib/libc.a(__tz.o)
                0x000000000050bb10                __daylight
                0x000000000050bb10                daylight
 .bss.__tzname  0x000000000050bb20       0x10 0x10 /home/ashwin/pop-compiler-lkvm/x86_64/lib/libc.a(__tz.o)
                0x000000000050bb20                __tzname
                0x000000000050bb20                tzname
 .bss.src_time___tz_c_lock
                0x000000000050bb30        0x8 0x4 /home/ashwin/pop-compiler-lkvm/x86_64/lib/libc.a(__tz.o)
 .bss.src_time___tz_c_zi
                0x000000000050bb38        0x8 0x8 /home/ashwin/pop-compiler-lkvm/x86_64/lib/libc.a(__tz.o)
 .bss.src_time___tz_c_types
                0x000000000050bb40        0x8 0x8 /home/ashwin/pop-compiler-lkvm/x86_64/lib/libc.a(__tz.o)
 .bss.src_time___tz_c_abbrevs
                0x000000000050bb48        0x8 0x8 /home/ashwin/pop-compiler-lkvm/x86_64/lib/libc.a(__tz.o)
 .bss.src_time___tz_c_r0
                0x000000000050bb50       0x14 0x10 /home/ashwin/pop-compiler-lkvm/x86_64/lib/libc.a(__tz.o)
 .bss.src_time___tz_c_r1
                0x000000000050bb70       0x14 0x10 /home/ashwin/pop-compiler-lkvm/x86_64/lib/libc.a(__tz.o)
 .bss.src_time___tz_c_dst_off
                0x000000000050bb84        0x4 0x4 /home/ashwin/pop-compiler-lkvm/x86_64/lib/libc.a(__tz.o)
 .bss.src_time___tz_c_abbrevs_end
                0x000000000050bb88        0x8 0x8 /home/ashwin/pop-compiler-lkvm/x86_64/lib/libc.a(__tz.o)
 .bss.src_time___tz_c_map_size
                0x000000000050bb90        0x8 0x8 /home/ashwin/pop-compiler-lkvm/x86_64/lib/libc.a(__tz.o)
 .bss.src_time___tz_c_trans
                0x000000000050bb98        0x8 0x8 /home/ashwin/pop-compiler-lkvm/x86_64/lib/libc.a(__tz.o)
 .bss.src_time___tz_c_index
                0x000000000050bba0        0x8 0x8 /home/ashwin/pop-compiler-lkvm/x86_64/lib/libc.a(__tz.o)
 .bss.src_time___tz_c_std_name
                0x000000000050bba8        0x7 0x1 /home/ashwin/pop-compiler-lkvm/x86_64/lib/libc.a(__tz.o)
 .bss.src_time___tz_c_dst_name
                0x000000000050bbaf        0x7 0x1 /home/ashwin/pop-compiler-lkvm/x86_64/lib/libc.a(__tz.o)
 .bss.src_time___tz_c_old_tz_buf
                0x000000000050bbc0       0x20 0x10 /home/ashwin/pop-compiler-lkvm/x86_64/lib/libc.a(__tz.o)
 .bss.src_stdio___stdio_exit_c_dummy_file
                0x000000000050bbe0        0x8 0x8 /home/ashwin/pop-compiler-lkvm/x86_64/lib/libc.a(__stdio_exit.o)
 ** common      0x000000000050c000    0x200ac

.debug_str      0x0000000000000000     0xb33f
 ** merge strings
                0x0000000000000000     0xb33f

.debug_loc      0x0000000000000000    0x57b89
 .debug_loc     0x0000000000000000      0x32b 0x1 x86/bios.o
 .debug_loc     0x000000000000032b      0x144 0x1 builtin-balloon.o
 .debug_loc     0x000000000000046f      0x209 0x1 builtin-debug.o
 .debug_loc     0x0000000000000678      0x2ae 0x1 builtin-help.o
 .debug_loc     0x0000000000000926      0x3e2 0x1 builtin-list.o
 .debug_loc     0x0000000000000d08      0x415 0x1 builtin-stat.o
 .debug_loc     0x000000000000111d      0x2f1 0x1 builtin-pause.o
 .debug_loc     0x000000000000140e      0x2f1 0x1 builtin-resume.o
 .debug_loc     0x00000000000016ff      0xb0f 0x1 builtin-run.o
 .debug_loc     0x000000000000220e      0x644 0x1 builtin-setup.o
 .debug_loc     0x0000000000002852      0x209 0x1 builtin-stop.o
 .debug_loc     0x0000000000002a5b       0x69 0x1 builtin-version.o
 .debug_loc     0x0000000000002ac4      0x2d8 0x1 devices.o
 .debug_loc     0x0000000000002d9c      0x761 0x1 kvm-cpu_common.o
 .debug_loc     0x00000000000034fd      0xbe9 0x1 disk/core.o
 .debug_loc     0x00000000000040e6      0x155 0x1 framebuffer.o
 .debug_loc     0x000000000000423b      0x2c8 0x1 guest_compat.o
 .debug_loc     0x0000000000004503      0x384 0x1 hw/rtc.o
 .debug_loc     0x0000000000004887      0xb4e 0x1 hw/serial.o
 .debug_loc     0x00000000000053d5      0xa0c 0x1 ioport_common.o
 .debug_loc     0x0000000000005de1     0x10bf 0x1 x86/kvm-cpu.o
 .debug_loc     0x0000000000006ea0      0xf15 0x1 kvm_common.o
 .debug_loc     0x0000000000007db5       0xb2 0x1 main.o
 .debug_loc     0x0000000000007e67      0x646 0x1 mmio_common.o
 .debug_loc     0x00000000000084ad     0x150d 0x1 pci_common.o
 .debug_loc     0x00000000000099ba      0x8af 0x1 term.o
 .debug_loc     0x000000000000a269      0xa90 0x1 virtio/blk.o
 .debug_loc     0x000000000000acf9      0xc41 0x1 virtio/scsi.o
 .debug_loc     0x000000000000b93a      0x745 0x1 virtio/console.o
 .debug_loc     0x000000000000c07f      0x9e6 0x1 virtio/core.o
 .debug_loc     0x000000000000ca65     0x2940 0x1 virtio/net.o
 .debug_loc     0x000000000000f3a5      0x82e 0x1 virtio/rng.o
 .debug_loc     0x000000000000fbd3      0xac8 0x1 virtio/balloon.o
 .debug_loc     0x000000000001069b     0x18d2 0x1 virtio/pci.o
 .debug_loc     0x0000000000011f6d      0x230 0x1 disk/blk.o
 .debug_loc     0x000000000001219d     0x5a39 0x1 disk/qcow.o
 .debug_loc     0x0000000000017bd6      0x924 0x1 disk/raw.o
 .debug_loc     0x00000000000184fa      0x572 0x1 ioeventfd.o
 .debug_loc     0x0000000000018a6c      0x876 0x1 net/uip/core.o
 .debug_loc     0x00000000000192e2       0xc2 0x1 net/uip/arp.o
 .debug_loc     0x00000000000193a4       0xc2 0x1 net/uip/icmp.o
 .debug_loc     0x0000000000019466       0xdb 0x1 net/uip/ipv4.o
 .debug_loc     0x0000000000019541      0xd24 0x1 net/uip/tcp.o
 .debug_loc     0x000000000001a265      0xa37 0x1 net/uip/udp.o
 .debug_loc     0x000000000001ac9c      0x479 0x1 net/uip/buf.o
 .debug_loc     0x000000000001b115     0x100a 0x1 net/uip/csum.o
 .debug_loc     0x000000000001c11f      0x926 0x1 net/uip/dhcp.o
 .debug_loc     0x000000000001ca45      0x357 0x1 kvm-cmd.o
 .debug_loc     0x000000000001cd9c      0x247 0x1 util/init.o
 .debug_loc     0x000000000001cfe3      0x590 0x1 util/iovec.o
 .debug_loc     0x000000000001d573     0x3538 0x1 util/rbtree.o
 .debug_loc     0x0000000000020aab     0x1575 0x1 kvm-ipc.o
 .debug_loc     0x0000000000022020     0x2265 0x1 util/read-write.o
 .debug_loc     0x0000000000024285     0x16c8 0x1 util/parse-options.o
 .debug_loc     0x000000000002594d      0x5ac 0x1 util/threadpool.o
 .debug_loc     0x0000000000025ef9      0x421 0x1 util/rbtree-interval.o
 .debug_loc     0x000000000002631a      0x2ab 0x1 util/strbuf.o
 .debug_loc     0x00000000000265c5      0x59c 0x1 util/util.o
 .debug_loc     0x0000000000026b61      0xa9e 0x1 hw/pci-shmem.o
 .debug_loc     0x00000000000275ff     0x13ec 0x1 hw/i8042.o
 .debug_loc     0x00000000000289eb     0x5ea6 0x1 virtio/9p.o
 .debug_loc     0x000000000002e891       0xdb 0x1 builtin-sandbox.o
 .debug_loc     0x000000000002e96c     0x1262 0x1 virtio/mmio.o
 .debug_loc     0x000000000002fbce     0x237c 0x1 virtio/9p-pdu.o
 .debug_loc     0x0000000000031f4a      0xc3a 0x1 x86/kvm.o
 .debug_loc     0x0000000000032b84      0x159 0x1 x86/boot.o
 .debug_loc     0x0000000000032cdd      0x103 0x1 x86/cpuid.o
 .debug_loc     0x0000000000032de0      0x100 0x1 x86/interrupt.o
 .debug_loc     0x0000000000032ee0      0x108 0x1 x86/ioport.o
 .debug_loc     0x0000000000032fe8      0x6c7 0x1 x86/irq.o
 .debug_loc     0x00000000000336af      0x6eb 0x1 x86/mptable.o
 .debug_loc     0x0000000000033d9a       0xeb 0x1 hw/vesa.o
 .debug_loc     0x0000000000033e85       0x69 0x1 /home/ashwin/pop-compiler-lkvm/x86_64/lib/crt1.o
 .debug_loc     0x0000000000033eee      0x21c 0x1 /home/ashwin/pop-compiler-lkvm/x86_64/lib/libc.a(sysconf.o)
 .debug_loc     0x000000000003410a       0x59 0x1 /home/ashwin/pop-compiler-lkvm/x86_64/lib/libc.a(closedir.o)
 .debug_loc     0x0000000000034163       0xb1 0x1 /home/ashwin/pop-compiler-lkvm/x86_64/lib/libc.a(opendir.o)
 .debug_loc     0x0000000000034214      0x157 0x1 /home/ashwin/pop-compiler-lkvm/x86_64/lib/libc.a(readdir.o)
 .debug_loc     0x000000000003436b      0x10b 0x1 /home/ashwin/pop-compiler-lkvm/x86_64/lib/libc.a(readdir_r.o)
 .debug_loc     0x0000000000034476       0x7f 0x1 /home/ashwin/pop-compiler-lkvm/x86_64/lib/libc.a(seekdir.o)
 .debug_loc     0x00000000000344f5      0x391 0x1 /home/ashwin/pop-compiler-lkvm/x86_64/lib/libc.a(__libc_start_main.o)
 .debug_loc     0x0000000000034886       0x7f 0x1 /home/ashwin/pop-compiler-lkvm/x86_64/lib/libc.a(getenv.o)
 .debug_loc     0x0000000000034905       0x23 0x1 /home/ashwin/pop-compiler-lkvm/x86_64/lib/libc.a(__errno_location.o)
 .debug_loc     0x0000000000034928      0x16c 0x1 /home/ashwin/pop-compiler-lkvm/x86_64/lib/libc.a(strerror.o)
 .debug_loc     0x0000000000034a94      0x154 0x1 /home/ashwin/pop-compiler-lkvm/x86_64/lib/libc.a(atexit.o)
 .debug_loc     0x0000000000034be8       0x6c 0x1 /home/ashwin/pop-compiler-lkvm/x86_64/lib/libc.a(exit.o)
 .debug_loc     0x0000000000034c54      0x773 0x1 /home/ashwin/pop-compiler-lkvm/x86_64/lib/libc.a(fcntl.o)
 .debug_loc     0x00000000000353c7      0x146 0x1 /home/ashwin/pop-compiler-lkvm/x86_64/lib/libc.a(open.o)
 .debug_loc     0x000000000003550d       0x36 0x1 /home/ashwin/pop-compiler-lkvm/x86_64/lib/libc.a(syscall_ret.o)
 .debug_loc     0x0000000000035543      0x5b6 0x1 /home/ashwin/pop-compiler-lkvm/x86_64/lib/libc.a(epoll.o)
 .debug_loc     0x0000000000035af9      0x1a7 0x1 /home/ashwin/pop-compiler-lkvm/x86_64/lib/libc.a(eventfd.o)
 .debug_loc     0x0000000000035ca0      0x173 0x1 /home/ashwin/pop-compiler-lkvm/x86_64/lib/libc.a(prctl.o)
 .debug_loc     0x0000000000035e13       0x69 0x1 /home/ashwin/pop-compiler-lkvm/x86_64/lib/libc.a(sysinfo.o)
 .debug_loc     0x0000000000035e7c       0xc2 0x1 /home/ashwin/pop-compiler-lkvm/x86_64/lib/libc.a(__lctrans.o)
 .debug_loc     0x0000000000035f3e      0x21f 0x1 /home/ashwin/pop-compiler-lkvm/x86_64/lib/libc.a(calloc.o)
 .debug_loc     0x000000000003615d      0x1be 0x1 /home/ashwin/pop-compiler-lkvm/x86_64/lib/libc.a(lite_malloc.o)
 .debug_loc     0x000000000003631b     0x3204 0x1 /home/ashwin/pop-compiler-lkvm/x86_64/lib/libc.a(malloc.o)
 .debug_loc     0x000000000003951f     0x33c1 0x1 /home/ashwin/pop-compiler-lkvm/x86_64/lib/libc.a(popcorn_malloc.o)
 .debug_loc     0x000000000003c8e0      0x20c 0x1 /home/ashwin/pop-compiler-lkvm/x86_64/lib/libc.a(getrlimit.o)
 .debug_loc     0x000000000003caec       0xd2 0x1 /home/ashwin/pop-compiler-lkvm/x86_64/lib/libc.a(ioctl.o)
 .debug_loc     0x000000000003cbbe      0x286 0x1 /home/ashwin/pop-compiler-lkvm/x86_64/lib/libc.a(mntent.o)
 .debug_loc     0x000000000003ce44      0x2c0 0x1 /home/ashwin/pop-compiler-lkvm/x86_64/lib/libc.a(openpty.o)
 .debug_loc     0x000000000003d104      0x2cf 0x1 /home/ashwin/pop-compiler-lkvm/x86_64/lib/libc.a(realpath.o)
 .debug_loc     0x000000000003d3d3       0x69 0x1 /home/ashwin/pop-compiler-lkvm/x86_64/lib/libc.a(uname.o)
 .debug_loc     0x000000000003d43c       0xf5 0x1 /home/ashwin/pop-compiler-lkvm/x86_64/lib/libc.a(madvise.o)
 .debug_loc     0x000000000003d531      0x3ce 0x1 /home/ashwin/pop-compiler-lkvm/x86_64/lib/libc.a(mmap.o)
 .debug_loc     0x000000000003d8ff      0x13b 0x1 /home/ashwin/pop-compiler-lkvm/x86_64/lib/libc.a(mprotect.o)
 .debug_loc     0x000000000003da3a      0x215 0x1 /home/ashwin/pop-compiler-lkvm/x86_64/lib/libc.a(mremap.o)
 .debug_loc     0x000000000003dc4f       0xfb 0x1 /home/ashwin/pop-compiler-lkvm/x86_64/lib/libc.a(munmap.o)
 .debug_loc     0x000000000003dd4a      0x246 0x1 /home/ashwin/pop-compiler-lkvm/x86_64/lib/libc.a(shm_open.o)
 .debug_loc     0x000000000003df90       0x8f 0x1 /home/ashwin/pop-compiler-lkvm/x86_64/lib/libc.a(accept.o)
 .debug_loc     0x000000000003e01f       0xf5 0x1 /home/ashwin/pop-compiler-lkvm/x86_64/lib/libc.a(bind.o)
 .debug_loc     0x000000000003e114       0x8f 0x1 /home/ashwin/pop-compiler-lkvm/x86_64/lib/libc.a(connect.o)
 .debug_loc     0x000000000003e1a3       0x6c 0x1 /home/ashwin/pop-compiler-lkvm/x86_64/lib/libc.a(htonl.o)
 .debug_loc     0x000000000003e20f       0x36 0x1 /home/ashwin/pop-compiler-lkvm/x86_64/lib/libc.a(htons.o)
 .debug_loc     0x000000000003e245       0x23 0x1 /home/ashwin/pop-compiler-lkvm/x86_64/lib/libc.a(inet_addr.o)
 .debug_loc     0x000000000003e268      0x197 0x1 /home/ashwin/pop-compiler-lkvm/x86_64/lib/libc.a(inet_aton.o)
 .debug_loc     0x000000000003e3ff       0xaf 0x1 /home/ashwin/pop-compiler-lkvm/x86_64/lib/libc.a(listen.o)
 .debug_loc     0x000000000003e4ae       0x6c 0x1 /home/ashwin/pop-compiler-lkvm/x86_64/lib/libc.a(ntohl.o)
 .debug_loc     0x000000000003e51a       0x36 0x1 /home/ashwin/pop-compiler-lkvm/x86_64/lib/libc.a(ntohs.o)
 .debug_loc     0x000000000003e550      0x131 0x1 /home/ashwin/pop-compiler-lkvm/x86_64/lib/libc.a(recvfrom.o)
 .debug_loc     0x000000000003e681      0x131 0x1 /home/ashwin/pop-compiler-lkvm/x86_64/lib/libc.a(sendto.o)
 .debug_loc     0x000000000003e7b2       0xaf 0x1 /home/ashwin/pop-compiler-lkvm/x86_64/lib/libc.a(shutdown.o)
 .debug_loc     0x000000000003e861      0x373 0x1 /home/ashwin/pop-compiler-lkvm/x86_64/lib/libc.a(socket.o)
 .debug_loc     0x000000000003ebd4      0x149 0x1 /home/ashwin/pop-compiler-lkvm/x86_64/lib/libc.a(execl.o)
 .debug_loc     0x000000000003ed1d       0x46 0x1 /home/ashwin/pop-compiler-lkvm/x86_64/lib/libc.a(execv.o)
 .debug_loc     0x000000000003ed63       0xf5 0x1 /home/ashwin/pop-compiler-lkvm/x86_64/lib/libc.a(execve.o)
 .debug_loc     0x000000000003ee58       0xd5 0x1 /home/ashwin/pop-compiler-lkvm/x86_64/lib/libc.a(fork.o)
 .debug_loc     0x000000000003ef2d       0x8f 0x1 /home/ashwin/pop-compiler-lkvm/x86_64/lib/libc.a(waitpid.o)
 .debug_loc     0x000000000003efbc       0xa2 0x1 /home/ashwin/pop-compiler-lkvm/x86_64/lib/libc.a(poll.o)
 .debug_loc     0x000000000003f05e       0xfb 0x1 /home/ashwin/pop-compiler-lkvm/x86_64/lib/libc.a(select.o)
 .debug_loc     0x000000000003f159       0xe8 0x1 /home/ashwin/pop-compiler-lkvm/x86_64/lib/libc.a(block.o)
 .debug_loc     0x000000000003f241       0xe5 0x1 /home/ashwin/pop-compiler-lkvm/x86_64/lib/libc.a(raise.o)
 .debug_loc     0x000000000003f326       0x7c 0x1 /home/ashwin/pop-compiler-lkvm/x86_64/lib/libc.a(sigaddset.o)
 .debug_loc     0x000000000003f3a2       0xc8 0x1 /home/ashwin/pop-compiler-lkvm/x86_64/lib/libc.a(signal.o)
 .debug_loc     0x000000000003f46a       0xaf 0x1 /home/ashwin/pop-compiler-lkvm/x86_64/lib/libc.a(chmod.o)
 .debug_loc     0x000000000003f519      0x322 0x1 /home/ashwin/pop-compiler-lkvm/x86_64/lib/libc.a(fstat.o)
 .debug_loc     0x000000000003f83b       0xf9 0x1 /home/ashwin/pop-compiler-lkvm/x86_64/lib/libc.a(lstat.o)
 .debug_loc     0x000000000003f934       0xaf 0x1 /home/ashwin/pop-compiler-lkvm/x86_64/lib/libc.a(mkdir.o)
 .debug_loc     0x000000000003f9e3       0xf5 0x1 /home/ashwin/pop-compiler-lkvm/x86_64/lib/libc.a(mknod.o)
 .debug_loc     0x000000000003fad8      0x109 0x1 /home/ashwin/pop-compiler-lkvm/x86_64/lib/libc.a(stat.o)
 .debug_loc     0x000000000003fbe1      0x56a 0x1 /home/ashwin/pop-compiler-lkvm/x86_64/lib/libc.a(statvfs.o)
 .debug_loc     0x000000000004014b      0x369 0x1 /home/ashwin/pop-compiler-lkvm/x86_64/lib/libc.a(utimensat.o)
 .debug_loc     0x00000000000404b4       0x69 0x1 /home/ashwin/pop-compiler-lkvm/x86_64/lib/libc.a(dprintf.o)
 .debug_loc     0x000000000004051d       0xb2 0x1 /home/ashwin/pop-compiler-lkvm/x86_64/lib/libc.a(fclose.o)
 .debug_loc     0x00000000000405cf       0x6c 0x1 /home/ashwin/pop-compiler-lkvm/x86_64/lib/libc.a(feof.o)
 .debug_loc     0x000000000004063b       0x6c 0x1 /home/ashwin/pop-compiler-lkvm/x86_64/lib/libc.a(ferror.o)
 .debug_loc     0x00000000000406a7      0x111 0x1 /home/ashwin/pop-compiler-lkvm/x86_64/lib/libc.a(fflush.o)
 .debug_loc     0x00000000000407b8      0x2f9 0x1 /home/ashwin/pop-compiler-lkvm/x86_64/lib/libc.a(fgets.o)
 .debug_loc     0x0000000000040ab1      0x277 0x1 /home/ashwin/pop-compiler-lkvm/x86_64/lib/libc.a(fopen.o)
 .debug_loc     0x0000000000040d28       0x69 0x1 /home/ashwin/pop-compiler-lkvm/x86_64/lib/libc.a(fprintf.o)
 .debug_loc     0x0000000000040d91       0x92 0x1 /home/ashwin/pop-compiler-lkvm/x86_64/lib/libc.a(fputc.o)
 .debug_loc     0x0000000000040e23       0x69 0x1 /home/ashwin/pop-compiler-lkvm/x86_64/lib/libc.a(fscanf.o)
 .debug_loc     0x0000000000040e8c      0x209 0x1 /home/ashwin/pop-compiler-lkvm/x86_64/lib/libc.a(fseek.o)
 .debug_loc     0x0000000000041095      0x2da 0x1 /home/ashwin/pop-compiler-lkvm/x86_64/lib/libc.a(fwrite.o)
 .debug_loc     0x000000000004136f       0x7c 0x1 /home/ashwin/pop-compiler-lkvm/x86_64/lib/libc.a(getline.o)
 .debug_loc     0x00000000000413eb       0x9f 0x1 /home/ashwin/pop-compiler-lkvm/x86_64/lib/libc.a(perror.o)
 .debug_loc     0x000000000004148a       0x6c 0x1 /home/ashwin/pop-compiler-lkvm/x86_64/lib/libc.a(printf.o)
 .debug_loc     0x00000000000414f6       0x23 0x1 /home/ashwin/pop-compiler-lkvm/x86_64/lib/libc.a(putchar.o)
 .debug_loc     0x0000000000041519       0xa2 0x1 /home/ashwin/pop-compiler-lkvm/x86_64/lib/libc.a(puts.o)
 .debug_loc     0x00000000000415bb       0xd5 0x1 /home/ashwin/pop-compiler-lkvm/x86_64/lib/libc.a(remove.o)
 .debug_loc     0x0000000000041690       0xaf 0x1 /home/ashwin/pop-compiler-lkvm/x86_64/lib/libc.a(rename.o)
 .debug_loc     0x000000000004173f       0x8c 0x1 /home/ashwin/pop-compiler-lkvm/x86_64/lib/libc.a(snprintf.o)
 .debug_loc     0x00000000000417cb       0x69 0x1 /home/ashwin/pop-compiler-lkvm/x86_64/lib/libc.a(sprintf.o)
 .debug_loc     0x0000000000041834       0x69 0x1 /home/ashwin/pop-compiler-lkvm/x86_64/lib/libc.a(sscanf.o)
 .debug_loc     0x000000000004189d      0x142 0x1 /home/ashwin/pop-compiler-lkvm/x86_64/lib/libc.a(vdprintf.o)
 .debug_loc     0x00000000000419df     0x36e9 0x1 /home/ashwin/pop-compiler-lkvm/x86_64/lib/libc.a(vfprintf.o)
 .debug_loc     0x00000000000450c8     0x108c 0x1 /home/ashwin/pop-compiler-lkvm/x86_64/lib/libc.a(vfscanf.o)
 .debug_loc     0x0000000000046154      0x1e5 0x1 /home/ashwin/pop-compiler-lkvm/x86_64/lib/libc.a(vsnprintf.o)
 .debug_loc     0x0000000000046339       0x8f 0x1 /home/ashwin/pop-compiler-lkvm/x86_64/lib/libc.a(vsprintf.o)
 .debug_loc     0x00000000000463c8      0x155 0x1 /home/ashwin/pop-compiler-lkvm/x86_64/lib/libc.a(vsscanf.o)
 .debug_loc     0x000000000004651d      0x128 0x1 /home/ashwin/pop-compiler-lkvm/x86_64/lib/libc.a(atoi.o)
 .debug_loc     0x0000000000046645      0x4b0 0x1 /home/ashwin/pop-compiler-lkvm/x86_64/lib/libc.a(strtol.o)
 .debug_loc     0x0000000000046af5      0x144 0x1 /home/ashwin/pop-compiler-lkvm/x86_64/lib/libc.a(memchr.o)
 .debug_loc     0x0000000000046c39       0x8f 0x1 /home/ashwin/pop-compiler-lkvm/x86_64/lib/libc.a(strcasestr.o)
 .debug_loc     0x0000000000046cc8       0x7c 0x1 /home/ashwin/pop-compiler-lkvm/x86_64/lib/libc.a(strchr.o)
 .debug_loc     0x0000000000046d44      0x111 0x1 /home/ashwin/pop-compiler-lkvm/x86_64/lib/libc.a(strchrnul.o)
 .debug_loc     0x0000000000046e55       0x23 0x1 /home/ashwin/pop-compiler-lkvm/x86_64/lib/libc.a(strcmp.o)
 .debug_loc     0x0000000000046e78       0x59 0x1 /home/ashwin/pop-compiler-lkvm/x86_64/lib/libc.a(strcpy.o)
 .debug_loc     0x0000000000046ed1       0xa2 0x1 /home/ashwin/pop-compiler-lkvm/x86_64/lib/libc.a(strdup.o)
 .debug_loc     0x0000000000046f73      0x108 0x1 /home/ashwin/pop-compiler-lkvm/x86_64/lib/libc.a(strlen.o)
 .debug_loc     0x000000000004707b      0x4a1 0x1 /home/ashwin/pop-compiler-lkvm/x86_64/lib/libc.a(strncasecmp.o)
 .debug_loc     0x000000000004751c      0x102 0x1 /home/ashwin/pop-compiler-lkvm/x86_64/lib/libc.a(strncmp.o)
 .debug_loc     0x000000000004761e       0x7c 0x1 /home/ashwin/pop-compiler-lkvm/x86_64/lib/libc.a(strncpy.o)
 .debug_loc     0x000000000004769a       0x9f 0x1 /home/ashwin/pop-compiler-lkvm/x86_64/lib/libc.a(strndup.o)
 .debug_loc     0x0000000000047739       0x8f 0x1 /home/ashwin/pop-compiler-lkvm/x86_64/lib/libc.a(strnlen.o)
 .debug_loc     0x00000000000477c8       0x82 0x1 /home/ashwin/pop-compiler-lkvm/x86_64/lib/libc.a(strspn.o)
 .debug_loc     0x000000000004784a      0xa83 0x1 /home/ashwin/pop-compiler-lkvm/x86_64/lib/libc.a(strstr.o)
 .debug_loc     0x00000000000482cd       0x7f 0x1 /home/ashwin/pop-compiler-lkvm/x86_64/lib/libc.a(strtok.o)
 .debug_loc     0x000000000004834c       0x23 0x1 /home/ashwin/pop-compiler-lkvm/x86_64/lib/libc.a(mkstemp.o)
 .debug_loc     0x000000000004836f       0x59 0x1 /home/ashwin/pop-compiler-lkvm/x86_64/lib/libc.a(tcgetattr.o)
 .debug_loc     0x00000000000483c8       0xa2 0x1 /home/ashwin/pop-compiler-lkvm/x86_64/lib/libc.a(tcsetattr.o)
 .debug_loc     0x000000000004846a      0x2b9 0x1 /home/ashwin/pop-compiler-lkvm/x86_64/lib/libc.a(__lock.o)
 .debug_loc     0x0000000000048723      0x1a4 0x1 /home/ashwin/pop-compiler-lkvm/x86_64/lib/libc.a(__syscall_cp.o)
 .debug_loc     0x00000000000488c7      0x337 0x1 /home/ashwin/pop-compiler-lkvm/x86_64/lib/libc.a(__wait.o)
 .debug_loc     0x0000000000048bfe       0xd5 0x1 /home/ashwin/pop-compiler-lkvm/x86_64/lib/libc.a(pthread_cleanup_push.o)
 .debug_loc     0x0000000000048cd3      0x1ee 0x1 /home/ashwin/pop-compiler-lkvm/x86_64/lib/libc.a(pthread_cond_signal.o)
 .debug_loc     0x0000000000048ec1     0x1ce3 0x1 /home/ashwin/pop-compiler-lkvm/x86_64/lib/libc.a(pthread_cond_timedwait.o)
 .debug_loc     0x000000000004aba4       0x46 0x1 /home/ashwin/pop-compiler-lkvm/x86_64/lib/libc.a(pthread_cond_wait.o)
 .debug_loc     0x000000000004abea     0x1357 0x1 /home/ashwin/pop-compiler-lkvm/x86_64/lib/libc.a(pthread_create.o)
 .debug_loc     0x000000000004bf41      0x22c 0x1 /home/ashwin/pop-compiler-lkvm/x86_64/lib/libc.a(pthread_join.o)
 .debug_loc     0x000000000004c16d      0x11e 0x1 /home/ashwin/pop-compiler-lkvm/x86_64/lib/libc.a(pthread_kill.o)
 .debug_loc     0x000000000004c28b       0x80 0x1 /home/ashwin/pop-compiler-lkvm/x86_64/lib/libc.a(pthread_mutex_lock.o)
 .debug_loc     0x000000000004c30b      0x2e8 0x1 /home/ashwin/pop-compiler-lkvm/x86_64/lib/libc.a(pthread_mutex_timedlock.o)
 .debug_loc     0x000000000004c5f3      0x2b3 0x1 /home/ashwin/pop-compiler-lkvm/x86_64/lib/libc.a(pthread_mutex_trylock.o)
 .debug_loc     0x000000000004c8a6      0x319 0x1 /home/ashwin/pop-compiler-lkvm/x86_64/lib/libc.a(pthread_mutex_unlock.o)
 .debug_loc     0x000000000004cbbf       0x23 0x1 /home/ashwin/pop-compiler-lkvm/x86_64/lib/libc.a(pthread_rwlock_rdlock.o)
 .debug_loc     0x000000000004cbe2      0x1e6 0x1 /home/ashwin/pop-compiler-lkvm/x86_64/lib/libc.a(pthread_rwlock_timedrdlock.o)
 .debug_loc     0x000000000004cdc8      0x10b 0x1 /home/ashwin/pop-compiler-lkvm/x86_64/lib/libc.a(pthread_rwlock_tryrdlock.o)
 .debug_loc     0x000000000004ced3      0x2ba 0x1 /home/ashwin/pop-compiler-lkvm/x86_64/lib/libc.a(pthread_rwlock_unlock.o)
 .debug_loc     0x000000000004d18d       0x23 0x1 /home/ashwin/pop-compiler-lkvm/x86_64/lib/libc.a(pthread_rwlock_wrlock.o)
 .debug_loc     0x000000000004d1b0       0x46 0x1 /home/ashwin/pop-compiler-lkvm/x86_64/lib/libc.a(pthread_setcancelstate.o)
 .debug_loc     0x000000000004d1f6      0x141 0x1 /home/ashwin/pop-compiler-lkvm/x86_64/lib/libc.a(pthread_sigmask.o)
 .debug_loc     0x000000000004d337      0x20f 0x1 /home/ashwin/pop-compiler-lkvm/x86_64/lib/libc.a(vmlock.o)
 .debug_loc     0x000000000004d546       0x23 0x1 /home/ashwin/pop-compiler-lkvm/x86_64/lib/libc.a(gmtime.o)
 .debug_loc     0x000000000004d569       0x59 0x1 /home/ashwin/pop-compiler-lkvm/x86_64/lib/libc.a(gmtime_r.o)
 .debug_loc     0x000000000004d5c2       0x36 0x1 /home/ashwin/pop-compiler-lkvm/x86_64/lib/libc.a(time.o)
 .debug_loc     0x000000000004d5f8       0x23 0x1 /home/ashwin/pop-compiler-lkvm/x86_64/lib/libc.a(_exit.o)
 .debug_loc     0x000000000004d61b       0xaf 0x1 /home/ashwin/pop-compiler-lkvm/x86_64/lib/libc.a(access.o)
 .debug_loc     0x000000000004d6ca       0x8f 0x1 /home/ashwin/pop-compiler-lkvm/x86_64/lib/libc.a(close.o)
 .debug_loc     0x000000000004d759       0x23 0x1 /home/ashwin/pop-compiler-lkvm/x86_64/lib/libc.a(fdatasync.o)
 .debug_loc     0x000000000004d77c       0x23 0x1 /home/ashwin/pop-compiler-lkvm/x86_64/lib/libc.a(fsync.o)
 .debug_loc     0x000000000004d79f       0xaf 0x1 /home/ashwin/pop-compiler-lkvm/x86_64/lib/libc.a(ftruncate.o)
 .debug_loc     0x000000000004d84e       0x46 0x1 /home/ashwin/pop-compiler-lkvm/x86_64/lib/libc.a(isatty.o)
 .debug_loc     0x000000000004d894       0xf5 0x1 /home/ashwin/pop-compiler-lkvm/x86_64/lib/libc.a(lchown.o)
 .debug_loc     0x000000000004d989       0xaf 0x1 /home/ashwin/pop-compiler-lkvm/x86_64/lib/libc.a(link.o)
 .debug_loc     0x000000000004da38       0xf5 0x1 /home/ashwin/pop-compiler-lkvm/x86_64/lib/libc.a(lseek.o)
 .debug_loc     0x000000000004db2d       0xc5 0x1 /home/ashwin/pop-compiler-lkvm/x86_64/lib/libc.a(pread.o)
 .debug_loc     0x000000000004dbf2       0xc5 0x1 /home/ashwin/pop-compiler-lkvm/x86_64/lib/libc.a(preadv.o)
 .debug_loc     0x000000000004dcb7       0xc5 0x1 /home/ashwin/pop-compiler-lkvm/x86_64/lib/libc.a(pwrite.o)
 .debug_loc     0x000000000004dd7c       0xc5 0x1 /home/ashwin/pop-compiler-lkvm/x86_64/lib/libc.a(pwritev.o)
 .debug_loc     0x000000000004de41       0x8f 0x1 /home/ashwin/pop-compiler-lkvm/x86_64/lib/libc.a(read.o)
 .debug_loc     0x000000000004ded0       0xf5 0x1 /home/ashwin/pop-compiler-lkvm/x86_64/lib/libc.a(readlink.o)
 .debug_loc     0x000000000004dfc5       0x8f 0x1 /home/ashwin/pop-compiler-lkvm/x86_64/lib/libc.a(readv.o)
 .debug_loc     0x000000000004e054       0x47 0x1 /home/ashwin/pop-compiler-lkvm/x86_64/lib/libc.a(sleep.o)
 .debug_loc     0x000000000004e09b       0xaf 0x1 /home/ashwin/pop-compiler-lkvm/x86_64/lib/libc.a(symlink.o)
 .debug_loc     0x000000000004e14a       0xaf 0x1 /home/ashwin/pop-compiler-lkvm/x86_64/lib/libc.a(truncate.o)
 .debug_loc     0x000000000004e1f9       0x69 0x1 /home/ashwin/pop-compiler-lkvm/x86_64/lib/libc.a(unlink.o)
 .debug_loc     0x000000000004e262       0x47 0x1 /home/ashwin/pop-compiler-lkvm/x86_64/lib/libc.a(usleep.o)
 .debug_loc     0x000000000004e2a9       0x8f 0x1 /home/ashwin/pop-compiler-lkvm/x86_64/lib/libc.a(write.o)
 .debug_loc     0x000000000004e338       0x8f 0x1 /home/ashwin/pop-compiler-lkvm/x86_64/lib/libc.a(writev.o)
 .debug_loc     0x000000000004e3c7      0x4d0 0x1 /home/ashwin/pop-compiler-lkvm/x86_64/lib/libc.a(__init_tls.o)
 .debug_loc     0x000000000004e897      0x255 0x1 /home/ashwin/pop-compiler-lkvm/x86_64/lib/libc.a(platform.o)
 .debug_loc     0x000000000004eaec       0x46 0x1 /home/ashwin/pop-compiler-lkvm/x86_64/lib/libc.a(_Exit.o)
 .debug_loc     0x000000000004eb32     0x31b1 0x1 /home/ashwin/pop-compiler-lkvm/x86_64/lib/libc.a(floatscan.o)
 .debug_loc     0x0000000000051ce3      0x772 0x1 /home/ashwin/pop-compiler-lkvm/x86_64/lib/libc.a(intscan.o)
 .debug_loc     0x0000000000052455      0x118 0x1 /home/ashwin/pop-compiler-lkvm/x86_64/lib/libc.a(procfdname.o)
 .debug_loc     0x000000000005256d       0x7f 0x1 /home/ashwin/pop-compiler-lkvm/x86_64/lib/libc.a(shgetc.o)
 .debug_loc     0x00000000000525ec      0x959 0x1 /home/ashwin/pop-compiler-lkvm/x86_64/lib/libc.a(expand_heap.o)
 .debug_loc     0x0000000000052f45       0x49 0x1 /home/ashwin/pop-compiler-lkvm/x86_64/lib/libc.a(__fpclassifyl.o)
 .debug_loc     0x0000000000052f8e       0x26 0x1 /home/ashwin/pop-compiler-lkvm/x86_64/lib/libc.a(copysignl.o)
 .debug_loc     0x0000000000052fb4       0xf7 0x1 /home/ashwin/pop-compiler-lkvm/x86_64/lib/libc.a(frexpl.o)
 .debug_loc     0x00000000000530ab      0x14e 0x1 /home/ashwin/pop-compiler-lkvm/x86_64/lib/libc.a(scalbn.o)
 .debug_loc     0x00000000000531f9      0x131 0x1 /home/ashwin/pop-compiler-lkvm/x86_64/lib/libc.a(scalbnl.o)
 .debug_loc     0x000000000005332a      0x2d0 0x1 /home/ashwin/pop-compiler-lkvm/x86_64/lib/libc.a(mbrtowc.o)
 .debug_loc     0x00000000000535fa       0x6c 0x1 /home/ashwin/pop-compiler-lkvm/x86_64/lib/libc.a(wctomb.o)
 .debug_loc     0x0000000000053666      0x361 0x1 /home/ashwin/pop-compiler-lkvm/x86_64/lib/libc.a(sigaction.o)
 .debug_loc     0x00000000000539c7      0x30e 0x1 /home/ashwin/pop-compiler-lkvm/x86_64/lib/libc.a(__fdopen.o)
 .debug_loc     0x0000000000053cd5       0xb8 0x1 /home/ashwin/pop-compiler-lkvm/x86_64/lib/libc.a(__fmodeflags.o)
 .debug_loc     0x0000000000053d8d      0x369 0x1 /home/ashwin/pop-compiler-lkvm/x86_64/lib/libc.a(__lockfile.o)
 .debug_loc     0x00000000000540f6       0xf2 0x1 /home/ashwin/pop-compiler-lkvm/x86_64/lib/libc.a(__overflow.o)
 .debug_loc     0x00000000000541e8       0x9f 0x1 /home/ashwin/pop-compiler-lkvm/x86_64/lib/libc.a(__stdio_close.o)
 .debug_loc     0x0000000000054287      0x154 0x1 /home/ashwin/pop-compiler-lkvm/x86_64/lib/libc.a(__stdio_read.o)
 .debug_loc     0x00000000000543db       0xf5 0x1 /home/ashwin/pop-compiler-lkvm/x86_64/lib/libc.a(__stdio_seek.o)
 .debug_loc     0x00000000000544d0      0x32e 0x1 /home/ashwin/pop-compiler-lkvm/x86_64/lib/libc.a(__stdio_write.o)
 .debug_loc     0x00000000000547fe      0x157 0x1 /home/ashwin/pop-compiler-lkvm/x86_64/lib/libc.a(__stdout_write.o)
 .debug_loc     0x0000000000054955      0x131 0x1 /home/ashwin/pop-compiler-lkvm/x86_64/lib/libc.a(__string_read.o)
 .debug_loc     0x0000000000054a86       0x5a 0x1 /home/ashwin/pop-compiler-lkvm/x86_64/lib/libc.a(__uflow.o)
 .debug_loc     0x0000000000054ae0       0xa2 0x1 /home/ashwin/pop-compiler-lkvm/x86_64/lib/libc.a(fputs.o)
 .debug_loc     0x0000000000054b82      0x39f 0x1 /home/ashwin/pop-compiler-lkvm/x86_64/lib/libc.a(getdelim.o)
 .debug_loc     0x0000000000054f21       0x59 0x1 /home/ashwin/pop-compiler-lkvm/x86_64/lib/libc.a(ofl_add.o)
 .debug_loc     0x0000000000054f7a       0xd8 0x1 /home/ashwin/pop-compiler-lkvm/x86_64/lib/libc.a(memcmp.o)
 .debug_loc     0x0000000000055052      0x111 0x1 /home/ashwin/pop-compiler-lkvm/x86_64/lib/libc.a(stpcpy.o)
 .debug_loc     0x0000000000055163      0x1b9 0x1 /home/ashwin/pop-compiler-lkvm/x86_64/lib/libc.a(stpncpy.o)
 .debug_loc     0x000000000005531c       0x92 0x1 /home/ashwin/pop-compiler-lkvm/x86_64/lib/libc.a(strcspn.o)
 .debug_loc     0x00000000000553ae      0x15a 0x1 /home/ashwin/pop-compiler-lkvm/x86_64/lib/libc.a(mkostemps.o)
 .debug_loc     0x0000000000055508      0x36d 0x1 /home/ashwin/pop-compiler-lkvm/x86_64/lib/libc.a(__timedwait.o)
 .debug_loc     0x0000000000055875      0x1e6 0x1 /home/ashwin/pop-compiler-lkvm/x86_64/lib/libc.a(pthread_rwlock_timedwrlock.o)
 .debug_loc     0x0000000000055a5b       0x38 0x1 /home/ashwin/pop-compiler-lkvm/x86_64/lib/libc.a(pthread_rwlock_trywrlock.o)
 .debug_loc     0x0000000000055a93      0x2ad 0x1 /home/ashwin/pop-compiler-lkvm/x86_64/lib/libc.a(__secs_to_tm.o)
 .debug_loc     0x0000000000055d40     0x1455 0x1 /home/ashwin/pop-compiler-lkvm/x86_64/lib/libc.a(__tz.o)
 .debug_loc     0x0000000000057195      0x24c 0x1 /home/ashwin/pop-compiler-lkvm/x86_64/lib/libc.a(__year_to_secs.o)
 .debug_loc     0x00000000000573e1      0x18c 0x1 /home/ashwin/pop-compiler-lkvm/x86_64/lib/libc.a(clock_gettime.o)
 .debug_loc     0x000000000005756d       0x6c 0x1 /home/ashwin/pop-compiler-lkvm/x86_64/lib/libc.a(nanosleep.o)
 .debug_loc     0x00000000000575d9      0x1db 0x1 /home/ashwin/pop-compiler-lkvm/x86_64/lib/libc.a(wcrtomb.o)
 .debug_loc     0x00000000000577b4       0x6c 0x1 /home/ashwin/pop-compiler-lkvm/x86_64/lib/libc.a(__stdio_exit.o)
 .debug_loc     0x0000000000057820       0x36 0x1 /home/ashwin/pop-compiler-lkvm/x86_64/lib/libc.a(__toread.o)
 .debug_loc     0x0000000000057856       0x7c 0x1 /home/ashwin/pop-compiler-lkvm/x86_64/lib/libc.a(__randname.o)
 .debug_loc     0x00000000000578d2      0x281 0x1 /home/ashwin/pop-compiler-lkvm/x86_64/lib/libc.a(__map_file.o)
 .debug_loc     0x0000000000057b53       0x36 0x1 /home/ashwin/pop-compiler-lkvm/x86_64/lib/libc.a(__month_to_secs.o)

.debug_abbrev   0x0000000000000000    0x14d7a
 .debug_abbrev  0x0000000000000000      0x163 0x1 x86/bios.o
 .debug_abbrev  0x0000000000000163      0x144 0x1 builtin-balloon.o
 .debug_abbrev  0x00000000000002a7      0x161 0x1 builtin-debug.o
 .debug_abbrev  0x0000000000000408      0x120 0x1 builtin-help.o
 .debug_abbrev  0x0000000000000528      0x1e1 0x1 builtin-list.o
 .debug_abbrev  0x0000000000000709      0x184 0x1 builtin-stat.o
 .debug_abbrev  0x000000000000088d      0x164 0x1 builtin-pause.o
 .debug_abbrev  0x00000000000009f1      0x164 0x1 builtin-resume.o
 .debug_abbrev  0x0000000000000b55      0x367 0x1 builtin-run.o
 .debug_abbrev  0x0000000000000ebc      0x20b 0x1 builtin-setup.o
 .debug_abbrev  0x00000000000010c7      0x155 0x1 builtin-stop.o
 .debug_abbrev  0x000000000000121c       0x53 0x1 builtin-version.o
 .debug_abbrev  0x000000000000126f      0x17f 0x1 devices.o
 .debug_abbrev  0x00000000000013ee      0x2a7 0x1 kvm-cpu_common.o
 .debug_abbrev  0x0000000000001695      0x269 0x1 disk/core.o
 .debug_abbrev  0x00000000000018fe      0x1bf 0x1 framebuffer.o
 .debug_abbrev  0x0000000000001abd      0x17c 0x1 guest_compat.o
 .debug_abbrev  0x0000000000001c39      0x249 0x1 hw/rtc.o
 .debug_abbrev  0x0000000000001e82      0x371 0x1 hw/serial.o
 .debug_abbrev  0x00000000000021f3      0x2a3 0x1 ioport_common.o
 .debug_abbrev  0x0000000000002496       0x52 0x1 irq_common.o
 .debug_abbrev  0x00000000000024e8      0x2df 0x1 x86/kvm-cpu.o
 .debug_abbrev  0x00000000000027c7      0x3b7 0x1 kvm_common.o
 .debug_abbrev  0x0000000000002b7e       0x8b 0x1 main.o
 .debug_abbrev  0x0000000000002c09      0x215 0x1 mmio_common.o
 .debug_abbrev  0x0000000000002e1e      0x2d1 0x1 pci_common.o
 .debug_abbrev  0x00000000000030ef      0x270 0x1 term.o
 .debug_abbrev  0x000000000000335f      0x338 0x1 virtio/blk.o
 .debug_abbrev  0x0000000000003697      0x2b8 0x1 virtio/scsi.o
 .debug_abbrev  0x000000000000394f      0x26d 0x1 virtio/console.o
 .debug_abbrev  0x0000000000003bbc      0x1c6 0x1 virtio/core.o
 .debug_abbrev  0x0000000000003d82      0x369 0x1 virtio/net.o
 .debug_abbrev  0x00000000000040eb      0x22e 0x1 virtio/rng.o
 .debug_abbrev  0x0000000000004319      0x27b 0x1 virtio/balloon.o
 .debug_abbrev  0x0000000000004594      0x2fe 0x1 virtio/pci.o
 .debug_abbrev  0x0000000000004892      0x14f 0x1 disk/blk.o
 .debug_abbrev  0x00000000000049e1      0x2b6 0x1 disk/qcow.o
 .debug_abbrev  0x0000000000004c97      0x15c 0x1 disk/raw.o
 .debug_abbrev  0x0000000000004df3      0x1e4 0x1 ioeventfd.o
 .debug_abbrev  0x0000000000004fd7      0x16c 0x1 net/uip/core.o
 .debug_abbrev  0x0000000000005143      0x107 0x1 net/uip/arp.o
 .debug_abbrev  0x000000000000524a      0x107 0x1 net/uip/icmp.o
 .debug_abbrev  0x0000000000005351      0x13f 0x1 net/uip/ipv4.o
 .debug_abbrev  0x0000000000005490      0x230 0x1 net/uip/tcp.o
 .debug_abbrev  0x00000000000056c0      0x201 0x1 net/uip/udp.o
 .debug_abbrev  0x00000000000058c1      0x15f 0x1 net/uip/buf.o
 .debug_abbrev  0x0000000000005a20      0x123 0x1 net/uip/csum.o
 .debug_abbrev  0x0000000000005b43      0x194 0x1 net/uip/dhcp.o
 .debug_abbrev  0x0000000000005cd7      0x134 0x1 kvm-cmd.o
 .debug_abbrev  0x0000000000005e0b      0x183 0x1 util/init.o
 .debug_abbrev  0x0000000000005f8e       0xa0 0x1 util/iovec.o
 .debug_abbrev  0x000000000000602e      0x1b4 0x1 util/rbtree.o
 .debug_abbrev  0x00000000000061e2      0x368 0x1 kvm-ipc.o
 .debug_abbrev  0x000000000000654a      0x1d2 0x1 util/read-write.o
 .debug_abbrev  0x000000000000671c      0x1e1 0x1 util/parse-options.o
 .debug_abbrev  0x00000000000068fd      0x24b 0x1 util/threadpool.o
 .debug_abbrev  0x0000000000006b48      0x151 0x1 util/rbtree-interval.o
 .debug_abbrev  0x0000000000006c99       0x78 0x1 util/strbuf.o
 .debug_abbrev  0x0000000000006d11      0x1c5 0x1 util/util.o
 .debug_abbrev  0x0000000000006ed6      0x305 0x1 hw/pci-shmem.o
 .debug_abbrev  0x00000000000071db      0x2eb 0x1 hw/i8042.o
 .debug_abbrev  0x00000000000074c6      0x3b5 0x1 virtio/9p.o
 .debug_abbrev  0x000000000000787b       0x53 0x1 builtin-sandbox.o
 .debug_abbrev  0x00000000000078ce      0x2bf 0x1 virtio/mmio.o
 .debug_abbrev  0x0000000000007b8d      0x19e 0x1 virtio/9p-pdu.o
 .debug_abbrev  0x0000000000007d2b      0x26b 0x1 x86/kvm.o
 .debug_abbrev  0x0000000000007f96      0x119 0x1 x86/boot.o
 .debug_abbrev  0x00000000000080af      0x1ef 0x1 x86/cpuid.o
 .debug_abbrev  0x000000000000829e       0xbe 0x1 x86/interrupt.o
 .debug_abbrev  0x000000000000835c      0x23b 0x1 x86/ioport.o
 .debug_abbrev  0x0000000000008597      0x182 0x1 x86/irq.o
 .debug_abbrev  0x0000000000008719      0x21e 0x1 x86/mptable.o
 .debug_abbrev  0x0000000000008937      0x1e6 0x1 hw/vesa.o
 .debug_abbrev  0x0000000000008b1d       0x5e 0x1 /home/ashwin/pop-compiler-lkvm/x86_64/lib/crt1.o
 .debug_abbrev  0x0000000000008b7b      0x128 0x1 /home/ashwin/pop-compiler-lkvm/x86_64/lib/libc.a(sysconf.o)
 .debug_abbrev  0x0000000000008ca3       0xaf 0x1 /home/ashwin/pop-compiler-lkvm/x86_64/lib/libc.a(closedir.o)
 .debug_abbrev  0x0000000000008d52       0xa0 0x1 /home/ashwin/pop-compiler-lkvm/x86_64/lib/libc.a(dirfd.o)
 .debug_abbrev  0x0000000000008df2      0x102 0x1 /home/ashwin/pop-compiler-lkvm/x86_64/lib/libc.a(opendir.o)
 .debug_abbrev  0x0000000000008ef4      0x109 0x1 /home/ashwin/pop-compiler-lkvm/x86_64/lib/libc.a(readdir.o)
 .debug_abbrev  0x0000000000008ffd       0xb6 0x1 /home/ashwin/pop-compiler-lkvm/x86_64/lib/libc.a(readdir_r.o)
 .debug_abbrev  0x00000000000090b3       0x9e 0x1 /home/ashwin/pop-compiler-lkvm/x86_64/lib/libc.a(seekdir.o)
 .debug_abbrev  0x0000000000009151      0x1a7 0x1 /home/ashwin/pop-compiler-lkvm/x86_64/lib/libc.a(__libc_start_main.o)
 .debug_abbrev  0x00000000000092f8       0x83 0x1 /home/ashwin/pop-compiler-lkvm/x86_64/lib/libc.a(getenv.o)
 .debug_abbrev  0x000000000000937b      0x123 0x1 /home/ashwin/pop-compiler-lkvm/x86_64/lib/libc.a(__errno_location.o)
 .debug_abbrev  0x000000000000949e      0x155 0x1 /home/ashwin/pop-compiler-lkvm/x86_64/lib/libc.a(strerror.o)
 .debug_abbrev  0x00000000000095f3      0x13e 0x1 /home/ashwin/pop-compiler-lkvm/x86_64/lib/libc.a(atexit.o)
 .debug_abbrev  0x0000000000009731       0x97 0x1 /home/ashwin/pop-compiler-lkvm/x86_64/lib/libc.a(exit.o)
 .debug_abbrev  0x00000000000097c8      0x11a 0x1 /home/ashwin/pop-compiler-lkvm/x86_64/lib/libc.a(fcntl.o)
 .debug_abbrev  0x00000000000098e2      0x114 0x1 /home/ashwin/pop-compiler-lkvm/x86_64/lib/libc.a(open.o)
 .debug_abbrev  0x00000000000099f6       0x93 0x1 /home/ashwin/pop-compiler-lkvm/x86_64/lib/libc.a(libc.o)
 .debug_abbrev  0x0000000000009a89       0x45 0x1 /home/ashwin/pop-compiler-lkvm/x86_64/lib/libc.a(syscall_ret.o)
 .debug_abbrev  0x0000000000009ace       0x36 0x1 /home/ashwin/pop-compiler-lkvm/x86_64/lib/libc.a(getpagesize.o)
 .debug_abbrev  0x0000000000009b04      0x148 0x1 /home/ashwin/pop-compiler-lkvm/x86_64/lib/libc.a(epoll.o)
 .debug_abbrev  0x0000000000009c4c       0xc6 0x1 /home/ashwin/pop-compiler-lkvm/x86_64/lib/libc.a(eventfd.o)
 .debug_abbrev  0x0000000000009d12      0x108 0x1 /home/ashwin/pop-compiler-lkvm/x86_64/lib/libc.a(prctl.o)
 .debug_abbrev  0x0000000000009e1a       0xe3 0x1 /home/ashwin/pop-compiler-lkvm/x86_64/lib/libc.a(sysinfo.o)
 .debug_abbrev  0x0000000000009efd      0x152 0x1 /home/ashwin/pop-compiler-lkvm/x86_64/lib/libc.a(__lctrans.o)
 .debug_abbrev  0x000000000000a04f       0xa3 0x1 /home/ashwin/pop-compiler-lkvm/x86_64/lib/libc.a(calloc.o)
 .debug_abbrev  0x000000000000a0f2       0xa3 0x1 /home/ashwin/pop-compiler-lkvm/x86_64/lib/libc.a(lite_malloc.o)
 .debug_abbrev  0x000000000000a195      0x257 0x1 /home/ashwin/pop-compiler-lkvm/x86_64/lib/libc.a(malloc.o)
 .debug_abbrev  0x000000000000a3ec      0x26b 0x1 /home/ashwin/pop-compiler-lkvm/x86_64/lib/libc.a(popcorn_malloc.o)
 .debug_abbrev  0x000000000000a657      0x105 0x1 /home/ashwin/pop-compiler-lkvm/x86_64/lib/libc.a(getrlimit.o)
 .debug_abbrev  0x000000000000a75c       0xf9 0x1 /home/ashwin/pop-compiler-lkvm/x86_64/lib/libc.a(ioctl.o)
 .debug_abbrev  0x000000000000a855       0xda 0x1 /home/ashwin/pop-compiler-lkvm/x86_64/lib/libc.a(mntent.o)
 .debug_abbrev  0x000000000000a92f       0xc2 0x1 /home/ashwin/pop-compiler-lkvm/x86_64/lib/libc.a(openpty.o)
 .debug_abbrev  0x000000000000a9f1      0x150 0x1 /home/ashwin/pop-compiler-lkvm/x86_64/lib/libc.a(realpath.o)
 .debug_abbrev  0x000000000000ab41       0xe9 0x1 /home/ashwin/pop-compiler-lkvm/x86_64/lib/libc.a(uname.o)
 .debug_abbrev  0x000000000000ac2a       0xae 0x1 /home/ashwin/pop-compiler-lkvm/x86_64/lib/libc.a(madvise.o)
 .debug_abbrev  0x000000000000acd8       0xc7 0x1 /home/ashwin/pop-compiler-lkvm/x86_64/lib/libc.a(mmap.o)
 .debug_abbrev  0x000000000000ad9f       0xc4 0x1 /home/ashwin/pop-compiler-lkvm/x86_64/lib/libc.a(mprotect.o)
 .debug_abbrev  0x000000000000ae63      0x112 0x1 /home/ashwin/pop-compiler-lkvm/x86_64/lib/libc.a(mremap.o)
 .debug_abbrev  0x000000000000af75       0xc1 0x1 /home/ashwin/pop-compiler-lkvm/x86_64/lib/libc.a(munmap.o)
 .debug_abbrev  0x000000000000b036       0x99 0x1 /home/ashwin/pop-compiler-lkvm/x86_64/lib/libc.a(shm_open.o)
 .debug_abbrev  0x000000000000b0cf       0x97 0x1 /home/ashwin/pop-compiler-lkvm/x86_64/lib/libc.a(accept.o)
 .debug_abbrev  0x000000000000b166       0xf7 0x1 /home/ashwin/pop-compiler-lkvm/x86_64/lib/libc.a(bind.o)
 .debug_abbrev  0x000000000000b25d       0x97 0x1 /home/ashwin/pop-compiler-lkvm/x86_64/lib/libc.a(connect.o)
 .debug_abbrev  0x000000000000b2f4       0xb3 0x1 /home/ashwin/pop-compiler-lkvm/x86_64/lib/libc.a(htonl.o)
 .debug_abbrev  0x000000000000b3a7       0x7b 0x1 /home/ashwin/pop-compiler-lkvm/x86_64/lib/libc.a(htons.o)
 .debug_abbrev  0x000000000000b422       0x8b 0x1 /home/ashwin/pop-compiler-lkvm/x86_64/lib/libc.a(inet_addr.o)
 .debug_abbrev  0x000000000000b4ad       0xba 0x1 /home/ashwin/pop-compiler-lkvm/x86_64/lib/libc.a(inet_aton.o)
 .debug_abbrev  0x000000000000b567       0xa5 0x1 /home/ashwin/pop-compiler-lkvm/x86_64/lib/libc.a(listen.o)
 .debug_abbrev  0x000000000000b60c       0xb3 0x1 /home/ashwin/pop-compiler-lkvm/x86_64/lib/libc.a(ntohl.o)
 .debug_abbrev  0x000000000000b6bf       0x7b 0x1 /home/ashwin/pop-compiler-lkvm/x86_64/lib/libc.a(ntohs.o)
 .debug_abbrev  0x000000000000b73a       0xa9 0x1 /home/ashwin/pop-compiler-lkvm/x86_64/lib/libc.a(recvfrom.o)
 .debug_abbrev  0x000000000000b7e3       0xa9 0x1 /home/ashwin/pop-compiler-lkvm/x86_64/lib/libc.a(sendto.o)
 .debug_abbrev  0x000000000000b88c       0xa5 0x1 /home/ashwin/pop-compiler-lkvm/x86_64/lib/libc.a(shutdown.o)
 .debug_abbrev  0x000000000000b931       0xc4 0x1 /home/ashwin/pop-compiler-lkvm/x86_64/lib/libc.a(socket.o)
 .debug_abbrev  0x000000000000b9f5       0xdc 0x1 /home/ashwin/pop-compiler-lkvm/x86_64/lib/libc.a(execl.o)
 .debug_abbrev  0x000000000000bad1       0x53 0x1 /home/ashwin/pop-compiler-lkvm/x86_64/lib/libc.a(execv.o)
 .debug_abbrev  0x000000000000bb24       0xaa 0x1 /home/ashwin/pop-compiler-lkvm/x86_64/lib/libc.a(execve.o)
 .debug_abbrev  0x000000000000bbce      0x1a9 0x1 /home/ashwin/pop-compiler-lkvm/x86_64/lib/libc.a(fork.o)
 .debug_abbrev  0x000000000000bd77       0x59 0x1 /home/ashwin/pop-compiler-lkvm/x86_64/lib/libc.a(waitpid.o)
 .debug_abbrev  0x000000000000bdd0       0x75 0x1 /home/ashwin/pop-compiler-lkvm/x86_64/lib/libc.a(poll.o)
 .debug_abbrev  0x000000000000be45       0xb1 0x1 /home/ashwin/pop-compiler-lkvm/x86_64/lib/libc.a(select.o)
 .debug_abbrev  0x000000000000bef6       0xe0 0x1 /home/ashwin/pop-compiler-lkvm/x86_64/lib/libc.a(block.o)
 .debug_abbrev  0x000000000000bfd6       0xef 0x1 /home/ashwin/pop-compiler-lkvm/x86_64/lib/libc.a(raise.o)
 .debug_abbrev  0x000000000000c0c5       0x9f 0x1 /home/ashwin/pop-compiler-lkvm/x86_64/lib/libc.a(sigaddset.o)
 .debug_abbrev  0x000000000000c164       0x90 0x1 /home/ashwin/pop-compiler-lkvm/x86_64/lib/libc.a(sigemptyset.o)
 .debug_abbrev  0x000000000000c1f4      0x105 0x1 /home/ashwin/pop-compiler-lkvm/x86_64/lib/libc.a(signal.o)
 .debug_abbrev  0x000000000000c2f9       0x34 0x1 /home/ashwin/pop-compiler-lkvm/x86_64/lib/libc.a(sigrtmin.o)
 .debug_abbrev  0x000000000000c32d       0xb7 0x1 /home/ashwin/pop-compiler-lkvm/x86_64/lib/libc.a(chmod.o)
 .debug_abbrev  0x000000000000c3e4      0x155 0x1 /home/ashwin/pop-compiler-lkvm/x86_64/lib/libc.a(fstat.o)
 .debug_abbrev  0x000000000000c539      0x136 0x1 /home/ashwin/pop-compiler-lkvm/x86_64/lib/libc.a(lstat.o)
 .debug_abbrev  0x000000000000c66f       0xb7 0x1 /home/ashwin/pop-compiler-lkvm/x86_64/lib/libc.a(mkdir.o)
 .debug_abbrev  0x000000000000c726       0xb7 0x1 /home/ashwin/pop-compiler-lkvm/x86_64/lib/libc.a(mknod.o)
 .debug_abbrev  0x000000000000c7dd      0x12d 0x1 /home/ashwin/pop-compiler-lkvm/x86_64/lib/libc.a(stat.o)
 .debug_abbrev  0x000000000000c90a      0x133 0x1 /home/ashwin/pop-compiler-lkvm/x86_64/lib/libc.a(statvfs.o)
 .debug_abbrev  0x000000000000ca3d      0x113 0x1 /home/ashwin/pop-compiler-lkvm/x86_64/lib/libc.a(utimensat.o)
 .debug_abbrev  0x000000000000cb50       0xc6 0x1 /home/ashwin/pop-compiler-lkvm/x86_64/lib/libc.a(dprintf.o)
 .debug_abbrev  0x000000000000cc16      0x110 0x1 /home/ashwin/pop-compiler-lkvm/x86_64/lib/libc.a(fclose.o)
 .debug_abbrev  0x000000000000cd26       0xe5 0x1 /home/ashwin/pop-compiler-lkvm/x86_64/lib/libc.a(feof.o)
 .debug_abbrev  0x000000000000ce0b       0xe5 0x1 /home/ashwin/pop-compiler-lkvm/x86_64/lib/libc.a(ferror.o)
 .debug_abbrev  0x000000000000cef0       0xf7 0x1 /home/ashwin/pop-compiler-lkvm/x86_64/lib/libc.a(fflush.o)
 .debug_abbrev  0x000000000000cfe7       0xdf 0x1 /home/ashwin/pop-compiler-lkvm/x86_64/lib/libc.a(fgets.o)
 .debug_abbrev  0x000000000000d0c6      0x134 0x1 /home/ashwin/pop-compiler-lkvm/x86_64/lib/libc.a(fopen.o)
 .debug_abbrev  0x000000000000d1fa       0xdc 0x1 /home/ashwin/pop-compiler-lkvm/x86_64/lib/libc.a(fprintf.o)
 .debug_abbrev  0x000000000000d2d6       0xc9 0x1 /home/ashwin/pop-compiler-lkvm/x86_64/lib/libc.a(fputc.o)
 .debug_abbrev  0x000000000000d39f       0xdc 0x1 /home/ashwin/pop-compiler-lkvm/x86_64/lib/libc.a(fscanf.o)
 .debug_abbrev  0x000000000000d47b       0xe5 0x1 /home/ashwin/pop-compiler-lkvm/x86_64/lib/libc.a(fseek.o)
 .debug_abbrev  0x000000000000d560       0xfa 0x1 /home/ashwin/pop-compiler-lkvm/x86_64/lib/libc.a(fwrite.o)
 .debug_abbrev  0x000000000000d65a       0x76 0x1 /home/ashwin/pop-compiler-lkvm/x86_64/lib/libc.a(getline.o)
 .debug_abbrev  0x000000000000d6d0       0xde 0x1 /home/ashwin/pop-compiler-lkvm/x86_64/lib/libc.a(ofl.o)
 .debug_abbrev  0x000000000000d7ae       0xd6 0x1 /home/ashwin/pop-compiler-lkvm/x86_64/lib/libc.a(perror.o)
 .debug_abbrev  0x000000000000d884       0xc6 0x1 /home/ashwin/pop-compiler-lkvm/x86_64/lib/libc.a(printf.o)
 .debug_abbrev  0x000000000000d94a       0x45 0x1 /home/ashwin/pop-compiler-lkvm/x86_64/lib/libc.a(putchar.o)
 .debug_abbrev  0x000000000000d98f       0x62 0x1 /home/ashwin/pop-compiler-lkvm/x86_64/lib/libc.a(puts.o)
 .debug_abbrev  0x000000000000d9f1       0xc0 0x1 /home/ashwin/pop-compiler-lkvm/x86_64/lib/libc.a(remove.o)
 .debug_abbrev  0x000000000000dab1       0xaa 0x1 /home/ashwin/pop-compiler-lkvm/x86_64/lib/libc.a(rename.o)
 .debug_abbrev  0x000000000000db5b       0xc6 0x1 /home/ashwin/pop-compiler-lkvm/x86_64/lib/libc.a(snprintf.o)
 .debug_abbrev  0x000000000000dc21       0xc6 0x1 /home/ashwin/pop-compiler-lkvm/x86_64/lib/libc.a(sprintf.o)
 .debug_abbrev  0x000000000000dce7       0xc6 0x1 /home/ashwin/pop-compiler-lkvm/x86_64/lib/libc.a(sscanf.o)
 .debug_abbrev  0x000000000000ddad       0xbf 0x1 /home/ashwin/pop-compiler-lkvm/x86_64/lib/libc.a(stderr.o)
 .debug_abbrev  0x000000000000de6c       0xc8 0x1 /home/ashwin/pop-compiler-lkvm/x86_64/lib/libc.a(stdout.o)
 .debug_abbrev  0x000000000000df34      0x108 0x1 /home/ashwin/pop-compiler-lkvm/x86_64/lib/libc.a(vdprintf.o)
 .debug_abbrev  0x000000000000e03c      0x26c 0x1 /home/ashwin/pop-compiler-lkvm/x86_64/lib/libc.a(vfprintf.o)
 .debug_abbrev  0x000000000000e2a8      0x1cc 0x1 /home/ashwin/pop-compiler-lkvm/x86_64/lib/libc.a(vfscanf.o)
 .debug_abbrev  0x000000000000e474      0x124 0x1 /home/ashwin/pop-compiler-lkvm/x86_64/lib/libc.a(vsnprintf.o)
 .debug_abbrev  0x000000000000e598       0x73 0x1 /home/ashwin/pop-compiler-lkvm/x86_64/lib/libc.a(vsprintf.o)
 .debug_abbrev  0x000000000000e60b      0x108 0x1 /home/ashwin/pop-compiler-lkvm/x86_64/lib/libc.a(vsscanf.o)
 .debug_abbrev  0x000000000000e713       0x98 0x1 /home/ashwin/pop-compiler-lkvm/x86_64/lib/libc.a(atoi.o)
 .debug_abbrev  0x000000000000e7ab      0x144 0x1 /home/ashwin/pop-compiler-lkvm/x86_64/lib/libc.a(strtol.o)
 .debug_abbrev  0x000000000000e8ef       0x82 0x1 /home/ashwin/pop-compiler-lkvm/x86_64/lib/libc.a(memchr.o)
 .debug_abbrev  0x000000000000e971       0x6f 0x1 /home/ashwin/pop-compiler-lkvm/x86_64/lib/libc.a(strcasestr.o)
 .debug_abbrev  0x000000000000e9e0       0x62 0x1 /home/ashwin/pop-compiler-lkvm/x86_64/lib/libc.a(strchr.o)
 .debug_abbrev  0x000000000000ea42       0x74 0x1 /home/ashwin/pop-compiler-lkvm/x86_64/lib/libc.a(strchrnul.o)
 .debug_abbrev  0x000000000000eab6       0x62 0x1 /home/ashwin/pop-compiler-lkvm/x86_64/lib/libc.a(strcmp.o)
 .debug_abbrev  0x000000000000eb18       0x5a 0x1 /home/ashwin/pop-compiler-lkvm/x86_64/lib/libc.a(strcpy.o)
 .debug_abbrev  0x000000000000eb72       0x6f 0x1 /home/ashwin/pop-compiler-lkvm/x86_64/lib/libc.a(strdup.o)
 .debug_abbrev  0x000000000000ebe1       0x83 0x1 /home/ashwin/pop-compiler-lkvm/x86_64/lib/libc.a(strlen.o)
 .debug_abbrev  0x000000000000ec64      0x116 0x1 /home/ashwin/pop-compiler-lkvm/x86_64/lib/libc.a(strncasecmp.o)
 .debug_abbrev  0x000000000000ed7a       0x83 0x1 /home/ashwin/pop-compiler-lkvm/x86_64/lib/libc.a(strncmp.o)
 .debug_abbrev  0x000000000000edfd       0x67 0x1 /home/ashwin/pop-compiler-lkvm/x86_64/lib/libc.a(strncpy.o)
 .debug_abbrev  0x000000000000ee64       0x6f 0x1 /home/ashwin/pop-compiler-lkvm/x86_64/lib/libc.a(strndup.o)
 .debug_abbrev  0x000000000000eed3       0x6f 0x1 /home/ashwin/pop-compiler-lkvm/x86_64/lib/libc.a(strnlen.o)
 .debug_abbrev  0x000000000000ef42       0xa6 0x1 /home/ashwin/pop-compiler-lkvm/x86_64/lib/libc.a(strspn.o)
 .debug_abbrev  0x000000000000efe8       0xfb 0x1 /home/ashwin/pop-compiler-lkvm/x86_64/lib/libc.a(strstr.o)
 .debug_abbrev  0x000000000000f0e3       0x69 0x1 /home/ashwin/pop-compiler-lkvm/x86_64/lib/libc.a(strtok.o)
 .debug_abbrev  0x000000000000f14c       0x4c 0x1 /home/ashwin/pop-compiler-lkvm/x86_64/lib/libc.a(mkstemp.o)
 .debug_abbrev  0x000000000000f198       0x90 0x1 /home/ashwin/pop-compiler-lkvm/x86_64/lib/libc.a(tcgetattr.o)
 .debug_abbrev  0x000000000000f228       0x97 0x1 /home/ashwin/pop-compiler-lkvm/x86_64/lib/libc.a(tcsetattr.o)
 .debug_abbrev  0x000000000000f2bf       0xd8 0x1 /home/ashwin/pop-compiler-lkvm/x86_64/lib/libc.a(__lock.o)
 .debug_abbrev  0x000000000000f397       0x76 0x1 /home/ashwin/pop-compiler-lkvm/x86_64/lib/libc.a(__syscall_cp.o)
 .debug_abbrev  0x000000000000f40d       0xf1 0x1 /home/ashwin/pop-compiler-lkvm/x86_64/lib/libc.a(__wait.o)
 .debug_abbrev  0x000000000000f4fe       0x9b 0x1 /home/ashwin/pop-compiler-lkvm/x86_64/lib/libc.a(pthread_cleanup_push.o)
 .debug_abbrev  0x000000000000f599       0xda 0x1 /home/ashwin/pop-compiler-lkvm/x86_64/lib/libc.a(pthread_cond_init.o)
 .debug_abbrev  0x000000000000f673      0x115 0x1 /home/ashwin/pop-compiler-lkvm/x86_64/lib/libc.a(pthread_cond_signal.o)
 .debug_abbrev  0x000000000000f788      0x1e7 0x1 /home/ashwin/pop-compiler-lkvm/x86_64/lib/libc.a(pthread_cond_timedwait.o)
 .debug_abbrev  0x000000000000f96f       0xb1 0x1 /home/ashwin/pop-compiler-lkvm/x86_64/lib/libc.a(pthread_cond_wait.o)
 .debug_abbrev  0x000000000000fa20      0x27c 0x1 /home/ashwin/pop-compiler-lkvm/x86_64/lib/libc.a(pthread_create.o)
 .debug_abbrev  0x000000000000fc9c      0x18c 0x1 /home/ashwin/pop-compiler-lkvm/x86_64/lib/libc.a(pthread_join.o)
 .debug_abbrev  0x000000000000fe28      0x159 0x1 /home/ashwin/pop-compiler-lkvm/x86_64/lib/libc.a(pthread_kill.o)
 .debug_abbrev  0x000000000000ff81       0xda 0x1 /home/ashwin/pop-compiler-lkvm/x86_64/lib/libc.a(pthread_mutex_init.o)
 .debug_abbrev  0x000000000001005b       0xe4 0x1 /home/ashwin/pop-compiler-lkvm/x86_64/lib/libc.a(pthread_mutex_lock.o)
 .debug_abbrev  0x000000000001013f      0x1ca 0x1 /home/ashwin/pop-compiler-lkvm/x86_64/lib/libc.a(pthread_mutex_timedlock.o)
 .debug_abbrev  0x0000000000010309      0x181 0x1 /home/ashwin/pop-compiler-lkvm/x86_64/lib/libc.a(pthread_mutex_trylock.o)
 .debug_abbrev  0x000000000001048a      0x199 0x1 /home/ashwin/pop-compiler-lkvm/x86_64/lib/libc.a(pthread_mutex_unlock.o)
 .debug_abbrev  0x0000000000010623       0xa5 0x1 /home/ashwin/pop-compiler-lkvm/x86_64/lib/libc.a(pthread_rwlock_rdlock.o)
 .debug_abbrev  0x00000000000106c8      0x143 0x1 /home/ashwin/pop-compiler-lkvm/x86_64/lib/libc.a(pthread_rwlock_timedrdlock.o)
 .debug_abbrev  0x000000000001080b       0xec 0x1 /home/ashwin/pop-compiler-lkvm/x86_64/lib/libc.a(pthread_rwlock_tryrdlock.o)
 .debug_abbrev  0x00000000000108f7      0x11d 0x1 /home/ashwin/pop-compiler-lkvm/x86_64/lib/libc.a(pthread_rwlock_unlock.o)
 .debug_abbrev  0x0000000000010a14       0xa5 0x1 /home/ashwin/pop-compiler-lkvm/x86_64/lib/libc.a(pthread_rwlock_wrlock.o)
 .debug_abbrev  0x0000000000010ab9      0x141 0x1 /home/ashwin/pop-compiler-lkvm/x86_64/lib/libc.a(pthread_setcancelstate.o)
 .debug_abbrev  0x0000000000010bfa      0x10a 0x1 /home/ashwin/pop-compiler-lkvm/x86_64/lib/libc.a(pthread_sigmask.o)
 .debug_abbrev  0x0000000000010d04       0x38 0x1 /home/ashwin/pop-compiler-lkvm/x86_64/lib/libc.a(pthread_testcancel.o)
 .debug_abbrev  0x0000000000010d3c       0xeb 0x1 /home/ashwin/pop-compiler-lkvm/x86_64/lib/libc.a(vmlock.o)
 .debug_abbrev  0x0000000000010e27       0x8b 0x1 /home/ashwin/pop-compiler-lkvm/x86_64/lib/libc.a(gmtime.o)
 .debug_abbrev  0x0000000000010eb2       0x83 0x1 /home/ashwin/pop-compiler-lkvm/x86_64/lib/libc.a(gmtime_r.o)
 .debug_abbrev  0x0000000000010f35       0x84 0x1 /home/ashwin/pop-compiler-lkvm/x86_64/lib/libc.a(time.o)
 .debug_abbrev  0x0000000000010fb9       0x46 0x1 /home/ashwin/pop-compiler-lkvm/x86_64/lib/libc.a(_exit.o)
 .debug_abbrev  0x0000000000010fff       0xaa 0x1 /home/ashwin/pop-compiler-lkvm/x86_64/lib/libc.a(access.o)
 .debug_abbrev  0x00000000000110a9       0x69 0x1 /home/ashwin/pop-compiler-lkvm/x86_64/lib/libc.a(close.o)
 .debug_abbrev  0x0000000000011112       0x45 0x1 /home/ashwin/pop-compiler-lkvm/x86_64/lib/libc.a(fdatasync.o)
 .debug_abbrev  0x0000000000011157       0x45 0x1 /home/ashwin/pop-compiler-lkvm/x86_64/lib/libc.a(fsync.o)
 .debug_abbrev  0x000000000001119c       0xa9 0x1 /home/ashwin/pop-compiler-lkvm/x86_64/lib/libc.a(ftruncate.o)
 .debug_abbrev  0x0000000000011245       0x8f 0x1 /home/ashwin/pop-compiler-lkvm/x86_64/lib/libc.a(getpid.o)
 .debug_abbrev  0x00000000000112d4       0xb8 0x1 /home/ashwin/pop-compiler-lkvm/x86_64/lib/libc.a(isatty.o)
 .debug_abbrev  0x000000000001138c       0xb7 0x1 /home/ashwin/pop-compiler-lkvm/x86_64/lib/libc.a(lchown.o)
 .debug_abbrev  0x0000000000011443       0xaa 0x1 /home/ashwin/pop-compiler-lkvm/x86_64/lib/libc.a(link.o)
 .debug_abbrev  0x00000000000114ed       0xa9 0x1 /home/ashwin/pop-compiler-lkvm/x86_64/lib/libc.a(lseek.o)
 .debug_abbrev  0x0000000000011596       0x57 0x1 /home/ashwin/pop-compiler-lkvm/x86_64/lib/libc.a(pread.o)
 .debug_abbrev  0x00000000000115ed       0x81 0x1 /home/ashwin/pop-compiler-lkvm/x86_64/lib/libc.a(preadv.o)
 .debug_abbrev  0x000000000001166e       0x5e 0x1 /home/ashwin/pop-compiler-lkvm/x86_64/lib/libc.a(pwrite.o)
 .debug_abbrev  0x00000000000116cc       0x81 0x1 /home/ashwin/pop-compiler-lkvm/x86_64/lib/libc.a(pwritev.o)
 .debug_abbrev  0x000000000001174d       0x57 0x1 /home/ashwin/pop-compiler-lkvm/x86_64/lib/libc.a(read.o)
 .debug_abbrev  0x00000000000117a4       0xbe 0x1 /home/ashwin/pop-compiler-lkvm/x86_64/lib/libc.a(readlink.o)
 .debug_abbrev  0x0000000000011862       0x81 0x1 /home/ashwin/pop-compiler-lkvm/x86_64/lib/libc.a(readv.o)
 .debug_abbrev  0x00000000000118e3       0x7d 0x1 /home/ashwin/pop-compiler-lkvm/x86_64/lib/libc.a(sleep.o)
 .debug_abbrev  0x0000000000011960       0xaa 0x1 /home/ashwin/pop-compiler-lkvm/x86_64/lib/libc.a(symlink.o)
 .debug_abbrev  0x0000000000011a0a       0xb7 0x1 /home/ashwin/pop-compiler-lkvm/x86_64/lib/libc.a(truncate.o)
 .debug_abbrev  0x0000000000011ac1       0xaa 0x1 /home/ashwin/pop-compiler-lkvm/x86_64/lib/libc.a(unlink.o)
 .debug_abbrev  0x0000000000011b6b       0x7d 0x1 /home/ashwin/pop-compiler-lkvm/x86_64/lib/libc.a(usleep.o)
 .debug_abbrev  0x0000000000011be8       0x5e 0x1 /home/ashwin/pop-compiler-lkvm/x86_64/lib/libc.a(write.o)
 .debug_abbrev  0x0000000000011c46       0x81 0x1 /home/ashwin/pop-compiler-lkvm/x86_64/lib/libc.a(writev.o)
 .debug_abbrev  0x0000000000011cc7       0xee 0x1 /home/ashwin/pop-compiler-lkvm/x86_64/lib/libc.a(tolower.o)
 .debug_abbrev  0x0000000000011db5       0x33 0x1 /home/ashwin/pop-compiler-lkvm/x86_64/lib/libc.a(__environ.o)
 .debug_abbrev  0x0000000000011de8      0x1ba 0x1 /home/ashwin/pop-compiler-lkvm/x86_64/lib/libc.a(__init_tls.o)
 .debug_abbrev  0x0000000000011fa2       0xec 0x1 /home/ashwin/pop-compiler-lkvm/x86_64/lib/libc.a(platform.o)
 .debug_abbrev  0x000000000001208e       0xa4 0x1 /home/ashwin/pop-compiler-lkvm/x86_64/lib/libc.a(_Exit.o)
 .debug_abbrev  0x0000000000012132      0x1ca 0x1 /home/ashwin/pop-compiler-lkvm/x86_64/lib/libc.a(floatscan.o)
 .debug_abbrev  0x00000000000122fc      0x147 0x1 /home/ashwin/pop-compiler-lkvm/x86_64/lib/libc.a(intscan.o)
 .debug_abbrev  0x0000000000012443       0x68 0x1 /home/ashwin/pop-compiler-lkvm/x86_64/lib/libc.a(procfdname.o)
 .debug_abbrev  0x00000000000124ab       0xfc 0x1 /home/ashwin/pop-compiler-lkvm/x86_64/lib/libc.a(shgetc.o)
 .debug_abbrev  0x00000000000125a7      0x13f 0x1 /home/ashwin/pop-compiler-lkvm/x86_64/lib/libc.a(expand_heap.o)
 .debug_abbrev  0x00000000000126e6       0x95 0x1 /home/ashwin/pop-compiler-lkvm/x86_64/lib/libc.a(__fpclassifyl.o)
 .debug_abbrev  0x000000000001277b       0x88 0x1 /home/ashwin/pop-compiler-lkvm/x86_64/lib/libc.a(__signbitl.o)
 .debug_abbrev  0x0000000000012803       0x97 0x1 /home/ashwin/pop-compiler-lkvm/x86_64/lib/libc.a(copysignl.o)
 .debug_abbrev  0x000000000001289a       0x8f 0x1 /home/ashwin/pop-compiler-lkvm/x86_64/lib/libc.a(frexpl.o)
 .debug_abbrev  0x0000000000012929       0x7b 0x1 /home/ashwin/pop-compiler-lkvm/x86_64/lib/libc.a(scalbn.o)
 .debug_abbrev  0x00000000000129a4       0x88 0x1 /home/ashwin/pop-compiler-lkvm/x86_64/lib/libc.a(scalbnl.o)
 .debug_abbrev  0x0000000000012a2c      0x17c 0x1 /home/ashwin/pop-compiler-lkvm/x86_64/lib/libc.a(mbrtowc.o)
 .debug_abbrev  0x0000000000012ba8       0x7c 0x1 /home/ashwin/pop-compiler-lkvm/x86_64/lib/libc.a(mbsinit.o)
 .debug_abbrev  0x0000000000012c24       0x59 0x1 /home/ashwin/pop-compiler-lkvm/x86_64/lib/libc.a(wctomb.o)
 .debug_abbrev  0x0000000000012c7d      0x19f 0x1 /home/ashwin/pop-compiler-lkvm/x86_64/lib/libc.a(sigaction.o)
 .debug_abbrev  0x0000000000012e1c      0x136 0x1 /home/ashwin/pop-compiler-lkvm/x86_64/lib/libc.a(__fdopen.o)
 .debug_abbrev  0x0000000000012f52       0x62 0x1 /home/ashwin/pop-compiler-lkvm/x86_64/lib/libc.a(__fmodeflags.o)
 .debug_abbrev  0x0000000000012fb4      0x1ab 0x1 /home/ashwin/pop-compiler-lkvm/x86_64/lib/libc.a(__lockfile.o)
 .debug_abbrev  0x000000000001315f       0xd8 0x1 /home/ashwin/pop-compiler-lkvm/x86_64/lib/libc.a(__overflow.o)
 .debug_abbrev  0x0000000000013237      0x135 0x1 /home/ashwin/pop-compiler-lkvm/x86_64/lib/libc.a(__stdio_close.o)
 .debug_abbrev  0x000000000001336c      0x15a 0x1 /home/ashwin/pop-compiler-lkvm/x86_64/lib/libc.a(__stdio_read.o)
 .debug_abbrev  0x00000000000134c6      0x120 0x1 /home/ashwin/pop-compiler-lkvm/x86_64/lib/libc.a(__stdio_seek.o)
 .debug_abbrev  0x00000000000135e6      0x14f 0x1 /home/ashwin/pop-compiler-lkvm/x86_64/lib/libc.a(__stdio_write.o)
 .debug_abbrev  0x0000000000013735      0x117 0x1 /home/ashwin/pop-compiler-lkvm/x86_64/lib/libc.a(__stdout_write.o)
 .debug_abbrev  0x000000000001384c       0xd8 0x1 /home/ashwin/pop-compiler-lkvm/x86_64/lib/libc.a(__string_read.o)
 .debug_abbrev  0x0000000000013924       0xdc 0x1 /home/ashwin/pop-compiler-lkvm/x86_64/lib/libc.a(__towrite.o)
 .debug_abbrev  0x0000000000013a00       0xd8 0x1 /home/ashwin/pop-compiler-lkvm/x86_64/lib/libc.a(__uflow.o)
 .debug_abbrev  0x0000000000013ad8       0xdf 0x1 /home/ashwin/pop-compiler-lkvm/x86_64/lib/libc.a(fputs.o)
 .debug_abbrev  0x0000000000013bb7       0xf5 0x1 /home/ashwin/pop-compiler-lkvm/x86_64/lib/libc.a(getdelim.o)
 .debug_abbrev  0x0000000000013cac       0xd8 0x1 /home/ashwin/pop-compiler-lkvm/x86_64/lib/libc.a(ofl_add.o)
 .debug_abbrev  0x0000000000013d84       0x83 0x1 /home/ashwin/pop-compiler-lkvm/x86_64/lib/libc.a(memcmp.o)
 .debug_abbrev  0x0000000000013e07       0x80 0x1 /home/ashwin/pop-compiler-lkvm/x86_64/lib/libc.a(stpcpy.o)
 .debug_abbrev  0x0000000000013e87       0x8d 0x1 /home/ashwin/pop-compiler-lkvm/x86_64/lib/libc.a(stpncpy.o)
 .debug_abbrev  0x0000000000013f14       0x97 0x1 /home/ashwin/pop-compiler-lkvm/x86_64/lib/libc.a(strcspn.o)
 .debug_abbrev  0x0000000000013fab       0x68 0x1 /home/ashwin/pop-compiler-lkvm/x86_64/lib/libc.a(mkostemps.o)
 .debug_abbrev  0x0000000000014013       0xa1 0x1 /home/ashwin/pop-compiler-lkvm/x86_64/lib/libc.a(__timedwait.o)
 .debug_abbrev  0x00000000000140b4      0x143 0x1 /home/ashwin/pop-compiler-lkvm/x86_64/lib/libc.a(pthread_rwlock_timedwrlock.o)
 .debug_abbrev  0x00000000000141f7       0xef 0x1 /home/ashwin/pop-compiler-lkvm/x86_64/lib/libc.a(pthread_rwlock_trywrlock.o)
 .debug_abbrev  0x00000000000142e6       0xc4 0x1 /home/ashwin/pop-compiler-lkvm/x86_64/lib/libc.a(__secs_to_tm.o)
 .debug_abbrev  0x00000000000143aa      0x24f 0x1 /home/ashwin/pop-compiler-lkvm/x86_64/lib/libc.a(__tz.o)
 .debug_abbrev  0x00000000000145f9       0x62 0x1 /home/ashwin/pop-compiler-lkvm/x86_64/lib/libc.a(__year_to_secs.o)
 .debug_abbrev  0x000000000001465b       0xe2 0x1 /home/ashwin/pop-compiler-lkvm/x86_64/lib/libc.a(clock_gettime.o)
 .debug_abbrev  0x000000000001473d       0x7c 0x1 /home/ashwin/pop-compiler-lkvm/x86_64/lib/libc.a(nanosleep.o)
 .debug_abbrev  0x00000000000147b9       0x5b 0x1 /home/ashwin/pop-compiler-lkvm/x86_64/lib/libc.a(internal.o)
 .debug_abbrev  0x0000000000014814      0x151 0x1 /home/ashwin/pop-compiler-lkvm/x86_64/lib/libc.a(wcrtomb.o)
 .debug_abbrev  0x0000000000014965       0xf8 0x1 /home/ashwin/pop-compiler-lkvm/x86_64/lib/libc.a(__stdio_exit.o)
 .debug_abbrev  0x0000000000014a5d       0xdc 0x1 /home/ashwin/pop-compiler-lkvm/x86_64/lib/libc.a(__toread.o)
 .debug_abbrev  0x0000000000014b39       0x93 0x1 /home/ashwin/pop-compiler-lkvm/x86_64/lib/libc.a(__randname.o)
 .debug_abbrev  0x0000000000014bcc      0x129 0x1 /home/ashwin/pop-compiler-lkvm/x86_64/lib/libc.a(__map_file.o)
 .debug_abbrev  0x0000000000014cf5       0x85 0x1 /home/ashwin/pop-compiler-lkvm/x86_64/lib/libc.a(__month_to_secs.o)

.debug_info     0x0000000000000000    0x6ae16
 .debug_info    0x0000000000000000      0x85c 0x1 x86/bios.o
 .debug_info    0x000000000000085c      0x2f0 0x1 builtin-balloon.o
 .debug_info    0x0000000000000b4c      0x3b7 0x1 builtin-debug.o
 .debug_info    0x0000000000000f03      0x239 0x1 builtin-help.o
 .debug_info    0x000000000000113c      0x4eb 0x1 builtin-list.o
 .debug_info    0x0000000000001627      0x45c 0x1 builtin-stat.o
 .debug_info    0x0000000000001a83      0x35c 0x1 builtin-pause.o
 .debug_info    0x0000000000001ddf      0x35c 0x1 builtin-resume.o
 .debug_info    0x000000000000213b     0x1d20 0x1 builtin-run.o
 .debug_info    0x0000000000003e5b      0x821 0x1 builtin-setup.o
 .debug_info    0x000000000000467c      0x31e 0x1 builtin-stop.o
 .debug_info    0x000000000000499a       0x8f 0x1 builtin-version.o
 .debug_info    0x0000000000004a29      0x338 0x1 devices.o
 .debug_info    0x0000000000004d61     0x16d3 0x1 kvm-cpu_common.o
 .debug_info    0x0000000000006434      0xfec 0x1 disk/core.o
 .debug_info    0x0000000000007420      0xa5e 0x1 framebuffer.o
 .debug_info    0x0000000000007e7e      0x4ff 0x1 guest_compat.o
 .debug_info    0x000000000000837d     0x16b9 0x1 hw/rtc.o
 .debug_info    0x0000000000009a36     0x1bd8 0x1 hw/serial.o
 .debug_info    0x000000000000b60e     0x1a67 0x1 ioport_common.o
 .debug_info    0x000000000000d075       0x8b 0x1 irq_common.o
 .debug_info    0x000000000000d100     0x2762 0x1 x86/kvm-cpu.o
 .debug_info    0x000000000000f862     0x1d8e 0x1 kvm_common.o
 .debug_info    0x00000000000115f0       0xd4 0x1 main.o
 .debug_info    0x00000000000116c4     0x150c 0x1 mmio_common.o
 .debug_info    0x0000000000012bd0     0x1fd8 0x1 pci_common.o
 .debug_info    0x0000000000014ba8     0x184f 0x1 term.o
 .debug_info    0x00000000000163f7     0x184c 0x1 virtio/blk.o
 .debug_info    0x0000000000017c43     0x1628 0x1 virtio/scsi.o
 .debug_info    0x000000000001926b     0x1e68 0x1 virtio/console.o
 .debug_info    0x000000000001b0d3     0x1070 0x1 virtio/core.o
 .debug_info    0x000000000001c143     0x2b09 0x1 virtio/net.o
 .debug_info    0x000000000001ec4c     0x1395 0x1 virtio/rng.o
 .debug_info    0x000000000001ffe1     0x14ce 0x1 virtio/balloon.o
 .debug_info    0x00000000000214af     0x2334 0x1 virtio/pci.o
 .debug_info    0x00000000000237e3      0x49c 0x1 disk/blk.o
 .debug_info    0x0000000000023c7f     0x362e 0x1 disk/qcow.o
 .debug_info    0x00000000000272ad      0x621 0x1 disk/raw.o
 .debug_info    0x00000000000278ce      0xcb5 0x1 ioeventfd.o
 .debug_info    0x0000000000028583      0x79a 0x1 net/uip/core.o
 .debug_info    0x0000000000028d1d      0x4f2 0x1 net/uip/arp.o
 .debug_info    0x000000000002920f      0x554 0x1 net/uip/icmp.o
 .debug_info    0x0000000000029763      0x496 0x1 net/uip/ipv4.o
 .debug_info    0x0000000000029bf9     0x104a 0x1 net/uip/tcp.o
 .debug_info    0x000000000002ac43      0xc45 0x1 net/uip/udp.o
 .debug_info    0x000000000002b888      0x67d 0x1 net/uip/buf.o
 .debug_info    0x000000000002bf05      0x635 0x1 net/uip/csum.o
 .debug_info    0x000000000002c53a      0xa91 0x1 net/uip/dhcp.o
 .debug_info    0x000000000002cfcb      0x216 0x1 kvm-cmd.o
 .debug_info    0x000000000002d1e1      0x8b3 0x1 util/init.o
 .debug_info    0x000000000002da94      0x2e6 0x1 util/iovec.o
 .debug_info    0x000000000002dd7a     0x13c7 0x1 util/rbtree.o
 .debug_info    0x000000000002f141     0x22d7 0x1 kvm-ipc.o
 .debug_info    0x0000000000031418      0xd87 0x1 util/read-write.o
 .debug_info    0x000000000003219f      0x96e 0x1 util/parse-options.o
 .debug_info    0x0000000000032b0d     0x100e 0x1 util/threadpool.o
 .debug_info    0x0000000000033b1b      0x2c2 0x1 util/rbtree-interval.o
 .debug_info    0x0000000000033ddd      0x180 0x1 util/strbuf.o
 .debug_info    0x0000000000033f5d      0xb52 0x1 util/util.o
 .debug_info    0x0000000000034aaf     0x1dc8 0x1 hw/pci-shmem.o
 .debug_info    0x0000000000036877     0x1ae8 0x1 hw/i8042.o
 .debug_info    0x000000000003835f     0x4dd3 0x1 virtio/9p.o
 .debug_info    0x000000000003d132       0x8f 0x1 builtin-sandbox.o
 .debug_info    0x000000000003d1c1     0x1d2c 0x1 virtio/mmio.o
 .debug_info    0x000000000003eeed      0xdbd 0x1 virtio/9p-pdu.o
 .debug_info    0x000000000003fcaa     0x1a12 0x1 x86/kvm.o
 .debug_info    0x00000000000416bc      0x7ca 0x1 x86/boot.o
 .debug_info    0x0000000000041e86     0x12a0 0x1 x86/cpuid.o
 .debug_info    0x0000000000043126      0x159 0x1 x86/interrupt.o
 .debug_info    0x000000000004327f     0x1582 0x1 x86/ioport.o
 .debug_info    0x0000000000044801      0xad0 0x1 x86/irq.o
 .debug_info    0x00000000000452d1      0xe8f 0x1 x86/mptable.o
 .debug_info    0x0000000000046160     0x1670 0x1 hw/vesa.o
 .debug_info    0x00000000000477d0       0x93 0x1 /home/ashwin/pop-compiler-lkvm/x86_64/lib/crt1.o
 .debug_info    0x0000000000047863      0x2ba 0x1 /home/ashwin/pop-compiler-lkvm/x86_64/lib/libc.a(sysconf.o)
 .debug_info    0x0000000000047b1d      0x10a 0x1 /home/ashwin/pop-compiler-lkvm/x86_64/lib/libc.a(closedir.o)
 .debug_info    0x0000000000047c27       0xf9 0x1 /home/ashwin/pop-compiler-lkvm/x86_64/lib/libc.a(dirfd.o)
 .debug_info    0x0000000000047d20      0x184 0x1 /home/ashwin/pop-compiler-lkvm/x86_64/lib/libc.a(opendir.o)
 .debug_info    0x0000000000047ea4      0x21e 0x1 /home/ashwin/pop-compiler-lkvm/x86_64/lib/libc.a(readdir.o)
 .debug_info    0x00000000000480c2      0x1d2 0x1 /home/ashwin/pop-compiler-lkvm/x86_64/lib/libc.a(readdir_r.o)
 .debug_info    0x0000000000048294      0x106 0x1 /home/ashwin/pop-compiler-lkvm/x86_64/lib/libc.a(seekdir.o)
 .debug_info    0x000000000004839a      0x323 0x1 /home/ashwin/pop-compiler-lkvm/x86_64/lib/libc.a(__libc_start_main.o)
 .debug_info    0x00000000000486bd       0xa1 0x1 /home/ashwin/pop-compiler-lkvm/x86_64/lib/libc.a(getenv.o)
 .debug_info    0x000000000004875e      0x3a8 0x1 /home/ashwin/pop-compiler-lkvm/x86_64/lib/libc.a(__errno_location.o)
 .debug_info    0x0000000000048b06      0x4a0 0x1 /home/ashwin/pop-compiler-lkvm/x86_64/lib/libc.a(strerror.o)
 .debug_info    0x0000000000048fa6      0x214 0x1 /home/ashwin/pop-compiler-lkvm/x86_64/lib/libc.a(atexit.o)
 .debug_info    0x00000000000491ba       0xb0 0x1 /home/ashwin/pop-compiler-lkvm/x86_64/lib/libc.a(exit.o)
 .debug_info    0x000000000004926a      0x418 0x1 /home/ashwin/pop-compiler-lkvm/x86_64/lib/libc.a(fcntl.o)
 .debug_info    0x0000000000049682      0x1bb 0x1 /home/ashwin/pop-compiler-lkvm/x86_64/lib/libc.a(open.o)
 .debug_info    0x000000000004983d      0x1d7 0x1 /home/ashwin/pop-compiler-lkvm/x86_64/lib/libc.a(libc.o)
 .debug_info    0x0000000000049a14       0x62 0x1 /home/ashwin/pop-compiler-lkvm/x86_64/lib/libc.a(syscall_ret.o)
 .debug_info    0x0000000000049a76       0x4b 0x1 /home/ashwin/pop-compiler-lkvm/x86_64/lib/libc.a(getpagesize.o)
 .debug_info    0x0000000000049ac1      0x503 0x1 /home/ashwin/pop-compiler-lkvm/x86_64/lib/libc.a(epoll.o)
 .debug_info    0x0000000000049fc4      0x1e3 0x1 /home/ashwin/pop-compiler-lkvm/x86_64/lib/libc.a(eventfd.o)
 .debug_info    0x000000000004a1a7      0x1e0 0x1 /home/ashwin/pop-compiler-lkvm/x86_64/lib/libc.a(prctl.o)
 .debug_info    0x000000000004a387      0x1b1 0x1 /home/ashwin/pop-compiler-lkvm/x86_64/lib/libc.a(sysinfo.o)
 .debug_info    0x000000000004a538      0x470 0x1 /home/ashwin/pop-compiler-lkvm/x86_64/lib/libc.a(__lctrans.o)
 .debug_info    0x000000000004a9a8      0x136 0x1 /home/ashwin/pop-compiler-lkvm/x86_64/lib/libc.a(calloc.o)
 .debug_info    0x000000000004aade      0x12d 0x1 /home/ashwin/pop-compiler-lkvm/x86_64/lib/libc.a(lite_malloc.o)
 .debug_info    0x000000000004ac0b     0x1ad0 0x1 /home/ashwin/pop-compiler-lkvm/x86_64/lib/libc.a(malloc.o)
 .debug_info    0x000000000004c6db     0x1a06 0x1 /home/ashwin/pop-compiler-lkvm/x86_64/lib/libc.a(popcorn_malloc.o)
 .debug_info    0x000000000004e0e1      0x1f8 0x1 /home/ashwin/pop-compiler-lkvm/x86_64/lib/libc.a(getrlimit.o)
 .debug_info    0x000000000004e2d9      0x17f 0x1 /home/ashwin/pop-compiler-lkvm/x86_64/lib/libc.a(ioctl.o)
 .debug_info    0x000000000004e458      0x29e 0x1 /home/ashwin/pop-compiler-lkvm/x86_64/lib/libc.a(mntent.o)
 .debug_info    0x000000000004e6f6      0x20c 0x1 /home/ashwin/pop-compiler-lkvm/x86_64/lib/libc.a(openpty.o)
 .debug_info    0x000000000004e902      0x371 0x1 /home/ashwin/pop-compiler-lkvm/x86_64/lib/libc.a(realpath.o)
 .debug_info    0x000000000004ec73      0x137 0x1 /home/ashwin/pop-compiler-lkvm/x86_64/lib/libc.a(uname.o)
 .debug_info    0x000000000004edaa      0x116 0x1 /home/ashwin/pop-compiler-lkvm/x86_64/lib/libc.a(madvise.o)
 .debug_info    0x000000000004eec0      0x1ed 0x1 /home/ashwin/pop-compiler-lkvm/x86_64/lib/libc.a(mmap.o)
 .debug_info    0x000000000004f0ad      0x140 0x1 /home/ashwin/pop-compiler-lkvm/x86_64/lib/libc.a(mprotect.o)
 .debug_info    0x000000000004f1ed      0x211 0x1 /home/ashwin/pop-compiler-lkvm/x86_64/lib/libc.a(mremap.o)
 .debug_info    0x000000000004f3fe      0x108 0x1 /home/ashwin/pop-compiler-lkvm/x86_64/lib/libc.a(munmap.o)
 .debug_info    0x000000000004f506      0x15f 0x1 /home/ashwin/pop-compiler-lkvm/x86_64/lib/libc.a(shm_open.o)
 .debug_info    0x000000000004f665       0xf8 0x1 /home/ashwin/pop-compiler-lkvm/x86_64/lib/libc.a(accept.o)
 .debug_info    0x000000000004f75d      0x1de 0x1 /home/ashwin/pop-compiler-lkvm/x86_64/lib/libc.a(bind.o)
 .debug_info    0x000000000004f93b       0xee 0x1 /home/ashwin/pop-compiler-lkvm/x86_64/lib/libc.a(connect.o)
 .debug_info    0x000000000004fa29       0xd7 0x1 /home/ashwin/pop-compiler-lkvm/x86_64/lib/libc.a(htonl.o)
 .debug_info    0x000000000004fb00       0xa1 0x1 /home/ashwin/pop-compiler-lkvm/x86_64/lib/libc.a(htons.o)
 .debug_info    0x000000000004fba1       0xa5 0x1 /home/ashwin/pop-compiler-lkvm/x86_64/lib/libc.a(inet_addr.o)
 .debug_info    0x000000000004fc46      0x127 0x1 /home/ashwin/pop-compiler-lkvm/x86_64/lib/libc.a(inet_aton.o)
 .debug_info    0x000000000004fd6d      0x15e 0x1 /home/ashwin/pop-compiler-lkvm/x86_64/lib/libc.a(listen.o)
 .debug_info    0x000000000004fecb       0xd7 0x1 /home/ashwin/pop-compiler-lkvm/x86_64/lib/libc.a(ntohl.o)
 .debug_info    0x000000000004ffa2       0xa1 0x1 /home/ashwin/pop-compiler-lkvm/x86_64/lib/libc.a(ntohs.o)
 .debug_info    0x0000000000050043      0x148 0x1 /home/ashwin/pop-compiler-lkvm/x86_64/lib/libc.a(recvfrom.o)
 .debug_info    0x000000000005018b      0x13e 0x1 /home/ashwin/pop-compiler-lkvm/x86_64/lib/libc.a(sendto.o)
 .debug_info    0x00000000000502c9      0x15e 0x1 /home/ashwin/pop-compiler-lkvm/x86_64/lib/libc.a(shutdown.o)
 .debug_info    0x0000000000050427      0x2ae 0x1 /home/ashwin/pop-compiler-lkvm/x86_64/lib/libc.a(socket.o)
 .debug_info    0x00000000000506d5      0x150 0x1 /home/ashwin/pop-compiler-lkvm/x86_64/lib/libc.a(execl.o)
 .debug_info    0x0000000000050825       0x8a 0x1 /home/ashwin/pop-compiler-lkvm/x86_64/lib/libc.a(execv.o)
 .debug_info    0x00000000000508af      0x12a 0x1 /home/ashwin/pop-compiler-lkvm/x86_64/lib/libc.a(execve.o)
 .debug_info    0x00000000000509d9      0x4a6 0x1 /home/ashwin/pop-compiler-lkvm/x86_64/lib/libc.a(fork.o)
 .debug_info    0x0000000000050e7f       0x91 0x1 /home/ashwin/pop-compiler-lkvm/x86_64/lib/libc.a(waitpid.o)
 .debug_info    0x0000000000050f10       0xcb 0x1 /home/ashwin/pop-compiler-lkvm/x86_64/lib/libc.a(poll.o)
 .debug_info    0x0000000000050fdb      0x122 0x1 /home/ashwin/pop-compiler-lkvm/x86_64/lib/libc.a(select.o)
 .debug_info    0x00000000000510fd      0x208 0x1 /home/ashwin/pop-compiler-lkvm/x86_64/lib/libc.a(block.o)
 .debug_info    0x0000000000051305      0x17c 0x1 /home/ashwin/pop-compiler-lkvm/x86_64/lib/libc.a(raise.o)
 .debug_info    0x0000000000051481       0xc2 0x1 /home/ashwin/pop-compiler-lkvm/x86_64/lib/libc.a(sigaddset.o)
 .debug_info    0x0000000000051543       0x9b 0x1 /home/ashwin/pop-compiler-lkvm/x86_64/lib/libc.a(sigemptyset.o)
 .debug_info    0x00000000000515de      0x39a 0x1 /home/ashwin/pop-compiler-lkvm/x86_64/lib/libc.a(signal.o)
 .debug_info    0x0000000000051978       0x4b 0x1 /home/ashwin/pop-compiler-lkvm/x86_64/lib/libc.a(sigrtmin.o)
 .debug_info    0x00000000000519c3      0x10b 0x1 /home/ashwin/pop-compiler-lkvm/x86_64/lib/libc.a(chmod.o)
 .debug_info    0x0000000000051ace      0x45a 0x1 /home/ashwin/pop-compiler-lkvm/x86_64/lib/libc.a(fstat.o)
 .debug_info    0x0000000000051f28      0x34b 0x1 /home/ashwin/pop-compiler-lkvm/x86_64/lib/libc.a(lstat.o)
 .debug_info    0x0000000000052273      0x10b 0x1 /home/ashwin/pop-compiler-lkvm/x86_64/lib/libc.a(mkdir.o)
 .debug_info    0x000000000005237e      0x139 0x1 /home/ashwin/pop-compiler-lkvm/x86_64/lib/libc.a(mknod.o)
 .debug_info    0x00000000000524b7      0x34d 0x1 /home/ashwin/pop-compiler-lkvm/x86_64/lib/libc.a(stat.o)
 .debug_info    0x0000000000052804      0x4f4 0x1 /home/ashwin/pop-compiler-lkvm/x86_64/lib/libc.a(statvfs.o)
 .debug_info    0x0000000000052cf8      0x30c 0x1 /home/ashwin/pop-compiler-lkvm/x86_64/lib/libc.a(utimensat.o)
 .debug_info    0x0000000000053004      0x109 0x1 /home/ashwin/pop-compiler-lkvm/x86_64/lib/libc.a(dprintf.o)
 .debug_info    0x000000000005310d      0x36f 0x1 /home/ashwin/pop-compiler-lkvm/x86_64/lib/libc.a(fclose.o)
 .debug_info    0x000000000005347c      0x31b 0x1 /home/ashwin/pop-compiler-lkvm/x86_64/lib/libc.a(feof.o)
 .debug_info    0x0000000000053797      0x31b 0x1 /home/ashwin/pop-compiler-lkvm/x86_64/lib/libc.a(ferror.o)
 .debug_info    0x0000000000053ab2      0x35c 0x1 /home/ashwin/pop-compiler-lkvm/x86_64/lib/libc.a(fflush.o)
 .debug_info    0x0000000000053e0e      0x374 0x1 /home/ashwin/pop-compiler-lkvm/x86_64/lib/libc.a(fgets.o)
 .debug_info    0x0000000000054182      0x46a 0x1 /home/ashwin/pop-compiler-lkvm/x86_64/lib/libc.a(fopen.o)
 .debug_info    0x00000000000545ec      0x124 0x1 /home/ashwin/pop-compiler-lkvm/x86_64/lib/libc.a(fprintf.o)
 .debug_info    0x0000000000054710      0x310 0x1 /home/ashwin/pop-compiler-lkvm/x86_64/lib/libc.a(fputc.o)
 .debug_info    0x0000000000054a20      0x124 0x1 /home/ashwin/pop-compiler-lkvm/x86_64/lib/libc.a(fscanf.o)
 .debug_info    0x0000000000054b44      0x3c7 0x1 /home/ashwin/pop-compiler-lkvm/x86_64/lib/libc.a(fseek.o)
 .debug_info    0x0000000000054f0b      0x3df 0x1 /home/ashwin/pop-compiler-lkvm/x86_64/lib/libc.a(fwrite.o)
 .debug_info    0x00000000000552ea       0xd1 0x1 /home/ashwin/pop-compiler-lkvm/x86_64/lib/libc.a(getline.o)
 .debug_info    0x00000000000553bb      0x341 0x1 /home/ashwin/pop-compiler-lkvm/x86_64/lib/libc.a(ofl.o)
 .debug_info    0x00000000000556fc      0x334 0x1 /home/ashwin/pop-compiler-lkvm/x86_64/lib/libc.a(perror.o)
 .debug_info    0x0000000000055a30       0xfa 0x1 /home/ashwin/pop-compiler-lkvm/x86_64/lib/libc.a(printf.o)
 .debug_info    0x0000000000055b2a       0x5b 0x1 /home/ashwin/pop-compiler-lkvm/x86_64/lib/libc.a(putchar.o)
 .debug_info    0x0000000000055b85       0x91 0x1 /home/ashwin/pop-compiler-lkvm/x86_64/lib/libc.a(puts.o)
 .debug_info    0x0000000000055c16      0x111 0x1 /home/ashwin/pop-compiler-lkvm/x86_64/lib/libc.a(remove.o)
 .debug_info    0x0000000000055d27       0xf9 0x1 /home/ashwin/pop-compiler-lkvm/x86_64/lib/libc.a(rename.o)
 .debug_info    0x0000000000055e20      0x134 0x1 /home/ashwin/pop-compiler-lkvm/x86_64/lib/libc.a(snprintf.o)
 .debug_info    0x0000000000055f54      0x113 0x1 /home/ashwin/pop-compiler-lkvm/x86_64/lib/libc.a(sprintf.o)
 .debug_info    0x0000000000056067      0x109 0x1 /home/ashwin/pop-compiler-lkvm/x86_64/lib/libc.a(sscanf.o)
 .debug_info    0x0000000000056170      0x336 0x1 /home/ashwin/pop-compiler-lkvm/x86_64/lib/libc.a(stderr.o)
 .debug_info    0x00000000000564a6      0x337 0x1 /home/ashwin/pop-compiler-lkvm/x86_64/lib/libc.a(stdout.o)
 .debug_info    0x00000000000567dd      0x3b8 0x1 /home/ashwin/pop-compiler-lkvm/x86_64/lib/libc.a(vdprintf.o)
 .debug_info    0x0000000000056b95     0x119d 0x1 /home/ashwin/pop-compiler-lkvm/x86_64/lib/libc.a(vfprintf.o)
 .debug_info    0x0000000000057d32      0x786 0x1 /home/ashwin/pop-compiler-lkvm/x86_64/lib/libc.a(vfscanf.o)
 .debug_info    0x00000000000584b8      0x44f 0x1 /home/ashwin/pop-compiler-lkvm/x86_64/lib/libc.a(vsnprintf.o)
 .debug_info    0x0000000000058907       0xd5 0x1 /home/ashwin/pop-compiler-lkvm/x86_64/lib/libc.a(vsprintf.o)
 .debug_info    0x00000000000589dc      0x3b8 0x1 /home/ashwin/pop-compiler-lkvm/x86_64/lib/libc.a(vsscanf.o)
 .debug_info    0x0000000000058d94       0xbf 0x1 /home/ashwin/pop-compiler-lkvm/x86_64/lib/libc.a(atoi.o)
 .debug_info    0x0000000000058e53      0x5dc 0x1 /home/ashwin/pop-compiler-lkvm/x86_64/lib/libc.a(strtol.o)
 .debug_info    0x000000000005942f       0xf3 0x1 /home/ashwin/pop-compiler-lkvm/x86_64/lib/libc.a(memchr.o)
 .debug_info    0x0000000000059522       0x9a 0x1 /home/ashwin/pop-compiler-lkvm/x86_64/lib/libc.a(strcasestr.o)
 .debug_info    0x00000000000595bc       0x9b 0x1 /home/ashwin/pop-compiler-lkvm/x86_64/lib/libc.a(strchr.o)
 .debug_info    0x0000000000059657       0xcd 0x1 /home/ashwin/pop-compiler-lkvm/x86_64/lib/libc.a(strchrnul.o)
 .debug_info    0x0000000000059724       0x85 0x1 /home/ashwin/pop-compiler-lkvm/x86_64/lib/libc.a(strcmp.o)
 .debug_info    0x00000000000597a9       0x83 0x1 /home/ashwin/pop-compiler-lkvm/x86_64/lib/libc.a(strcpy.o)
 .debug_info    0x000000000005982c       0x9a 0x1 /home/ashwin/pop-compiler-lkvm/x86_64/lib/libc.a(strdup.o)
 .debug_info    0x00000000000598c6       0xae 0x1 /home/ashwin/pop-compiler-lkvm/x86_64/lib/libc.a(strlen.o)
 .debug_info    0x0000000000059974      0x1cd 0x1 /home/ashwin/pop-compiler-lkvm/x86_64/lib/libc.a(strncasecmp.o)
 .debug_info    0x0000000000059b41       0xca 0x1 /home/ashwin/pop-compiler-lkvm/x86_64/lib/libc.a(strncmp.o)
 .debug_info    0x0000000000059c0b       0xa4 0x1 /home/ashwin/pop-compiler-lkvm/x86_64/lib/libc.a(strncpy.o)
 .debug_info    0x0000000000059caf       0xa9 0x1 /home/ashwin/pop-compiler-lkvm/x86_64/lib/libc.a(strndup.o)
 .debug_info    0x0000000000059d58       0x95 0x1 /home/ashwin/pop-compiler-lkvm/x86_64/lib/libc.a(strnlen.o)
 .debug_info    0x0000000000059ded       0xbc 0x1 /home/ashwin/pop-compiler-lkvm/x86_64/lib/libc.a(strspn.o)
 .debug_info    0x0000000000059ea9      0x363 0x1 /home/ashwin/pop-compiler-lkvm/x86_64/lib/libc.a(strstr.o)
 .debug_info    0x000000000005a20c       0x98 0x1 /home/ashwin/pop-compiler-lkvm/x86_64/lib/libc.a(strtok.o)
 .debug_info    0x000000000005a2a4       0x67 0x1 /home/ashwin/pop-compiler-lkvm/x86_64/lib/libc.a(mkstemp.o)
 .debug_info    0x000000000005a30b      0x11a 0x1 /home/ashwin/pop-compiler-lkvm/x86_64/lib/libc.a(tcgetattr.o)
 .debug_info    0x000000000005a425      0x12e 0x1 /home/ashwin/pop-compiler-lkvm/x86_64/lib/libc.a(tcsetattr.o)
 .debug_info    0x000000000005a553      0x23e 0x1 /home/ashwin/pop-compiler-lkvm/x86_64/lib/libc.a(__lock.o)
 .debug_info    0x000000000005a791      0x141 0x1 /home/ashwin/pop-compiler-lkvm/x86_64/lib/libc.a(__syscall_cp.o)
 .debug_info    0x000000000005a8d2      0x227 0x1 /home/ashwin/pop-compiler-lkvm/x86_64/lib/libc.a(__wait.o)
 .debug_info    0x000000000005aaf9      0x10b 0x1 /home/ashwin/pop-compiler-lkvm/x86_64/lib/libc.a(pthread_cleanup_push.o)
 .debug_info    0x000000000005ac04      0x11b 0x1 /home/ashwin/pop-compiler-lkvm/x86_64/lib/libc.a(pthread_cond_init.o)
 .debug_info    0x000000000005ad1f      0x23b 0x1 /home/ashwin/pop-compiler-lkvm/x86_64/lib/libc.a(pthread_cond_signal.o)
 .debug_info    0x000000000005af5a     0x12ac 0x1 /home/ashwin/pop-compiler-lkvm/x86_64/lib/libc.a(pthread_cond_timedwait.o)
 .debug_info    0x000000000005c206      0x168 0x1 /home/ashwin/pop-compiler-lkvm/x86_64/lib/libc.a(pthread_cond_wait.o)
 .debug_info    0x000000000005c36e     0x109a 0x1 /home/ashwin/pop-compiler-lkvm/x86_64/lib/libc.a(pthread_create.o)
 .debug_info    0x000000000005d408      0x4ec 0x1 /home/ashwin/pop-compiler-lkvm/x86_64/lib/libc.a(pthread_join.o)
 .debug_info    0x000000000005d8f4      0x418 0x1 /home/ashwin/pop-compiler-lkvm/x86_64/lib/libc.a(pthread_kill.o)
 .debug_info    0x000000000005dd0c      0x125 0x1 /home/ashwin/pop-compiler-lkvm/x86_64/lib/libc.a(pthread_mutex_init.o)
 .debug_info    0x000000000005de31      0x13f 0x1 /home/ashwin/pop-compiler-lkvm/x86_64/lib/libc.a(pthread_mutex_lock.o)
 .debug_info    0x000000000005df70      0x5bd 0x1 /home/ashwin/pop-compiler-lkvm/x86_64/lib/libc.a(pthread_mutex_timedlock.o)
 .debug_info    0x000000000005e52d      0x5b8 0x1 /home/ashwin/pop-compiler-lkvm/x86_64/lib/libc.a(pthread_mutex_trylock.o)
 .debug_info    0x000000000005eae5      0x60d 0x1 /home/ashwin/pop-compiler-lkvm/x86_64/lib/libc.a(pthread_mutex_unlock.o)
 .debug_info    0x000000000005f0f2       0xd6 0x1 /home/ashwin/pop-compiler-lkvm/x86_64/lib/libc.a(pthread_rwlock_rdlock.o)
 .debug_info    0x000000000005f1c8      0x23f 0x1 /home/ashwin/pop-compiler-lkvm/x86_64/lib/libc.a(pthread_rwlock_timedrdlock.o)
 .debug_info    0x000000000005f407      0x157 0x1 /home/ashwin/pop-compiler-lkvm/x86_64/lib/libc.a(pthread_rwlock_tryrdlock.o)
 .debug_info    0x000000000005f55e      0x2b0 0x1 /home/ashwin/pop-compiler-lkvm/x86_64/lib/libc.a(pthread_rwlock_unlock.o)
 .debug_info    0x000000000005f80e       0xd6 0x1 /home/ashwin/pop-compiler-lkvm/x86_64/lib/libc.a(pthread_rwlock_wrlock.o)
 .debug_info    0x000000000005f8e4      0x3d1 0x1 /home/ashwin/pop-compiler-lkvm/x86_64/lib/libc.a(pthread_setcancelstate.o)
 .debug_info    0x000000000005fcb5      0x196 0x1 /home/ashwin/pop-compiler-lkvm/x86_64/lib/libc.a(pthread_sigmask.o)
 .debug_info    0x000000000005fe4b       0x55 0x1 /home/ashwin/pop-compiler-lkvm/x86_64/lib/libc.a(pthread_testcancel.o)
 .debug_info    0x000000000005fea0      0x252 0x1 /home/ashwin/pop-compiler-lkvm/x86_64/lib/libc.a(vmlock.o)
 .debug_info    0x00000000000600f2      0x12f 0x1 /home/ashwin/pop-compiler-lkvm/x86_64/lib/libc.a(gmtime.o)
 .debug_info    0x0000000000060221      0x133 0x1 /home/ashwin/pop-compiler-lkvm/x86_64/lib/libc.a(gmtime_r.o)
 .debug_info    0x0000000000060354       0x9d 0x1 /home/ashwin/pop-compiler-lkvm/x86_64/lib/libc.a(time.o)
 .debug_info    0x00000000000603f1       0x57 0x1 /home/ashwin/pop-compiler-lkvm/x86_64/lib/libc.a(_exit.o)
 .debug_info    0x0000000000060448       0xf8 0x1 /home/ashwin/pop-compiler-lkvm/x86_64/lib/libc.a(access.o)
 .debug_info    0x0000000000060540       0x9a 0x1 /home/ashwin/pop-compiler-lkvm/x86_64/lib/libc.a(close.o)
 .debug_info    0x00000000000605da       0x62 0x1 /home/ashwin/pop-compiler-lkvm/x86_64/lib/libc.a(fdatasync.o)
 .debug_info    0x000000000006063c       0x62 0x1 /home/ashwin/pop-compiler-lkvm/x86_64/lib/libc.a(fsync.o)
 .debug_info    0x000000000006069e       0xf3 0x1 /home/ashwin/pop-compiler-lkvm/x86_64/lib/libc.a(ftruncate.o)
 .debug_info    0x0000000000060791       0xa9 0x1 /home/ashwin/pop-compiler-lkvm/x86_64/lib/libc.a(getpid.o)
 .debug_info    0x000000000006083a      0x134 0x1 /home/ashwin/pop-compiler-lkvm/x86_64/lib/libc.a(isatty.o)
 .debug_info    0x000000000006096e      0x13b 0x1 /home/ashwin/pop-compiler-lkvm/x86_64/lib/libc.a(lchown.o)
 .debug_info    0x0000000000060aa9       0xf9 0x1 /home/ashwin/pop-compiler-lkvm/x86_64/lib/libc.a(link.o)
 .debug_info    0x0000000000060ba2      0x115 0x1 /home/ashwin/pop-compiler-lkvm/x86_64/lib/libc.a(lseek.o)
 .debug_info    0x0000000000060cb7       0xb8 0x1 /home/ashwin/pop-compiler-lkvm/x86_64/lib/libc.a(pread.o)
 .debug_info    0x0000000000060d6f       0xe6 0x1 /home/ashwin/pop-compiler-lkvm/x86_64/lib/libc.a(preadv.o)
 .debug_info    0x0000000000060e55       0xbd 0x1 /home/ashwin/pop-compiler-lkvm/x86_64/lib/libc.a(pwrite.o)
 .debug_info    0x0000000000060f12       0xe6 0x1 /home/ashwin/pop-compiler-lkvm/x86_64/lib/libc.a(pwritev.o)
 .debug_info    0x0000000000060ff8       0x9e 0x1 /home/ashwin/pop-compiler-lkvm/x86_64/lib/libc.a(read.o)
 .debug_info    0x0000000000061096      0x13a 0x1 /home/ashwin/pop-compiler-lkvm/x86_64/lib/libc.a(readlink.o)
 .debug_info    0x00000000000611d0       0xcc 0x1 /home/ashwin/pop-compiler-lkvm/x86_64/lib/libc.a(readv.o)
 .debug_info    0x000000000006129c       0xa0 0x1 /home/ashwin/pop-compiler-lkvm/x86_64/lib/libc.a(sleep.o)
 .debug_info    0x000000000006133c       0xf9 0x1 /home/ashwin/pop-compiler-lkvm/x86_64/lib/libc.a(symlink.o)
 .debug_info    0x0000000000061435      0x104 0x1 /home/ashwin/pop-compiler-lkvm/x86_64/lib/libc.a(truncate.o)
 .debug_info    0x0000000000061539       0xd6 0x1 /home/ashwin/pop-compiler-lkvm/x86_64/lib/libc.a(unlink.o)
 .debug_info    0x000000000006160f       0xa7 0x1 /home/ashwin/pop-compiler-lkvm/x86_64/lib/libc.a(usleep.o)
 .debug_info    0x00000000000616b6       0xa3 0x1 /home/ashwin/pop-compiler-lkvm/x86_64/lib/libc.a(write.o)
 .debug_info    0x0000000000061759       0xcc 0x1 /home/ashwin/pop-compiler-lkvm/x86_64/lib/libc.a(writev.o)
 .debug_info    0x0000000000061825      0x107 0x1 /home/ashwin/pop-compiler-lkvm/x86_64/lib/libc.a(tolower.o)
 .debug_info    0x000000000006192c       0x45 0x1 /home/ashwin/pop-compiler-lkvm/x86_64/lib/libc.a(__environ.o)
 .debug_info    0x0000000000061971      0x79d 0x1 /home/ashwin/pop-compiler-lkvm/x86_64/lib/libc.a(__init_tls.o)
 .debug_info    0x000000000006210e      0x25a 0x1 /home/ashwin/pop-compiler-lkvm/x86_64/lib/libc.a(platform.o)
 .debug_info    0x0000000000062368       0xe4 0x1 /home/ashwin/pop-compiler-lkvm/x86_64/lib/libc.a(_Exit.o)
 .debug_info    0x000000000006244c      0x940 0x1 /home/ashwin/pop-compiler-lkvm/x86_64/lib/libc.a(floatscan.o)
 .debug_info    0x0000000000062d8c      0x3f0 0x1 /home/ashwin/pop-compiler-lkvm/x86_64/lib/libc.a(intscan.o)
 .debug_info    0x000000000006317c       0x8e 0x1 /home/ashwin/pop-compiler-lkvm/x86_64/lib/libc.a(procfdname.o)
 .debug_info    0x000000000006320a      0x340 0x1 /home/ashwin/pop-compiler-lkvm/x86_64/lib/libc.a(shgetc.o)
 .debug_info    0x000000000006354a      0x622 0x1 /home/ashwin/pop-compiler-lkvm/x86_64/lib/libc.a(expand_heap.o)
 .debug_info    0x0000000000063b6c       0xec 0x1 /home/ashwin/pop-compiler-lkvm/x86_64/lib/libc.a(__fpclassifyl.o)
 .debug_info    0x0000000000063c58       0xd3 0x1 /home/ashwin/pop-compiler-lkvm/x86_64/lib/libc.a(__signbitl.o)
 .debug_info    0x0000000000063d2b       0xe9 0x1 /home/ashwin/pop-compiler-lkvm/x86_64/lib/libc.a(copysignl.o)
 .debug_info    0x0000000000063e14       0xf6 0x1 /home/ashwin/pop-compiler-lkvm/x86_64/lib/libc.a(frexpl.o)
 .debug_info    0x0000000000063f0a       0xc9 0x1 /home/ashwin/pop-compiler-lkvm/x86_64/lib/libc.a(scalbn.o)
 .debug_info    0x0000000000063fd3       0xe2 0x1 /home/ashwin/pop-compiler-lkvm/x86_64/lib/libc.a(scalbnl.o)
 .debug_info    0x00000000000640b5      0x517 0x1 /home/ashwin/pop-compiler-lkvm/x86_64/lib/libc.a(mbrtowc.o)
 .debug_info    0x00000000000645cc       0x9f 0x1 /home/ashwin/pop-compiler-lkvm/x86_64/lib/libc.a(mbsinit.o)
 .debug_info    0x000000000006466b       0x81 0x1 /home/ashwin/pop-compiler-lkvm/x86_64/lib/libc.a(wctomb.o)
 .debug_info    0x00000000000646ec      0x651 0x1 /home/ashwin/pop-compiler-lkvm/x86_64/lib/libc.a(sigaction.o)
 .debug_info    0x0000000000064d3d      0x501 0x1 /home/ashwin/pop-compiler-lkvm/x86_64/lib/libc.a(__fdopen.o)
 .debug_info    0x000000000006523e       0x7b 0x1 /home/ashwin/pop-compiler-lkvm/x86_64/lib/libc.a(__fmodeflags.o)
 .debug_info    0x00000000000652b9      0x7df 0x1 /home/ashwin/pop-compiler-lkvm/x86_64/lib/libc.a(__lockfile.o)
 .debug_info    0x0000000000065a98      0x31f 0x1 /home/ashwin/pop-compiler-lkvm/x86_64/lib/libc.a(__overflow.o)
 .debug_info    0x0000000000065db7      0x385 0x1 /home/ashwin/pop-compiler-lkvm/x86_64/lib/libc.a(__stdio_close.o)
 .debug_info    0x000000000006613c      0x3f7 0x1 /home/ashwin/pop-compiler-lkvm/x86_64/lib/libc.a(__stdio_read.o)
 .debug_info    0x0000000000066533      0x3ad 0x1 /home/ashwin/pop-compiler-lkvm/x86_64/lib/libc.a(__stdio_seek.o)
 .debug_info    0x00000000000668e0      0x427 0x1 /home/ashwin/pop-compiler-lkvm/x86_64/lib/libc.a(__stdio_write.o)
 .debug_info    0x0000000000066d07      0x3f0 0x1 /home/ashwin/pop-compiler-lkvm/x86_64/lib/libc.a(__stdout_write.o)
 .debug_info    0x00000000000670f7      0x34c 0x1 /home/ashwin/pop-compiler-lkvm/x86_64/lib/libc.a(__string_read.o)
 .debug_info    0x0000000000067443      0x314 0x1 /home/ashwin/pop-compiler-lkvm/x86_64/lib/libc.a(__towrite.o)
 .debug_info    0x0000000000067757      0x310 0x1 /home/ashwin/pop-compiler-lkvm/x86_64/lib/libc.a(__uflow.o)
 .debug_info    0x0000000000067a67      0x333 0x1 /home/ashwin/pop-compiler-lkvm/x86_64/lib/libc.a(fputs.o)
 .debug_info    0x0000000000067d9a      0x3d8 0x1 /home/ashwin/pop-compiler-lkvm/x86_64/lib/libc.a(getdelim.o)
 .debug_info    0x0000000000068172      0x315 0x1 /home/ashwin/pop-compiler-lkvm/x86_64/lib/libc.a(ofl_add.o)
 .debug_info    0x0000000000068487       0xbe 0x1 /home/ashwin/pop-compiler-lkvm/x86_64/lib/libc.a(memcmp.o)
 .debug_info    0x0000000000068545       0xd4 0x1 /home/ashwin/pop-compiler-lkvm/x86_64/lib/libc.a(stpcpy.o)
 .debug_info    0x0000000000068619       0xf2 0x1 /home/ashwin/pop-compiler-lkvm/x86_64/lib/libc.a(stpncpy.o)
 .debug_info    0x000000000006870b       0xbe 0x1 /home/ashwin/pop-compiler-lkvm/x86_64/lib/libc.a(strcspn.o)
 .debug_info    0x00000000000687c9       0xc4 0x1 /home/ashwin/pop-compiler-lkvm/x86_64/lib/libc.a(mkostemps.o)
 .debug_info    0x000000000006888d      0x19f 0x1 /home/ashwin/pop-compiler-lkvm/x86_64/lib/libc.a(__timedwait.o)
 .debug_info    0x0000000000068a2c      0x23f 0x1 /home/ashwin/pop-compiler-lkvm/x86_64/lib/libc.a(pthread_rwlock_timedwrlock.o)
 .debug_info    0x0000000000068c6b      0x136 0x1 /home/ashwin/pop-compiler-lkvm/x86_64/lib/libc.a(pthread_rwlock_trywrlock.o)
 .debug_info    0x0000000000068da1      0x200 0x1 /home/ashwin/pop-compiler-lkvm/x86_64/lib/libc.a(__secs_to_tm.o)
 .debug_info    0x0000000000068fa1      0xbc3 0x1 /home/ashwin/pop-compiler-lkvm/x86_64/lib/libc.a(__tz.o)
 .debug_info    0x0000000000069b64       0xd6 0x1 /home/ashwin/pop-compiler-lkvm/x86_64/lib/libc.a(__year_to_secs.o)
 .debug_info    0x0000000000069c3a      0x16b 0x1 /home/ashwin/pop-compiler-lkvm/x86_64/lib/libc.a(clock_gettime.o)
 .debug_info    0x0000000000069da5       0xaf 0x1 /home/ashwin/pop-compiler-lkvm/x86_64/lib/libc.a(nanosleep.o)
 .debug_info    0x0000000000069e54       0x5e 0x1 /home/ashwin/pop-compiler-lkvm/x86_64/lib/libc.a(internal.o)
 .debug_info    0x0000000000069eb2      0x467 0x1 /home/ashwin/pop-compiler-lkvm/x86_64/lib/libc.a(wcrtomb.o)
 .debug_info    0x000000000006a319      0x33c 0x1 /home/ashwin/pop-compiler-lkvm/x86_64/lib/libc.a(__stdio_exit.o)
 .debug_info    0x000000000006a655      0x316 0x1 /home/ashwin/pop-compiler-lkvm/x86_64/lib/libc.a(__toread.o)
 .debug_info    0x000000000006a96b       0xdb 0x1 /home/ashwin/pop-compiler-lkvm/x86_64/lib/libc.a(__randname.o)
 .debug_info    0x000000000006aa46      0x32e 0x1 /home/ashwin/pop-compiler-lkvm/x86_64/lib/libc.a(__map_file.o)
 .debug_info    0x000000000006ad74       0xa2 0x1 /home/ashwin/pop-compiler-lkvm/x86_64/lib/libc.a(__month_to_secs.o)

.debug_macinfo  0x0000000000000000      0x134
 .debug_macinfo
                0x0000000000000000        0x1 0x1 x86/bios.o
 .debug_macinfo
                0x0000000000000001        0x1 0x1 builtin-balloon.o
 .debug_macinfo
                0x0000000000000002        0x1 0x1 builtin-debug.o
 .debug_macinfo
                0x0000000000000003        0x1 0x1 builtin-help.o
 .debug_macinfo
                0x0000000000000004        0x1 0x1 builtin-list.o
 .debug_macinfo
                0x0000000000000005        0x1 0x1 builtin-stat.o
 .debug_macinfo
                0x0000000000000006        0x1 0x1 builtin-pause.o
 .debug_macinfo
                0x0000000000000007        0x1 0x1 builtin-resume.o
 .debug_macinfo
                0x0000000000000008        0x1 0x1 builtin-run.o
 .debug_macinfo
                0x0000000000000009        0x1 0x1 builtin-setup.o
 .debug_macinfo
                0x000000000000000a        0x1 0x1 builtin-stop.o
 .debug_macinfo
                0x000000000000000b        0x1 0x1 builtin-version.o
 .debug_macinfo
                0x000000000000000c        0x1 0x1 devices.o
 .debug_macinfo
                0x000000000000000d        0x1 0x1 kvm-cpu_common.o
 .debug_macinfo
                0x000000000000000e        0x1 0x1 disk/core.o
 .debug_macinfo
                0x000000000000000f        0x1 0x1 framebuffer.o
 .debug_macinfo
                0x0000000000000010        0x1 0x1 guest_compat.o
 .debug_macinfo
                0x0000000000000011        0x1 0x1 hw/rtc.o
 .debug_macinfo
                0x0000000000000012        0x1 0x1 hw/serial.o
 .debug_macinfo
                0x0000000000000013        0x1 0x1 ioport_common.o
 .debug_macinfo
                0x0000000000000014        0x1 0x1 irq_common.o
 .debug_macinfo
                0x0000000000000015        0x1 0x1 x86/kvm-cpu.o
 .debug_macinfo
                0x0000000000000016        0x1 0x1 kvm_common.o
 .debug_macinfo
                0x0000000000000017        0x1 0x1 main.o
 .debug_macinfo
                0x0000000000000018        0x1 0x1 mmio_common.o
 .debug_macinfo
                0x0000000000000019        0x1 0x1 pci_common.o
 .debug_macinfo
                0x000000000000001a        0x1 0x1 term.o
 .debug_macinfo
                0x000000000000001b        0x1 0x1 virtio/blk.o
 .debug_macinfo
                0x000000000000001c        0x1 0x1 virtio/scsi.o
 .debug_macinfo
                0x000000000000001d        0x1 0x1 virtio/console.o
 .debug_macinfo
                0x000000000000001e        0x1 0x1 virtio/core.o
 .debug_macinfo
                0x000000000000001f        0x1 0x1 virtio/net.o
 .debug_macinfo
                0x0000000000000020        0x1 0x1 virtio/rng.o
 .debug_macinfo
                0x0000000000000021        0x1 0x1 virtio/balloon.o
 .debug_macinfo
                0x0000000000000022        0x1 0x1 virtio/pci.o
 .debug_macinfo
                0x0000000000000023        0x1 0x1 disk/blk.o
 .debug_macinfo
                0x0000000000000024        0x1 0x1 disk/qcow.o
 .debug_macinfo
                0x0000000000000025        0x1 0x1 disk/raw.o
 .debug_macinfo
                0x0000000000000026        0x1 0x1 ioeventfd.o
 .debug_macinfo
                0x0000000000000027        0x1 0x1 net/uip/core.o
 .debug_macinfo
                0x0000000000000028        0x1 0x1 net/uip/arp.o
 .debug_macinfo
                0x0000000000000029        0x1 0x1 net/uip/icmp.o
 .debug_macinfo
                0x000000000000002a        0x1 0x1 net/uip/ipv4.o
 .debug_macinfo
                0x000000000000002b        0x1 0x1 net/uip/tcp.o
 .debug_macinfo
                0x000000000000002c        0x1 0x1 net/uip/udp.o
 .debug_macinfo
                0x000000000000002d        0x1 0x1 net/uip/buf.o
 .debug_macinfo
                0x000000000000002e        0x1 0x1 net/uip/csum.o
 .debug_macinfo
                0x000000000000002f        0x1 0x1 net/uip/dhcp.o
 .debug_macinfo
                0x0000000000000030        0x1 0x1 kvm-cmd.o
 .debug_macinfo
                0x0000000000000031        0x1 0x1 util/init.o
 .debug_macinfo
                0x0000000000000032        0x1 0x1 util/iovec.o
 .debug_macinfo
                0x0000000000000033        0x1 0x1 util/rbtree.o
 .debug_macinfo
                0x0000000000000034        0x1 0x1 kvm-ipc.o
 .debug_macinfo
                0x0000000000000035        0x1 0x1 util/read-write.o
 .debug_macinfo
                0x0000000000000036        0x1 0x1 util/parse-options.o
 .debug_macinfo
                0x0000000000000037        0x1 0x1 util/threadpool.o
 .debug_macinfo
                0x0000000000000038        0x1 0x1 util/rbtree-interval.o
 .debug_macinfo
                0x0000000000000039        0x1 0x1 util/strbuf.o
 .debug_macinfo
                0x000000000000003a        0x1 0x1 util/util.o
 .debug_macinfo
                0x000000000000003b        0x1 0x1 hw/pci-shmem.o
 .debug_macinfo
                0x000000000000003c        0x1 0x1 hw/i8042.o
 .debug_macinfo
                0x000000000000003d        0x1 0x1 virtio/9p.o
 .debug_macinfo
                0x000000000000003e        0x1 0x1 builtin-sandbox.o
 .debug_macinfo
                0x000000000000003f        0x1 0x1 virtio/mmio.o
 .debug_macinfo
                0x0000000000000040        0x1 0x1 virtio/9p-pdu.o
 .debug_macinfo
                0x0000000000000041        0x1 0x1 x86/kvm.o
 .debug_macinfo
                0x0000000000000042        0x1 0x1 x86/boot.o
 .debug_macinfo
                0x0000000000000043        0x1 0x1 x86/cpuid.o
 .debug_macinfo
                0x0000000000000044        0x1 0x1 x86/interrupt.o
 .debug_macinfo
                0x0000000000000045        0x1 0x1 x86/ioport.o
 .debug_macinfo
                0x0000000000000046        0x1 0x1 x86/irq.o
 .debug_macinfo
                0x0000000000000047        0x1 0x1 x86/mptable.o
 .debug_macinfo
                0x0000000000000048        0x1 0x1 hw/vesa.o
 .debug_macinfo
                0x0000000000000049        0x1 0x1 /home/ashwin/pop-compiler-lkvm/x86_64/lib/crt1.o
 .debug_macinfo
                0x000000000000004a        0x1 0x1 /home/ashwin/pop-compiler-lkvm/x86_64/lib/libc.a(sysconf.o)
 .debug_macinfo
                0x000000000000004b        0x1 0x1 /home/ashwin/pop-compiler-lkvm/x86_64/lib/libc.a(closedir.o)
 .debug_macinfo
                0x000000000000004c        0x1 0x1 /home/ashwin/pop-compiler-lkvm/x86_64/lib/libc.a(dirfd.o)
 .debug_macinfo
                0x000000000000004d        0x1 0x1 /home/ashwin/pop-compiler-lkvm/x86_64/lib/libc.a(opendir.o)
 .debug_macinfo
                0x000000000000004e        0x1 0x1 /home/ashwin/pop-compiler-lkvm/x86_64/lib/libc.a(readdir.o)
 .debug_macinfo
                0x000000000000004f        0x1 0x1 /home/ashwin/pop-compiler-lkvm/x86_64/lib/libc.a(readdir_r.o)
 .debug_macinfo
                0x0000000000000050        0x1 0x1 /home/ashwin/pop-compiler-lkvm/x86_64/lib/libc.a(seekdir.o)
 .debug_macinfo
                0x0000000000000051        0x1 0x1 /home/ashwin/pop-compiler-lkvm/x86_64/lib/libc.a(__libc_start_main.o)
 .debug_macinfo
                0x0000000000000052        0x1 0x1 /home/ashwin/pop-compiler-lkvm/x86_64/lib/libc.a(getenv.o)
 .debug_macinfo
                0x0000000000000053        0x1 0x1 /home/ashwin/pop-compiler-lkvm/x86_64/lib/libc.a(__errno_location.o)
 .debug_macinfo
                0x0000000000000054        0x1 0x1 /home/ashwin/pop-compiler-lkvm/x86_64/lib/libc.a(strerror.o)
 .debug_macinfo
                0x0000000000000055        0x1 0x1 /home/ashwin/pop-compiler-lkvm/x86_64/lib/libc.a(atexit.o)
 .debug_macinfo
                0x0000000000000056        0x1 0x1 /home/ashwin/pop-compiler-lkvm/x86_64/lib/libc.a(exit.o)
 .debug_macinfo
                0x0000000000000057        0x1 0x1 /home/ashwin/pop-compiler-lkvm/x86_64/lib/libc.a(fcntl.o)
 .debug_macinfo
                0x0000000000000058        0x1 0x1 /home/ashwin/pop-compiler-lkvm/x86_64/lib/libc.a(open.o)
 .debug_macinfo
                0x0000000000000059        0x1 0x1 /home/ashwin/pop-compiler-lkvm/x86_64/lib/libc.a(libc.o)
 .debug_macinfo
                0x000000000000005a        0x1 0x1 /home/ashwin/pop-compiler-lkvm/x86_64/lib/libc.a(syscall_ret.o)
 .debug_macinfo
                0x000000000000005b        0x1 0x1 /home/ashwin/pop-compiler-lkvm/x86_64/lib/libc.a(getpagesize.o)
 .debug_macinfo
                0x000000000000005c        0x1 0x1 /home/ashwin/pop-compiler-lkvm/x86_64/lib/libc.a(epoll.o)
 .debug_macinfo
                0x000000000000005d        0x1 0x1 /home/ashwin/pop-compiler-lkvm/x86_64/lib/libc.a(eventfd.o)
 .debug_macinfo
                0x000000000000005e        0x1 0x1 /home/ashwin/pop-compiler-lkvm/x86_64/lib/libc.a(prctl.o)
 .debug_macinfo
                0x000000000000005f        0x1 0x1 /home/ashwin/pop-compiler-lkvm/x86_64/lib/libc.a(sysinfo.o)
 .debug_macinfo
                0x0000000000000060        0x1 0x1 /home/ashwin/pop-compiler-lkvm/x86_64/lib/libc.a(__lctrans.o)
 .debug_macinfo
                0x0000000000000061        0x1 0x1 /home/ashwin/pop-compiler-lkvm/x86_64/lib/libc.a(calloc.o)
 .debug_macinfo
                0x0000000000000062        0x1 0x1 /home/ashwin/pop-compiler-lkvm/x86_64/lib/libc.a(lite_malloc.o)
 .debug_macinfo
                0x0000000000000063        0x1 0x1 /home/ashwin/pop-compiler-lkvm/x86_64/lib/libc.a(malloc.o)
 .debug_macinfo
                0x0000000000000064        0x1 0x1 /home/ashwin/pop-compiler-lkvm/x86_64/lib/libc.a(popcorn_malloc.o)
 .debug_macinfo
                0x0000000000000065        0x1 0x1 /home/ashwin/pop-compiler-lkvm/x86_64/lib/libc.a(getrlimit.o)
 .debug_macinfo
                0x0000000000000066        0x1 0x1 /home/ashwin/pop-compiler-lkvm/x86_64/lib/libc.a(ioctl.o)
 .debug_macinfo
                0x0000000000000067        0x1 0x1 /home/ashwin/pop-compiler-lkvm/x86_64/lib/libc.a(mntent.o)
 .debug_macinfo
                0x0000000000000068        0x1 0x1 /home/ashwin/pop-compiler-lkvm/x86_64/lib/libc.a(openpty.o)
 .debug_macinfo
                0x0000000000000069        0x1 0x1 /home/ashwin/pop-compiler-lkvm/x86_64/lib/libc.a(realpath.o)
 .debug_macinfo
                0x000000000000006a        0x1 0x1 /home/ashwin/pop-compiler-lkvm/x86_64/lib/libc.a(uname.o)
 .debug_macinfo
                0x000000000000006b        0x1 0x1 /home/ashwin/pop-compiler-lkvm/x86_64/lib/libc.a(madvise.o)
 .debug_macinfo
                0x000000000000006c        0x1 0x1 /home/ashwin/pop-compiler-lkvm/x86_64/lib/libc.a(mmap.o)
 .debug_macinfo
                0x000000000000006d        0x1 0x1 /home/ashwin/pop-compiler-lkvm/x86_64/lib/libc.a(mprotect.o)
 .debug_macinfo
                0x000000000000006e        0x1 0x1 /home/ashwin/pop-compiler-lkvm/x86_64/lib/libc.a(mremap.o)
 .debug_macinfo
                0x000000000000006f        0x1 0x1 /home/ashwin/pop-compiler-lkvm/x86_64/lib/libc.a(munmap.o)
 .debug_macinfo
                0x0000000000000070        0x1 0x1 /home/ashwin/pop-compiler-lkvm/x86_64/lib/libc.a(shm_open.o)
 .debug_macinfo
                0x0000000000000071        0x1 0x1 /home/ashwin/pop-compiler-lkvm/x86_64/lib/libc.a(accept.o)
 .debug_macinfo
                0x0000000000000072        0x1 0x1 /home/ashwin/pop-compiler-lkvm/x86_64/lib/libc.a(bind.o)
 .debug_macinfo
                0x0000000000000073        0x1 0x1 /home/ashwin/pop-compiler-lkvm/x86_64/lib/libc.a(connect.o)
 .debug_macinfo
                0x0000000000000074        0x1 0x1 /home/ashwin/pop-compiler-lkvm/x86_64/lib/libc.a(htonl.o)
 .debug_macinfo
                0x0000000000000075        0x1 0x1 /home/ashwin/pop-compiler-lkvm/x86_64/lib/libc.a(htons.o)
 .debug_macinfo
                0x0000000000000076        0x1 0x1 /home/ashwin/pop-compiler-lkvm/x86_64/lib/libc.a(inet_addr.o)
 .debug_macinfo
                0x0000000000000077        0x1 0x1 /home/ashwin/pop-compiler-lkvm/x86_64/lib/libc.a(inet_aton.o)
 .debug_macinfo
                0x0000000000000078        0x1 0x1 /home/ashwin/pop-compiler-lkvm/x86_64/lib/libc.a(listen.o)
 .debug_macinfo
                0x0000000000000079        0x1 0x1 /home/ashwin/pop-compiler-lkvm/x86_64/lib/libc.a(ntohl.o)
 .debug_macinfo
                0x000000000000007a        0x1 0x1 /home/ashwin/pop-compiler-lkvm/x86_64/lib/libc.a(ntohs.o)
 .debug_macinfo
                0x000000000000007b        0x1 0x1 /home/ashwin/pop-compiler-lkvm/x86_64/lib/libc.a(recvfrom.o)
 .debug_macinfo
                0x000000000000007c        0x1 0x1 /home/ashwin/pop-compiler-lkvm/x86_64/lib/libc.a(sendto.o)
 .debug_macinfo
                0x000000000000007d        0x1 0x1 /home/ashwin/pop-compiler-lkvm/x86_64/lib/libc.a(shutdown.o)
 .debug_macinfo
                0x000000000000007e        0x1 0x1 /home/ashwin/pop-compiler-lkvm/x86_64/lib/libc.a(socket.o)
 .debug_macinfo
                0x000000000000007f        0x1 0x1 /home/ashwin/pop-compiler-lkvm/x86_64/lib/libc.a(execl.o)
 .debug_macinfo
                0x0000000000000080        0x1 0x1 /home/ashwin/pop-compiler-lkvm/x86_64/lib/libc.a(execv.o)
 .debug_macinfo
                0x0000000000000081        0x1 0x1 /home/ashwin/pop-compiler-lkvm/x86_64/lib/libc.a(execve.o)
 .debug_macinfo
                0x0000000000000082        0x1 0x1 /home/ashwin/pop-compiler-lkvm/x86_64/lib/libc.a(fork.o)
 .debug_macinfo
                0x0000000000000083        0x1 0x1 /home/ashwin/pop-compiler-lkvm/x86_64/lib/libc.a(waitpid.o)
 .debug_macinfo
                0x0000000000000084        0x1 0x1 /home/ashwin/pop-compiler-lkvm/x86_64/lib/libc.a(poll.o)
 .debug_macinfo
                0x0000000000000085        0x1 0x1 /home/ashwin/pop-compiler-lkvm/x86_64/lib/libc.a(select.o)
 .debug_macinfo
                0x0000000000000086        0x1 0x1 /home/ashwin/pop-compiler-lkvm/x86_64/lib/libc.a(block.o)
 .debug_macinfo
                0x0000000000000087        0x1 0x1 /home/ashwin/pop-compiler-lkvm/x86_64/lib/libc.a(raise.o)
 .debug_macinfo
                0x0000000000000088        0x1 0x1 /home/ashwin/pop-compiler-lkvm/x86_64/lib/libc.a(sigaddset.o)
 .debug_macinfo
                0x0000000000000089        0x1 0x1 /home/ashwin/pop-compiler-lkvm/x86_64/lib/libc.a(sigemptyset.o)
 .debug_macinfo
                0x000000000000008a        0x1 0x1 /home/ashwin/pop-compiler-lkvm/x86_64/lib/libc.a(signal.o)
 .debug_macinfo
                0x000000000000008b        0x1 0x1 /home/ashwin/pop-compiler-lkvm/x86_64/lib/libc.a(sigrtmin.o)
 .debug_macinfo
                0x000000000000008c        0x1 0x1 /home/ashwin/pop-compiler-lkvm/x86_64/lib/libc.a(chmod.o)
 .debug_macinfo
                0x000000000000008d        0x1 0x1 /home/ashwin/pop-compiler-lkvm/x86_64/lib/libc.a(fstat.o)
 .debug_macinfo
                0x000000000000008e        0x1 0x1 /home/ashwin/pop-compiler-lkvm/x86_64/lib/libc.a(lstat.o)
 .debug_macinfo
                0x000000000000008f        0x1 0x1 /home/ashwin/pop-compiler-lkvm/x86_64/lib/libc.a(mkdir.o)
 .debug_macinfo
                0x0000000000000090        0x1 0x1 /home/ashwin/pop-compiler-lkvm/x86_64/lib/libc.a(mknod.o)
 .debug_macinfo
                0x0000000000000091        0x1 0x1 /home/ashwin/pop-compiler-lkvm/x86_64/lib/libc.a(stat.o)
 .debug_macinfo
                0x0000000000000092        0x1 0x1 /home/ashwin/pop-compiler-lkvm/x86_64/lib/libc.a(statvfs.o)
 .debug_macinfo
                0x0000000000000093        0x1 0x1 /home/ashwin/pop-compiler-lkvm/x86_64/lib/libc.a(utimensat.o)
 .debug_macinfo
                0x0000000000000094        0x1 0x1 /home/ashwin/pop-compiler-lkvm/x86_64/lib/libc.a(dprintf.o)
 .debug_macinfo
                0x0000000000000095        0x1 0x1 /home/ashwin/pop-compiler-lkvm/x86_64/lib/libc.a(fclose.o)
 .debug_macinfo
                0x0000000000000096        0x1 0x1 /home/ashwin/pop-compiler-lkvm/x86_64/lib/libc.a(feof.o)
 .debug_macinfo
                0x0000000000000097        0x1 0x1 /home/ashwin/pop-compiler-lkvm/x86_64/lib/libc.a(ferror.o)
 .debug_macinfo
                0x0000000000000098        0x1 0x1 /home/ashwin/pop-compiler-lkvm/x86_64/lib/libc.a(fflush.o)
 .debug_macinfo
                0x0000000000000099        0x1 0x1 /home/ashwin/pop-compiler-lkvm/x86_64/lib/libc.a(fgets.o)
 .debug_macinfo
                0x000000000000009a        0x1 0x1 /home/ashwin/pop-compiler-lkvm/x86_64/lib/libc.a(fopen.o)
 .debug_macinfo
                0x000000000000009b        0x1 0x1 /home/ashwin/pop-compiler-lkvm/x86_64/lib/libc.a(fprintf.o)
 .debug_macinfo
                0x000000000000009c        0x1 0x1 /home/ashwin/pop-compiler-lkvm/x86_64/lib/libc.a(fputc.o)
 .debug_macinfo
                0x000000000000009d        0x1 0x1 /home/ashwin/pop-compiler-lkvm/x86_64/lib/libc.a(fscanf.o)
 .debug_macinfo
                0x000000000000009e        0x1 0x1 /home/ashwin/pop-compiler-lkvm/x86_64/lib/libc.a(fseek.o)
 .debug_macinfo
                0x000000000000009f        0x1 0x1 /home/ashwin/pop-compiler-lkvm/x86_64/lib/libc.a(fwrite.o)
 .debug_macinfo
                0x00000000000000a0        0x1 0x1 /home/ashwin/pop-compiler-lkvm/x86_64/lib/libc.a(getline.o)
 .debug_macinfo
                0x00000000000000a1        0x1 0x1 /home/ashwin/pop-compiler-lkvm/x86_64/lib/libc.a(ofl.o)
 .debug_macinfo
                0x00000000000000a2        0x1 0x1 /home/ashwin/pop-compiler-lkvm/x86_64/lib/libc.a(perror.o)
 .debug_macinfo
                0x00000000000000a3        0x1 0x1 /home/ashwin/pop-compiler-lkvm/x86_64/lib/libc.a(printf.o)
 .debug_macinfo
                0x00000000000000a4        0x1 0x1 /home/ashwin/pop-compiler-lkvm/x86_64/lib/libc.a(putchar.o)
 .debug_macinfo
                0x00000000000000a5        0x1 0x1 /home/ashwin/pop-compiler-lkvm/x86_64/lib/libc.a(puts.o)
 .debug_macinfo
                0x00000000000000a6        0x1 0x1 /home/ashwin/pop-compiler-lkvm/x86_64/lib/libc.a(remove.o)
 .debug_macinfo
                0x00000000000000a7        0x1 0x1 /home/ashwin/pop-compiler-lkvm/x86_64/lib/libc.a(rename.o)
 .debug_macinfo
                0x00000000000000a8        0x1 0x1 /home/ashwin/pop-compiler-lkvm/x86_64/lib/libc.a(snprintf.o)
 .debug_macinfo
                0x00000000000000a9        0x1 0x1 /home/ashwin/pop-compiler-lkvm/x86_64/lib/libc.a(sprintf.o)
 .debug_macinfo
                0x00000000000000aa        0x1 0x1 /home/ashwin/pop-compiler-lkvm/x86_64/lib/libc.a(sscanf.o)
 .debug_macinfo
                0x00000000000000ab        0x1 0x1 /home/ashwin/pop-compiler-lkvm/x86_64/lib/libc.a(stderr.o)
 .debug_macinfo
                0x00000000000000ac        0x1 0x1 /home/ashwin/pop-compiler-lkvm/x86_64/lib/libc.a(stdout.o)
 .debug_macinfo
                0x00000000000000ad        0x1 0x1 /home/ashwin/pop-compiler-lkvm/x86_64/lib/libc.a(vdprintf.o)
 .debug_macinfo
                0x00000000000000ae        0x1 0x1 /home/ashwin/pop-compiler-lkvm/x86_64/lib/libc.a(vfprintf.o)
 .debug_macinfo
                0x00000000000000af        0x1 0x1 /home/ashwin/pop-compiler-lkvm/x86_64/lib/libc.a(vfscanf.o)
 .debug_macinfo
                0x00000000000000b0        0x1 0x1 /home/ashwin/pop-compiler-lkvm/x86_64/lib/libc.a(vsnprintf.o)
 .debug_macinfo
                0x00000000000000b1        0x1 0x1 /home/ashwin/pop-compiler-lkvm/x86_64/lib/libc.a(vsprintf.o)
 .debug_macinfo
                0x00000000000000b2        0x1 0x1 /home/ashwin/pop-compiler-lkvm/x86_64/lib/libc.a(vsscanf.o)
 .debug_macinfo
                0x00000000000000b3        0x1 0x1 /home/ashwin/pop-compiler-lkvm/x86_64/lib/libc.a(atoi.o)
 .debug_macinfo
                0x00000000000000b4        0x1 0x1 /home/ashwin/pop-compiler-lkvm/x86_64/lib/libc.a(strtol.o)
 .debug_macinfo
                0x00000000000000b5        0x1 0x1 /home/ashwin/pop-compiler-lkvm/x86_64/lib/libc.a(memchr.o)
 .debug_macinfo
                0x00000000000000b6        0x1 0x1 /home/ashwin/pop-compiler-lkvm/x86_64/lib/libc.a(strcasestr.o)
 .debug_macinfo
                0x00000000000000b7        0x1 0x1 /home/ashwin/pop-compiler-lkvm/x86_64/lib/libc.a(strchr.o)
 .debug_macinfo
                0x00000000000000b8        0x1 0x1 /home/ashwin/pop-compiler-lkvm/x86_64/lib/libc.a(strchrnul.o)
 .debug_macinfo
                0x00000000000000b9        0x1 0x1 /home/ashwin/pop-compiler-lkvm/x86_64/lib/libc.a(strcmp.o)
 .debug_macinfo
                0x00000000000000ba        0x1 0x1 /home/ashwin/pop-compiler-lkvm/x86_64/lib/libc.a(strcpy.o)
 .debug_macinfo
                0x00000000000000bb        0x1 0x1 /home/ashwin/pop-compiler-lkvm/x86_64/lib/libc.a(strdup.o)
 .debug_macinfo
                0x00000000000000bc        0x1 0x1 /home/ashwin/pop-compiler-lkvm/x86_64/lib/libc.a(strlen.o)
 .debug_macinfo
                0x00000000000000bd        0x1 0x1 /home/ashwin/pop-compiler-lkvm/x86_64/lib/libc.a(strncasecmp.o)
 .debug_macinfo
                0x00000000000000be        0x1 0x1 /home/ashwin/pop-compiler-lkvm/x86_64/lib/libc.a(strncmp.o)
 .debug_macinfo
                0x00000000000000bf        0x1 0x1 /home/ashwin/pop-compiler-lkvm/x86_64/lib/libc.a(strncpy.o)
 .debug_macinfo
                0x00000000000000c0        0x1 0x1 /home/ashwin/pop-compiler-lkvm/x86_64/lib/libc.a(strndup.o)
 .debug_macinfo
                0x00000000000000c1        0x1 0x1 /home/ashwin/pop-compiler-lkvm/x86_64/lib/libc.a(strnlen.o)
 .debug_macinfo
                0x00000000000000c2        0x1 0x1 /home/ashwin/pop-compiler-lkvm/x86_64/lib/libc.a(strspn.o)
 .debug_macinfo
                0x00000000000000c3        0x1 0x1 /home/ashwin/pop-compiler-lkvm/x86_64/lib/libc.a(strstr.o)
 .debug_macinfo
                0x00000000000000c4        0x1 0x1 /home/ashwin/pop-compiler-lkvm/x86_64/lib/libc.a(strtok.o)
 .debug_macinfo
                0x00000000000000c5        0x1 0x1 /home/ashwin/pop-compiler-lkvm/x86_64/lib/libc.a(mkstemp.o)
 .debug_macinfo
                0x00000000000000c6        0x1 0x1 /home/ashwin/pop-compiler-lkvm/x86_64/lib/libc.a(tcgetattr.o)
 .debug_macinfo
                0x00000000000000c7        0x1 0x1 /home/ashwin/pop-compiler-lkvm/x86_64/lib/libc.a(tcsetattr.o)
 .debug_macinfo
                0x00000000000000c8        0x1 0x1 /home/ashwin/pop-compiler-lkvm/x86_64/lib/libc.a(__lock.o)
 .debug_macinfo
                0x00000000000000c9        0x1 0x1 /home/ashwin/pop-compiler-lkvm/x86_64/lib/libc.a(__syscall_cp.o)
 .debug_macinfo
                0x00000000000000ca        0x1 0x1 /home/ashwin/pop-compiler-lkvm/x86_64/lib/libc.a(__wait.o)
 .debug_macinfo
                0x00000000000000cb        0x1 0x1 /home/ashwin/pop-compiler-lkvm/x86_64/lib/libc.a(pthread_cleanup_push.o)
 .debug_macinfo
                0x00000000000000cc        0x1 0x1 /home/ashwin/pop-compiler-lkvm/x86_64/lib/libc.a(pthread_cond_init.o)
 .debug_macinfo
                0x00000000000000cd        0x1 0x1 /home/ashwin/pop-compiler-lkvm/x86_64/lib/libc.a(pthread_cond_signal.o)
 .debug_macinfo
                0x00000000000000ce        0x1 0x1 /home/ashwin/pop-compiler-lkvm/x86_64/lib/libc.a(pthread_cond_timedwait.o)
 .debug_macinfo
                0x00000000000000cf        0x1 0x1 /home/ashwin/pop-compiler-lkvm/x86_64/lib/libc.a(pthread_cond_wait.o)
 .debug_macinfo
                0x00000000000000d0        0x1 0x1 /home/ashwin/pop-compiler-lkvm/x86_64/lib/libc.a(pthread_create.o)
 .debug_macinfo
                0x00000000000000d1        0x1 0x1 /home/ashwin/pop-compiler-lkvm/x86_64/lib/libc.a(pthread_join.o)
 .debug_macinfo
                0x00000000000000d2        0x1 0x1 /home/ashwin/pop-compiler-lkvm/x86_64/lib/libc.a(pthread_kill.o)
 .debug_macinfo
                0x00000000000000d3        0x1 0x1 /home/ashwin/pop-compiler-lkvm/x86_64/lib/libc.a(pthread_mutex_init.o)
 .debug_macinfo
                0x00000000000000d4        0x1 0x1 /home/ashwin/pop-compiler-lkvm/x86_64/lib/libc.a(pthread_mutex_lock.o)
 .debug_macinfo
                0x00000000000000d5        0x1 0x1 /home/ashwin/pop-compiler-lkvm/x86_64/lib/libc.a(pthread_mutex_timedlock.o)
 .debug_macinfo
                0x00000000000000d6        0x1 0x1 /home/ashwin/pop-compiler-lkvm/x86_64/lib/libc.a(pthread_mutex_trylock.o)
 .debug_macinfo
                0x00000000000000d7        0x1 0x1 /home/ashwin/pop-compiler-lkvm/x86_64/lib/libc.a(pthread_mutex_unlock.o)
 .debug_macinfo
                0x00000000000000d8        0x1 0x1 /home/ashwin/pop-compiler-lkvm/x86_64/lib/libc.a(pthread_rwlock_rdlock.o)
 .debug_macinfo
                0x00000000000000d9        0x1 0x1 /home/ashwin/pop-compiler-lkvm/x86_64/lib/libc.a(pthread_rwlock_timedrdlock.o)
 .debug_macinfo
                0x00000000000000da        0x1 0x1 /home/ashwin/pop-compiler-lkvm/x86_64/lib/libc.a(pthread_rwlock_tryrdlock.o)
 .debug_macinfo
                0x00000000000000db        0x1 0x1 /home/ashwin/pop-compiler-lkvm/x86_64/lib/libc.a(pthread_rwlock_unlock.o)
 .debug_macinfo
                0x00000000000000dc        0x1 0x1 /home/ashwin/pop-compiler-lkvm/x86_64/lib/libc.a(pthread_rwlock_wrlock.o)
 .debug_macinfo
                0x00000000000000dd        0x1 0x1 /home/ashwin/pop-compiler-lkvm/x86_64/lib/libc.a(pthread_setcancelstate.o)
 .debug_macinfo
                0x00000000000000de        0x1 0x1 /home/ashwin/pop-compiler-lkvm/x86_64/lib/libc.a(pthread_sigmask.o)
 .debug_macinfo
                0x00000000000000df        0x1 0x1 /home/ashwin/pop-compiler-lkvm/x86_64/lib/libc.a(pthread_testcancel.o)
 .debug_macinfo
                0x00000000000000e0        0x1 0x1 /home/ashwin/pop-compiler-lkvm/x86_64/lib/libc.a(vmlock.o)
 .debug_macinfo
                0x00000000000000e1        0x1 0x1 /home/ashwin/pop-compiler-lkvm/x86_64/lib/libc.a(gmtime.o)
 .debug_macinfo
                0x00000000000000e2        0x1 0x1 /home/ashwin/pop-compiler-lkvm/x86_64/lib/libc.a(gmtime_r.o)
 .debug_macinfo
                0x00000000000000e3        0x1 0x1 /home/ashwin/pop-compiler-lkvm/x86_64/lib/libc.a(time.o)
 .debug_macinfo
                0x00000000000000e4        0x1 0x1 /home/ashwin/pop-compiler-lkvm/x86_64/lib/libc.a(_exit.o)
 .debug_macinfo
                0x00000000000000e5        0x1 0x1 /home/ashwin/pop-compiler-lkvm/x86_64/lib/libc.a(access.o)
 .debug_macinfo
                0x00000000000000e6        0x1 0x1 /home/ashwin/pop-compiler-lkvm/x86_64/lib/libc.a(close.o)
 .debug_macinfo
                0x00000000000000e7        0x1 0x1 /home/ashwin/pop-compiler-lkvm/x86_64/lib/libc.a(fdatasync.o)
 .debug_macinfo
                0x00000000000000e8        0x1 0x1 /home/ashwin/pop-compiler-lkvm/x86_64/lib/libc.a(fsync.o)
 .debug_macinfo
                0x00000000000000e9        0x1 0x1 /home/ashwin/pop-compiler-lkvm/x86_64/lib/libc.a(ftruncate.o)
 .debug_macinfo
                0x00000000000000ea        0x1 0x1 /home/ashwin/pop-compiler-lkvm/x86_64/lib/libc.a(getpid.o)
 .debug_macinfo
                0x00000000000000eb        0x1 0x1 /home/ashwin/pop-compiler-lkvm/x86_64/lib/libc.a(isatty.o)
 .debug_macinfo
                0x00000000000000ec        0x1 0x1 /home/ashwin/pop-compiler-lkvm/x86_64/lib/libc.a(lchown.o)
 .debug_macinfo
                0x00000000000000ed        0x1 0x1 /home/ashwin/pop-compiler-lkvm/x86_64/lib/libc.a(link.o)
 .debug_macinfo
                0x00000000000000ee        0x1 0x1 /home/ashwin/pop-compiler-lkvm/x86_64/lib/libc.a(lseek.o)
 .debug_macinfo
                0x00000000000000ef        0x1 0x1 /home/ashwin/pop-compiler-lkvm/x86_64/lib/libc.a(pread.o)
 .debug_macinfo
                0x00000000000000f0        0x1 0x1 /home/ashwin/pop-compiler-lkvm/x86_64/lib/libc.a(preadv.o)
 .debug_macinfo
                0x00000000000000f1        0x1 0x1 /home/ashwin/pop-compiler-lkvm/x86_64/lib/libc.a(pwrite.o)
 .debug_macinfo
                0x00000000000000f2        0x1 0x1 /home/ashwin/pop-compiler-lkvm/x86_64/lib/libc.a(pwritev.o)
 .debug_macinfo
                0x00000000000000f3        0x1 0x1 /home/ashwin/pop-compiler-lkvm/x86_64/lib/libc.a(read.o)
 .debug_macinfo
                0x00000000000000f4        0x1 0x1 /home/ashwin/pop-compiler-lkvm/x86_64/lib/libc.a(readlink.o)
 .debug_macinfo
                0x00000000000000f5        0x1 0x1 /home/ashwin/pop-compiler-lkvm/x86_64/lib/libc.a(readv.o)
 .debug_macinfo
                0x00000000000000f6        0x1 0x1 /home/ashwin/pop-compiler-lkvm/x86_64/lib/libc.a(sleep.o)
 .debug_macinfo
                0x00000000000000f7        0x1 0x1 /home/ashwin/pop-compiler-lkvm/x86_64/lib/libc.a(symlink.o)
 .debug_macinfo
                0x00000000000000f8        0x1 0x1 /home/ashwin/pop-compiler-lkvm/x86_64/lib/libc.a(truncate.o)
 .debug_macinfo
                0x00000000000000f9        0x1 0x1 /home/ashwin/pop-compiler-lkvm/x86_64/lib/libc.a(unlink.o)
 .debug_macinfo
                0x00000000000000fa        0x1 0x1 /home/ashwin/pop-compiler-lkvm/x86_64/lib/libc.a(usleep.o)
 .debug_macinfo
                0x00000000000000fb        0x1 0x1 /home/ashwin/pop-compiler-lkvm/x86_64/lib/libc.a(write.o)
 .debug_macinfo
                0x00000000000000fc        0x1 0x1 /home/ashwin/pop-compiler-lkvm/x86_64/lib/libc.a(writev.o)
 .debug_macinfo
                0x00000000000000fd        0x1 0x1 /home/ashwin/pop-compiler-lkvm/x86_64/lib/libc.a(tolower.o)
 .debug_macinfo
                0x00000000000000fe        0x1 0x1 /home/ashwin/pop-compiler-lkvm/x86_64/lib/libc.a(__environ.o)
 .debug_macinfo
                0x00000000000000ff        0x1 0x1 /home/ashwin/pop-compiler-lkvm/x86_64/lib/libc.a(__init_tls.o)
 .debug_macinfo
                0x0000000000000100        0x1 0x1 /home/ashwin/pop-compiler-lkvm/x86_64/lib/libc.a(platform.o)
 .debug_macinfo
                0x0000000000000101        0x1 0x1 /home/ashwin/pop-compiler-lkvm/x86_64/lib/libc.a(_Exit.o)
 .debug_macinfo
                0x0000000000000102        0x1 0x1 /home/ashwin/pop-compiler-lkvm/x86_64/lib/libc.a(floatscan.o)
 .debug_macinfo
                0x0000000000000103        0x1 0x1 /home/ashwin/pop-compiler-lkvm/x86_64/lib/libc.a(intscan.o)
 .debug_macinfo
                0x0000000000000104        0x1 0x1 /home/ashwin/pop-compiler-lkvm/x86_64/lib/libc.a(procfdname.o)
 .debug_macinfo
                0x0000000000000105        0x1 0x1 /home/ashwin/pop-compiler-lkvm/x86_64/lib/libc.a(shgetc.o)
 .debug_macinfo
                0x0000000000000106        0x1 0x1 /home/ashwin/pop-compiler-lkvm/x86_64/lib/libc.a(expand_heap.o)
 .debug_macinfo
                0x0000000000000107        0x1 0x1 /home/ashwin/pop-compiler-lkvm/x86_64/lib/libc.a(__fpclassifyl.o)
 .debug_macinfo
                0x0000000000000108        0x1 0x1 /home/ashwin/pop-compiler-lkvm/x86_64/lib/libc.a(__signbitl.o)
 .debug_macinfo
                0x0000000000000109        0x1 0x1 /home/ashwin/pop-compiler-lkvm/x86_64/lib/libc.a(copysignl.o)
 .debug_macinfo
                0x000000000000010a        0x1 0x1 /home/ashwin/pop-compiler-lkvm/x86_64/lib/libc.a(frexpl.o)
 .debug_macinfo
                0x000000000000010b        0x1 0x1 /home/ashwin/pop-compiler-lkvm/x86_64/lib/libc.a(scalbn.o)
 .debug_macinfo
                0x000000000000010c        0x1 0x1 /home/ashwin/pop-compiler-lkvm/x86_64/lib/libc.a(scalbnl.o)
 .debug_macinfo
                0x000000000000010d        0x1 0x1 /home/ashwin/pop-compiler-lkvm/x86_64/lib/libc.a(mbrtowc.o)
 .debug_macinfo
                0x000000000000010e        0x1 0x1 /home/ashwin/pop-compiler-lkvm/x86_64/lib/libc.a(mbsinit.o)
 .debug_macinfo
                0x000000000000010f        0x1 0x1 /home/ashwin/pop-compiler-lkvm/x86_64/lib/libc.a(wctomb.o)
 .debug_macinfo
                0x0000000000000110        0x1 0x1 /home/ashwin/pop-compiler-lkvm/x86_64/lib/libc.a(sigaction.o)
 .debug_macinfo
                0x0000000000000111        0x1 0x1 /home/ashwin/pop-compiler-lkvm/x86_64/lib/libc.a(__fdopen.o)
 .debug_macinfo
                0x0000000000000112        0x1 0x1 /home/ashwin/pop-compiler-lkvm/x86_64/lib/libc.a(__fmodeflags.o)
 .debug_macinfo
                0x0000000000000113        0x1 0x1 /home/ashwin/pop-compiler-lkvm/x86_64/lib/libc.a(__lockfile.o)
 .debug_macinfo
                0x0000000000000114        0x1 0x1 /home/ashwin/pop-compiler-lkvm/x86_64/lib/libc.a(__overflow.o)
 .debug_macinfo
                0x0000000000000115        0x1 0x1 /home/ashwin/pop-compiler-lkvm/x86_64/lib/libc.a(__stdio_close.o)
 .debug_macinfo
                0x0000000000000116        0x1 0x1 /home/ashwin/pop-compiler-lkvm/x86_64/lib/libc.a(__stdio_read.o)
 .debug_macinfo
                0x0000000000000117        0x1 0x1 /home/ashwin/pop-compiler-lkvm/x86_64/lib/libc.a(__stdio_seek.o)
 .debug_macinfo
                0x0000000000000118        0x1 0x1 /home/ashwin/pop-compiler-lkvm/x86_64/lib/libc.a(__stdio_write.o)
 .debug_macinfo
                0x0000000000000119        0x1 0x1 /home/ashwin/pop-compiler-lkvm/x86_64/lib/libc.a(__stdout_write.o)
 .debug_macinfo
                0x000000000000011a        0x1 0x1 /home/ashwin/pop-compiler-lkvm/x86_64/lib/libc.a(__string_read.o)
 .debug_macinfo
                0x000000000000011b        0x1 0x1 /home/ashwin/pop-compiler-lkvm/x86_64/lib/libc.a(__towrite.o)
 .debug_macinfo
                0x000000000000011c        0x1 0x1 /home/ashwin/pop-compiler-lkvm/x86_64/lib/libc.a(__uflow.o)
 .debug_macinfo
                0x000000000000011d        0x1 0x1 /home/ashwin/pop-compiler-lkvm/x86_64/lib/libc.a(fputs.o)
 .debug_macinfo
                0x000000000000011e        0x1 0x1 /home/ashwin/pop-compiler-lkvm/x86_64/lib/libc.a(getdelim.o)
 .debug_macinfo
                0x000000000000011f        0x1 0x1 /home/ashwin/pop-compiler-lkvm/x86_64/lib/libc.a(ofl_add.o)
 .debug_macinfo
                0x0000000000000120        0x1 0x1 /home/ashwin/pop-compiler-lkvm/x86_64/lib/libc.a(memcmp.o)
 .debug_macinfo
                0x0000000000000121        0x1 0x1 /home/ashwin/pop-compiler-lkvm/x86_64/lib/libc.a(stpcpy.o)
 .debug_macinfo
                0x0000000000000122        0x1 0x1 /home/ashwin/pop-compiler-lkvm/x86_64/lib/libc.a(stpncpy.o)
 .debug_macinfo
                0x0000000000000123        0x1 0x1 /home/ashwin/pop-compiler-lkvm/x86_64/lib/libc.a(strcspn.o)
 .debug_macinfo
                0x0000000000000124        0x1 0x1 /home/ashwin/pop-compiler-lkvm/x86_64/lib/libc.a(mkostemps.o)
 .debug_macinfo
                0x0000000000000125        0x1 0x1 /home/ashwin/pop-compiler-lkvm/x86_64/lib/libc.a(__timedwait.o)
 .debug_macinfo
                0x0000000000000126        0x1 0x1 /home/ashwin/pop-compiler-lkvm/x86_64/lib/libc.a(pthread_rwlock_timedwrlock.o)
 .debug_macinfo
                0x0000000000000127        0x1 0x1 /home/ashwin/pop-compiler-lkvm/x86_64/lib/libc.a(pthread_rwlock_trywrlock.o)
 .debug_macinfo
                0x0000000000000128        0x1 0x1 /home/ashwin/pop-compiler-lkvm/x86_64/lib/libc.a(__secs_to_tm.o)
 .debug_macinfo
                0x0000000000000129        0x1 0x1 /home/ashwin/pop-compiler-lkvm/x86_64/lib/libc.a(__tz.o)
 .debug_macinfo
                0x000000000000012a        0x1 0x1 /home/ashwin/pop-compiler-lkvm/x86_64/lib/libc.a(__year_to_secs.o)
 .debug_macinfo
                0x000000000000012b        0x1 0x1 /home/ashwin/pop-compiler-lkvm/x86_64/lib/libc.a(clock_gettime.o)
 .debug_macinfo
                0x000000000000012c        0x1 0x1 /home/ashwin/pop-compiler-lkvm/x86_64/lib/libc.a(nanosleep.o)
 .debug_macinfo
                0x000000000000012d        0x1 0x1 /home/ashwin/pop-compiler-lkvm/x86_64/lib/libc.a(internal.o)
 .debug_macinfo
                0x000000000000012e        0x1 0x1 /home/ashwin/pop-compiler-lkvm/x86_64/lib/libc.a(wcrtomb.o)
 .debug_macinfo
                0x000000000000012f        0x1 0x1 /home/ashwin/pop-compiler-lkvm/x86_64/lib/libc.a(__stdio_exit.o)
 .debug_macinfo
                0x0000000000000130        0x1 0x1 /home/ashwin/pop-compiler-lkvm/x86_64/lib/libc.a(__toread.o)
 .debug_macinfo
                0x0000000000000131        0x1 0x1 /home/ashwin/pop-compiler-lkvm/x86_64/lib/libc.a(__randname.o)
 .debug_macinfo
                0x0000000000000132        0x1 0x1 /home/ashwin/pop-compiler-lkvm/x86_64/lib/libc.a(__map_file.o)
 .debug_macinfo
                0x0000000000000133        0x1 0x1 /home/ashwin/pop-compiler-lkvm/x86_64/lib/libc.a(__month_to_secs.o)

.comment        0x0000000000000000       0x69
 ** merge strings
                0x0000000000000000       0x69

.debug_line     0x0000000000000000    0x27424
 .debug_line    0x0000000000000000      0x1fd 0x1 x86/bios.o
 .debug_line    0x00000000000001fd      0x14e 0x1 builtin-balloon.o
 .debug_line    0x000000000000034b      0x201 0x1 builtin-debug.o
 .debug_line    0x000000000000054c      0x14a 0x1 builtin-help.o
 .debug_line    0x0000000000000696      0x229 0x1 builtin-list.o
 .debug_line    0x00000000000008bf      0x2e5 0x1 builtin-stat.o
 .debug_line    0x0000000000000ba4      0x17c 0x1 builtin-pause.o
 .debug_line    0x0000000000000d20      0x17d 0x1 builtin-resume.o
 .debug_line    0x0000000000000e9d      0xaa9 0x1 builtin-run.o
 .debug_line    0x0000000000001946      0x30b 0x1 builtin-setup.o
 .debug_line    0x0000000000001c51      0x111 0x1 builtin-stop.o
 .debug_line    0x0000000000001d62       0x4c 0x1 builtin-version.o
 .debug_line    0x0000000000001dae      0x1c8 0x1 devices.o
 .debug_line    0x0000000000001f76      0x5a5 0x1 kvm-cpu_common.o
 .debug_line    0x000000000000251b      0x625 0x1 disk/core.o
 .debug_line    0x0000000000002b40      0x285 0x1 framebuffer.o
 .debug_line    0x0000000000002dc5      0x287 0x1 guest_compat.o
 .debug_line    0x000000000000304c      0x30c 0x1 hw/rtc.o
 .debug_line    0x0000000000003358      0x690 0x1 hw/serial.o
 .debug_line    0x00000000000039e8      0x3dc 0x1 ioport_common.o
 .debug_line    0x0000000000003dc4       0x78 0x1 irq_common.o
 .debug_line    0x0000000000003e3c      0x9e9 0x1 x86/kvm-cpu.o
 .debug_line    0x0000000000004825      0x849 0x1 kvm_common.o
 .debug_line    0x000000000000506e       0x51 0x1 main.o
 .debug_line    0x00000000000050bf      0x2b2 0x1 mmio_common.o
 .debug_line    0x0000000000005371      0x592 0x1 pci_common.o
 .debug_line    0x0000000000005903      0x52f 0x1 term.o
 .debug_line    0x0000000000005e32      0x5c9 0x1 virtio/blk.o
 .debug_line    0x00000000000063fb      0x5b5 0x1 virtio/scsi.o
 .debug_line    0x00000000000069b0      0x482 0x1 virtio/console.o
 .debug_line    0x0000000000006e32      0x427 0x1 virtio/core.o
 .debug_line    0x0000000000007259     0x1101 0x1 virtio/net.o
 .debug_line    0x000000000000835a      0x404 0x1 virtio/rng.o
 .debug_line    0x000000000000875e      0x4b0 0x1 virtio/balloon.o
 .debug_line    0x0000000000008c0e      0x76f 0x1 virtio/pci.o
 .debug_line    0x000000000000937d      0x1ea 0x1 disk/blk.o
 .debug_line    0x0000000000009567     0x17da 0x1 disk/qcow.o
 .debug_line    0x000000000000ad41      0x292 0x1 disk/raw.o
 .debug_line    0x000000000000afd3      0x450 0x1 ioeventfd.o
 .debug_line    0x000000000000b423      0x33f 0x1 net/uip/core.o
 .debug_line    0x000000000000b762      0x128 0x1 net/uip/arp.o
 .debug_line    0x000000000000b88a      0x11c 0x1 net/uip/icmp.o
 .debug_line    0x000000000000b9a6      0x138 0x1 net/uip/ipv4.o
 .debug_line    0x000000000000bade      0x62e 0x1 net/uip/tcp.o
 .debug_line    0x000000000000c10c      0x4fa 0x1 net/uip/udp.o
 .debug_line    0x000000000000c606      0x2bf 0x1 net/uip/buf.o
 .debug_line    0x000000000000c8c5      0x4f8 0x1 net/uip/csum.o
 .debug_line    0x000000000000cdbd      0x34a 0x1 net/uip/dhcp.o
 .debug_line    0x000000000000d107      0x134 0x1 kvm-cmd.o
 .debug_line    0x000000000000d23b      0x453 0x1 util/init.o
 .debug_line    0x000000000000d68e      0x1e1 0x1 util/iovec.o
 .debug_line    0x000000000000d86f      0xa48 0x1 util/rbtree.o
 .debug_line    0x000000000000e2b7      0x963 0x1 kvm-ipc.o
 .debug_line    0x000000000000ec1a      0x5fc 0x1 util/read-write.o
 .debug_line    0x000000000000f216      0x9b9 0x1 util/parse-options.o
 .debug_line    0x000000000000fbcf      0x509 0x1 util/threadpool.o
 .debug_line    0x00000000000100d8      0x1c3 0x1 util/rbtree-interval.o
 .debug_line    0x000000000001029b      0x10e 0x1 util/strbuf.o
 .debug_line    0x00000000000103a9      0x2aa 0x1 util/util.o
 .debug_line    0x0000000000010653      0x5d6 0x1 hw/pci-shmem.o
 .debug_line    0x0000000000010c29      0x787 0x1 hw/i8042.o
 .debug_line    0x00000000000113b0     0x1cfd 0x1 virtio/9p.o
 .debug_line    0x00000000000130ad       0x4a 0x1 builtin-sandbox.o
 .debug_line    0x00000000000130f7      0x53c 0x1 virtio/mmio.o
 .debug_line    0x0000000000013633      0x7f7 0x1 virtio/9p-pdu.o
 .debug_line    0x0000000000013e2a      0x5c8 0x1 x86/kvm.o
 .debug_line    0x00000000000143f2      0x1b1 0x1 x86/boot.o
 .debug_line    0x00000000000145a3      0x213 0x1 x86/cpuid.o
 .debug_line    0x00000000000147b6       0xd9 0x1 x86/interrupt.o
 .debug_line    0x000000000001488f      0x23d 0x1 x86/ioport.o
 .debug_line    0x0000000000014acc      0x28c 0x1 x86/irq.o
 .debug_line    0x0000000000014d58      0x362 0x1 x86/mptable.o
 .debug_line    0x00000000000150ba      0x252 0x1 hw/vesa.o
 .debug_line    0x000000000001530c       0x49 0x1 /home/ashwin/pop-compiler-lkvm/x86_64/lib/crt1.o
 .debug_line    0x0000000000015355      0x17f 0x1 /home/ashwin/pop-compiler-lkvm/x86_64/lib/libc.a(sysconf.o)
 .debug_line    0x00000000000154d4       0x98 0x1 /home/ashwin/pop-compiler-lkvm/x86_64/lib/libc.a(closedir.o)
 .debug_line    0x000000000001556c       0x90 0x1 /home/ashwin/pop-compiler-lkvm/x86_64/lib/libc.a(dirfd.o)
 .debug_line    0x00000000000155fc       0xe6 0x1 /home/ashwin/pop-compiler-lkvm/x86_64/lib/libc.a(opendir.o)
 .debug_line    0x00000000000156e2      0x103 0x1 /home/ashwin/pop-compiler-lkvm/x86_64/lib/libc.a(readdir.o)
 .debug_line    0x00000000000157e5       0xcc 0x1 /home/ashwin/pop-compiler-lkvm/x86_64/lib/libc.a(readdir_r.o)
 .debug_line    0x00000000000158b1       0x9f 0x1 /home/ashwin/pop-compiler-lkvm/x86_64/lib/libc.a(seekdir.o)
 .debug_line    0x0000000000015950      0x24b 0x1 /home/ashwin/pop-compiler-lkvm/x86_64/lib/libc.a(__libc_start_main.o)
 .debug_line    0x0000000000015b9b       0xb7 0x1 /home/ashwin/pop-compiler-lkvm/x86_64/lib/libc.a(getenv.o)
 .debug_line    0x0000000000015c52       0xdf 0x1 /home/ashwin/pop-compiler-lkvm/x86_64/lib/libc.a(__errno_location.o)
 .debug_line    0x0000000000015d31      0x13f 0x1 /home/ashwin/pop-compiler-lkvm/x86_64/lib/libc.a(strerror.o)
 .debug_line    0x0000000000015e70      0x141 0x1 /home/ashwin/pop-compiler-lkvm/x86_64/lib/libc.a(atexit.o)
 .debug_line    0x0000000000015fb1       0xb4 0x1 /home/ashwin/pop-compiler-lkvm/x86_64/lib/libc.a(exit.o)
 .debug_line    0x0000000000016065      0x1a3 0x1 /home/ashwin/pop-compiler-lkvm/x86_64/lib/libc.a(fcntl.o)
 .debug_line    0x0000000000016208       0xcf 0x1 /home/ashwin/pop-compiler-lkvm/x86_64/lib/libc.a(open.o)
 .debug_line    0x00000000000162d7       0x6d 0x1 /home/ashwin/pop-compiler-lkvm/x86_64/lib/libc.a(libc.o)
 .debug_line    0x0000000000016344       0x64 0x1 /home/ashwin/pop-compiler-lkvm/x86_64/lib/libc.a(syscall_ret.o)
 .debug_line    0x00000000000163a8       0x4f 0x1 /home/ashwin/pop-compiler-lkvm/x86_64/lib/libc.a(getpagesize.o)
 .debug_line    0x00000000000163f7      0x14c 0x1 /home/ashwin/pop-compiler-lkvm/x86_64/lib/libc.a(epoll.o)
 .debug_line    0x0000000000016543      0x107 0x1 /home/ashwin/pop-compiler-lkvm/x86_64/lib/libc.a(eventfd.o)
 .debug_line    0x000000000001664a       0xba 0x1 /home/ashwin/pop-compiler-lkvm/x86_64/lib/libc.a(prctl.o)
 .debug_line    0x0000000000016704       0x8e 0x1 /home/ashwin/pop-compiler-lkvm/x86_64/lib/libc.a(sysinfo.o)
 .debug_line    0x0000000000016792      0x11c 0x1 /home/ashwin/pop-compiler-lkvm/x86_64/lib/libc.a(__lctrans.o)
 .debug_line    0x00000000000168ae      0x10e 0x1 /home/ashwin/pop-compiler-lkvm/x86_64/lib/libc.a(calloc.o)
 .debug_line    0x00000000000169bc      0x111 0x1 /home/ashwin/pop-compiler-lkvm/x86_64/lib/libc.a(lite_malloc.o)
 .debug_line    0x0000000000016acd      0xffa 0x1 /home/ashwin/pop-compiler-lkvm/x86_64/lib/libc.a(malloc.o)
 .debug_line    0x0000000000017ac7      0xf03 0x1 /home/ashwin/pop-compiler-lkvm/x86_64/lib/libc.a(popcorn_malloc.o)
 .debug_line    0x00000000000189ca       0xf8 0x1 /home/ashwin/pop-compiler-lkvm/x86_64/lib/libc.a(getrlimit.o)
 .debug_line    0x0000000000018ac2       0xac 0x1 /home/ashwin/pop-compiler-lkvm/x86_64/lib/libc.a(ioctl.o)
 .debug_line    0x0000000000018b6e      0x1d7 0x1 /home/ashwin/pop-compiler-lkvm/x86_64/lib/libc.a(mntent.o)
 .debug_line    0x0000000000018d45      0x118 0x1 /home/ashwin/pop-compiler-lkvm/x86_64/lib/libc.a(openpty.o)
 .debug_line    0x0000000000018e5d      0x14d 0x1 /home/ashwin/pop-compiler-lkvm/x86_64/lib/libc.a(realpath.o)
 .debug_line    0x0000000000018faa       0x8d 0x1 /home/ashwin/pop-compiler-lkvm/x86_64/lib/libc.a(uname.o)
 .debug_line    0x0000000000019037       0x96 0x1 /home/ashwin/pop-compiler-lkvm/x86_64/lib/libc.a(madvise.o)
 .debug_line    0x00000000000190cd       0xf9 0x1 /home/ashwin/pop-compiler-lkvm/x86_64/lib/libc.a(mmap.o)
 .debug_line    0x00000000000191c6       0xa2 0x1 /home/ashwin/pop-compiler-lkvm/x86_64/lib/libc.a(mprotect.o)
 .debug_line    0x0000000000019268       0xe3 0x1 /home/ashwin/pop-compiler-lkvm/x86_64/lib/libc.a(mremap.o)
 .debug_line    0x000000000001934b       0xa8 0x1 /home/ashwin/pop-compiler-lkvm/x86_64/lib/libc.a(munmap.o)
 .debug_line    0x00000000000193f3      0x133 0x1 /home/ashwin/pop-compiler-lkvm/x86_64/lib/libc.a(shm_open.o)
 .debug_line    0x0000000000019526       0x84 0x1 /home/ashwin/pop-compiler-lkvm/x86_64/lib/libc.a(accept.o)
 .debug_line    0x00000000000195aa       0xb0 0x1 /home/ashwin/pop-compiler-lkvm/x86_64/lib/libc.a(bind.o)
 .debug_line    0x000000000001965a       0x85 0x1 /home/ashwin/pop-compiler-lkvm/x86_64/lib/libc.a(connect.o)
 .debug_line    0x00000000000196df       0x8c 0x1 /home/ashwin/pop-compiler-lkvm/x86_64/lib/libc.a(htonl.o)
 .debug_line    0x000000000001976b       0x69 0x1 /home/ashwin/pop-compiler-lkvm/x86_64/lib/libc.a(htons.o)
 .debug_line    0x00000000000197d4       0x8f 0x1 /home/ashwin/pop-compiler-lkvm/x86_64/lib/libc.a(inet_addr.o)
 .debug_line    0x0000000000019863      0x127 0x1 /home/ashwin/pop-compiler-lkvm/x86_64/lib/libc.a(inet_aton.o)
 .debug_line    0x000000000001998a       0x7a 0x1 /home/ashwin/pop-compiler-lkvm/x86_64/lib/libc.a(listen.o)
 .debug_line    0x0000000000019a04       0x8c 0x1 /home/ashwin/pop-compiler-lkvm/x86_64/lib/libc.a(ntohl.o)
 .debug_line    0x0000000000019a90       0x69 0x1 /home/ashwin/pop-compiler-lkvm/x86_64/lib/libc.a(ntohs.o)
 .debug_line    0x0000000000019af9       0x86 0x1 /home/ashwin/pop-compiler-lkvm/x86_64/lib/libc.a(recvfrom.o)
 .debug_line    0x0000000000019b7f       0x84 0x1 /home/ashwin/pop-compiler-lkvm/x86_64/lib/libc.a(sendto.o)
 .debug_line    0x0000000000019c03       0x7c 0x1 /home/ashwin/pop-compiler-lkvm/x86_64/lib/libc.a(shutdown.o)
 .debug_line    0x0000000000019c7f       0xed 0x1 /home/ashwin/pop-compiler-lkvm/x86_64/lib/libc.a(socket.o)
 .debug_line    0x0000000000019d6c       0xbf 0x1 /home/ashwin/pop-compiler-lkvm/x86_64/lib/libc.a(execl.o)
 .debug_line    0x0000000000019e2b       0x4e 0x1 /home/ashwin/pop-compiler-lkvm/x86_64/lib/libc.a(execv.o)
 .debug_line    0x0000000000019e79       0x76 0x1 /home/ashwin/pop-compiler-lkvm/x86_64/lib/libc.a(execve.o)
 .debug_line    0x0000000000019eef      0x12e 0x1 /home/ashwin/pop-compiler-lkvm/x86_64/lib/libc.a(fork.o)
 .debug_line    0x000000000001a01d       0x6b 0x1 /home/ashwin/pop-compiler-lkvm/x86_64/lib/libc.a(waitpid.o)
 .debug_line    0x000000000001a088       0x5c 0x1 /home/ashwin/pop-compiler-lkvm/x86_64/lib/libc.a(poll.o)
 .debug_line    0x000000000001a0e4       0x83 0x1 /home/ashwin/pop-compiler-lkvm/x86_64/lib/libc.a(select.o)
 .debug_line    0x000000000001a167       0xb1 0x1 /home/ashwin/pop-compiler-lkvm/x86_64/lib/libc.a(block.o)
 .debug_line    0x000000000001a218       0xa3 0x1 /home/ashwin/pop-compiler-lkvm/x86_64/lib/libc.a(raise.o)
 .debug_line    0x000000000001a2bb       0x97 0x1 /home/ashwin/pop-compiler-lkvm/x86_64/lib/libc.a(sigaddset.o)
 .debug_line    0x000000000001a352       0x71 0x1 /home/ashwin/pop-compiler-lkvm/x86_64/lib/libc.a(sigemptyset.o)
 .debug_line    0x000000000001a3c3       0xa2 0x1 /home/ashwin/pop-compiler-lkvm/x86_64/lib/libc.a(signal.o)
 .debug_line    0x000000000001a465       0x4c 0x1 /home/ashwin/pop-compiler-lkvm/x86_64/lib/libc.a(sigrtmin.o)
 .debug_line    0x000000000001a4b1       0x94 0x1 /home/ashwin/pop-compiler-lkvm/x86_64/lib/libc.a(chmod.o)
 .debug_line    0x000000000001a545      0x1c2 0x1 /home/ashwin/pop-compiler-lkvm/x86_64/lib/libc.a(fstat.o)
 .debug_line    0x000000000001a707       0xb3 0x1 /home/ashwin/pop-compiler-lkvm/x86_64/lib/libc.a(lstat.o)
 .debug_line    0x000000000001a7ba       0x94 0x1 /home/ashwin/pop-compiler-lkvm/x86_64/lib/libc.a(mkdir.o)
 .debug_line    0x000000000001a84e       0x94 0x1 /home/ashwin/pop-compiler-lkvm/x86_64/lib/libc.a(mknod.o)
 .debug_line    0x000000000001a8e2       0xb8 0x1 /home/ashwin/pop-compiler-lkvm/x86_64/lib/libc.a(stat.o)
 .debug_line    0x000000000001a99a      0x20c 0x1 /home/ashwin/pop-compiler-lkvm/x86_64/lib/libc.a(statvfs.o)
 .debug_line    0x000000000001aba6      0x11b 0x1 /home/ashwin/pop-compiler-lkvm/x86_64/lib/libc.a(utimensat.o)
 .debug_line    0x000000000001acc1       0x72 0x1 /home/ashwin/pop-compiler-lkvm/x86_64/lib/libc.a(dprintf.o)
 .debug_line    0x000000000001ad33      0x10c 0x1 /home/ashwin/pop-compiler-lkvm/x86_64/lib/libc.a(fclose.o)
 .debug_line    0x000000000001ae3f       0xaa 0x1 /home/ashwin/pop-compiler-lkvm/x86_64/lib/libc.a(feof.o)
 .debug_line    0x000000000001aee9       0xac 0x1 /home/ashwin/pop-compiler-lkvm/x86_64/lib/libc.a(ferror.o)
 .debug_line    0x000000000001af95      0x14f 0x1 /home/ashwin/pop-compiler-lkvm/x86_64/lib/libc.a(fflush.o)
 .debug_line    0x000000000001b0e4      0x151 0x1 /home/ashwin/pop-compiler-lkvm/x86_64/lib/libc.a(fgets.o)
 .debug_line    0x000000000001b235      0x105 0x1 /home/ashwin/pop-compiler-lkvm/x86_64/lib/libc.a(fopen.o)
 .debug_line    0x000000000001b33a       0x72 0x1 /home/ashwin/pop-compiler-lkvm/x86_64/lib/libc.a(fprintf.o)
 .debug_line    0x000000000001b3ac       0xac 0x1 /home/ashwin/pop-compiler-lkvm/x86_64/lib/libc.a(fputc.o)
 .debug_line    0x000000000001b458       0x71 0x1 /home/ashwin/pop-compiler-lkvm/x86_64/lib/libc.a(fscanf.o)
 .debug_line    0x000000000001b4c9      0x11e 0x1 /home/ashwin/pop-compiler-lkvm/x86_64/lib/libc.a(fseek.o)
 .debug_line    0x000000000001b5e7      0x157 0x1 /home/ashwin/pop-compiler-lkvm/x86_64/lib/libc.a(fwrite.o)
 .debug_line    0x000000000001b73e       0x69 0x1 /home/ashwin/pop-compiler-lkvm/x86_64/lib/libc.a(getline.o)
 .debug_line    0x000000000001b7a7       0xaa 0x1 /home/ashwin/pop-compiler-lkvm/x86_64/lib/libc.a(ofl.o)
 .debug_line    0x000000000001b851       0xcf 0x1 /home/ashwin/pop-compiler-lkvm/x86_64/lib/libc.a(perror.o)
 .debug_line    0x000000000001b920       0x76 0x1 /home/ashwin/pop-compiler-lkvm/x86_64/lib/libc.a(printf.o)
 .debug_line    0x000000000001b996       0x4e 0x1 /home/ashwin/pop-compiler-lkvm/x86_64/lib/libc.a(putchar.o)
 .debug_line    0x000000000001b9e4       0x6d 0x1 /home/ashwin/pop-compiler-lkvm/x86_64/lib/libc.a(puts.o)
 .debug_line    0x000000000001ba51       0x83 0x1 /home/ashwin/pop-compiler-lkvm/x86_64/lib/libc.a(remove.o)
 .debug_line    0x000000000001bad4       0x74 0x1 /home/ashwin/pop-compiler-lkvm/x86_64/lib/libc.a(rename.o)
 .debug_line    0x000000000001bb48       0x73 0x1 /home/ashwin/pop-compiler-lkvm/x86_64/lib/libc.a(snprintf.o)
 .debug_line    0x000000000001bbbb       0x72 0x1 /home/ashwin/pop-compiler-lkvm/x86_64/lib/libc.a(sprintf.o)
 .debug_line    0x000000000001bc2d       0x71 0x1 /home/ashwin/pop-compiler-lkvm/x86_64/lib/libc.a(sscanf.o)
 .debug_line    0x000000000001bc9e       0x7c 0x1 /home/ashwin/pop-compiler-lkvm/x86_64/lib/libc.a(stderr.o)
 .debug_line    0x000000000001bd1a       0x7c 0x1 /home/ashwin/pop-compiler-lkvm/x86_64/lib/libc.a(stdout.o)
 .debug_line    0x000000000001bd96       0xb7 0x1 /home/ashwin/pop-compiler-lkvm/x86_64/lib/libc.a(vdprintf.o)
 .debug_line    0x000000000001be4d     0x1396 0x1 /home/ashwin/pop-compiler-lkvm/x86_64/lib/libc.a(vfprintf.o)
 .debug_line    0x000000000001d1e3      0x709 0x1 /home/ashwin/pop-compiler-lkvm/x86_64/lib/libc.a(vfscanf.o)
 .debug_line    0x000000000001d8ec      0x134 0x1 /home/ashwin/pop-compiler-lkvm/x86_64/lib/libc.a(vsnprintf.o)
 .debug_line    0x000000000001da20       0x4b 0x1 /home/ashwin/pop-compiler-lkvm/x86_64/lib/libc.a(vsprintf.o)
 .debug_line    0x000000000001da6b       0xb7 0x1 /home/ashwin/pop-compiler-lkvm/x86_64/lib/libc.a(vsscanf.o)
 .debug_line    0x000000000001db22       0xad 0x1 /home/ashwin/pop-compiler-lkvm/x86_64/lib/libc.a(atoi.o)
 .debug_line    0x000000000001dbcf      0x16c 0x1 /home/ashwin/pop-compiler-lkvm/x86_64/lib/libc.a(strtol.o)
 .debug_line    0x000000000001dd3b       0xd9 0x1 /home/ashwin/pop-compiler-lkvm/x86_64/lib/libc.a(memchr.o)
 .debug_line    0x000000000001de14       0x8c 0x1 /home/ashwin/pop-compiler-lkvm/x86_64/lib/libc.a(strcasestr.o)
 .debug_line    0x000000000001dea0       0x59 0x1 /home/ashwin/pop-compiler-lkvm/x86_64/lib/libc.a(strchr.o)
 .debug_line    0x000000000001def9       0xd9 0x1 /home/ashwin/pop-compiler-lkvm/x86_64/lib/libc.a(strchrnul.o)
 .debug_line    0x000000000001dfd2       0x6e 0x1 /home/ashwin/pop-compiler-lkvm/x86_64/lib/libc.a(strcmp.o)
 .debug_line    0x000000000001e040       0x4b 0x1 /home/ashwin/pop-compiler-lkvm/x86_64/lib/libc.a(strcpy.o)
 .debug_line    0x000000000001e08b       0x86 0x1 /home/ashwin/pop-compiler-lkvm/x86_64/lib/libc.a(strdup.o)
 .debug_line    0x000000000001e111       0xb8 0x1 /home/ashwin/pop-compiler-lkvm/x86_64/lib/libc.a(strlen.o)
 .debug_line    0x000000000001e1c9      0x190 0x1 /home/ashwin/pop-compiler-lkvm/x86_64/lib/libc.a(strncasecmp.o)
 .debug_line    0x000000000001e359       0xaf 0x1 /home/ashwin/pop-compiler-lkvm/x86_64/lib/libc.a(strncmp.o)
 .debug_line    0x000000000001e408       0x6b 0x1 /home/ashwin/pop-compiler-lkvm/x86_64/lib/libc.a(strncpy.o)
 .debug_line    0x000000000001e473       0x83 0x1 /home/ashwin/pop-compiler-lkvm/x86_64/lib/libc.a(strndup.o)
 .debug_line    0x000000000001e4f6       0x71 0x1 /home/ashwin/pop-compiler-lkvm/x86_64/lib/libc.a(strnlen.o)
 .debug_line    0x000000000001e567       0xd4 0x1 /home/ashwin/pop-compiler-lkvm/x86_64/lib/libc.a(strspn.o)
 .debug_line    0x000000000001e63b      0x4c3 0x1 /home/ashwin/pop-compiler-lkvm/x86_64/lib/libc.a(strstr.o)
 .debug_line    0x000000000001eafe       0x8f 0x1 /home/ashwin/pop-compiler-lkvm/x86_64/lib/libc.a(strtok.o)
 .debug_line    0x000000000001eb8d       0x61 0x1 /home/ashwin/pop-compiler-lkvm/x86_64/lib/libc.a(memcpy.o)
 .debug_line    0x000000000001ebee       0x5a 0x1 /home/ashwin/pop-compiler-lkvm/x86_64/lib/libc.a(memmove.o)
 .debug_line    0x000000000001ec48       0x86 0x1 /home/ashwin/pop-compiler-lkvm/x86_64/lib/libc.a(memset.o)
 .debug_line    0x000000000001ecce       0x49 0x1 /home/ashwin/pop-compiler-lkvm/x86_64/lib/libc.a(mkstemp.o)
 .debug_line    0x000000000001ed17       0x92 0x1 /home/ashwin/pop-compiler-lkvm/x86_64/lib/libc.a(tcgetattr.o)
 .debug_line    0x000000000001eda9       0x99 0x1 /home/ashwin/pop-compiler-lkvm/x86_64/lib/libc.a(tcsetattr.o)
 .debug_line    0x000000000001ee42      0x11f 0x1 /home/ashwin/pop-compiler-lkvm/x86_64/lib/libc.a(__lock.o)
 .debug_line    0x000000000001ef61       0x89 0x1 /home/ashwin/pop-compiler-lkvm/x86_64/lib/libc.a(__syscall_cp.o)
 .debug_line    0x000000000001efea      0x100 0x1 /home/ashwin/pop-compiler-lkvm/x86_64/lib/libc.a(__wait.o)
 .debug_line    0x000000000001f0ea       0xb0 0x1 /home/ashwin/pop-compiler-lkvm/x86_64/lib/libc.a(pthread_cleanup_push.o)
 .debug_line    0x000000000001f19a       0x95 0x1 /home/ashwin/pop-compiler-lkvm/x86_64/lib/libc.a(pthread_cond_init.o)
 .debug_line    0x000000000001f22f      0x114 0x1 /home/ashwin/pop-compiler-lkvm/x86_64/lib/libc.a(pthread_cond_signal.o)
 .debug_line    0x000000000001f343      0x62d 0x1 /home/ashwin/pop-compiler-lkvm/x86_64/lib/libc.a(pthread_cond_timedwait.o)
 .debug_line    0x000000000001f970       0x74 0x1 /home/ashwin/pop-compiler-lkvm/x86_64/lib/libc.a(pthread_cond_wait.o)
 .debug_line    0x000000000001f9e4      0x6a8 0x1 /home/ashwin/pop-compiler-lkvm/x86_64/lib/libc.a(pthread_create.o)
 .debug_line    0x000000000002008c      0x182 0x1 /home/ashwin/pop-compiler-lkvm/x86_64/lib/libc.a(pthread_join.o)
 .debug_line    0x000000000002020e       0xf0 0x1 /home/ashwin/pop-compiler-lkvm/x86_64/lib/libc.a(pthread_kill.o)
 .debug_line    0x00000000000202fe       0x86 0x1 /home/ashwin/pop-compiler-lkvm/x86_64/lib/libc.a(pthread_mutex_init.o)
 .debug_line    0x0000000000020384       0xaf 0x1 /home/ashwin/pop-compiler-lkvm/x86_64/lib/libc.a(pthread_mutex_lock.o)
 .debug_line    0x0000000000020433      0x1d4 0x1 /home/ashwin/pop-compiler-lkvm/x86_64/lib/libc.a(pthread_mutex_timedlock.o)
 .debug_line    0x0000000000020607      0x201 0x1 /home/ashwin/pop-compiler-lkvm/x86_64/lib/libc.a(pthread_mutex_trylock.o)
 .debug_line    0x0000000000020808      0x1cd 0x1 /home/ashwin/pop-compiler-lkvm/x86_64/lib/libc.a(pthread_mutex_unlock.o)
 .debug_line    0x00000000000209d5       0x78 0x1 /home/ashwin/pop-compiler-lkvm/x86_64/lib/libc.a(pthread_rwlock_rdlock.o)
 .debug_line    0x0000000000020a4d      0x126 0x1 /home/ashwin/pop-compiler-lkvm/x86_64/lib/libc.a(pthread_rwlock_timedrdlock.o)
 .debug_line    0x0000000000020b73       0xc9 0x1 /home/ashwin/pop-compiler-lkvm/x86_64/lib/libc.a(pthread_rwlock_tryrdlock.o)
 .debug_line    0x0000000000020c3c      0x127 0x1 /home/ashwin/pop-compiler-lkvm/x86_64/lib/libc.a(pthread_rwlock_unlock.o)
 .debug_line    0x0000000000020d63       0x78 0x1 /home/ashwin/pop-compiler-lkvm/x86_64/lib/libc.a(pthread_rwlock_wrlock.o)
 .debug_line    0x0000000000020ddb       0xf9 0x1 /home/ashwin/pop-compiler-lkvm/x86_64/lib/libc.a(pthread_setcancelstate.o)
 .debug_line    0x0000000000020ed4       0xbb 0x1 /home/ashwin/pop-compiler-lkvm/x86_64/lib/libc.a(pthread_sigmask.o)
 .debug_line    0x0000000000020f8f       0x6d 0x1 /home/ashwin/pop-compiler-lkvm/x86_64/lib/libc.a(pthread_testcancel.o)
 .debug_line    0x0000000000020ffc      0x123 0x1 /home/ashwin/pop-compiler-lkvm/x86_64/lib/libc.a(vmlock.o)
 .debug_line    0x000000000002111f       0x7e 0x1 /home/ashwin/pop-compiler-lkvm/x86_64/lib/libc.a(__cleartid_exit_nostack.o)
 .debug_line    0x000000000002119d       0x66 0x1 /home/ashwin/pop-compiler-lkvm/x86_64/lib/libc.a(__unmapself.o)
 .debug_line    0x0000000000021203       0x63 0x1 /home/ashwin/pop-compiler-lkvm/x86_64/lib/libc.a(clone.o)
 .debug_line    0x0000000000021266       0x7d 0x1 /home/ashwin/pop-compiler-lkvm/x86_64/lib/libc.a(gmtime.o)
 .debug_line    0x00000000000212e3       0x9c 0x1 /home/ashwin/pop-compiler-lkvm/x86_64/lib/libc.a(gmtime_r.o)
 .debug_line    0x000000000002137f       0x7a 0x1 /home/ashwin/pop-compiler-lkvm/x86_64/lib/libc.a(time.o)
 .debug_line    0x00000000000213f9       0x49 0x1 /home/ashwin/pop-compiler-lkvm/x86_64/lib/libc.a(_exit.o)
 .debug_line    0x0000000000021442       0x78 0x1 /home/ashwin/pop-compiler-lkvm/x86_64/lib/libc.a(access.o)
 .debug_line    0x00000000000214ba       0x6e 0x1 /home/ashwin/pop-compiler-lkvm/x86_64/lib/libc.a(close.o)
 .debug_line    0x0000000000021528       0x4d 0x1 /home/ashwin/pop-compiler-lkvm/x86_64/lib/libc.a(fdatasync.o)
 .debug_line    0x0000000000021575       0x49 0x1 /home/ashwin/pop-compiler-lkvm/x86_64/lib/libc.a(fsync.o)
 .debug_line    0x00000000000215be       0x9a 0x1 /home/ashwin/pop-compiler-lkvm/x86_64/lib/libc.a(ftruncate.o)
 .debug_line    0x0000000000021658       0x8e 0x1 /home/ashwin/pop-compiler-lkvm/x86_64/lib/libc.a(getpid.o)
 .debug_line    0x00000000000216e6       0xa0 0x1 /home/ashwin/pop-compiler-lkvm/x86_64/lib/libc.a(isatty.o)
 .debug_line    0x0000000000021786       0x97 0x1 /home/ashwin/pop-compiler-lkvm/x86_64/lib/libc.a(lchown.o)
 .debug_line    0x000000000002181d       0x73 0x1 /home/ashwin/pop-compiler-lkvm/x86_64/lib/libc.a(link.o)
 .debug_line    0x0000000000021890       0x96 0x1 /home/ashwin/pop-compiler-lkvm/x86_64/lib/libc.a(lseek.o)
 .debug_line    0x0000000000021926       0x68 0x1 /home/ashwin/pop-compiler-lkvm/x86_64/lib/libc.a(pread.o)
 .debug_line    0x000000000002198e       0x69 0x1 /home/ashwin/pop-compiler-lkvm/x86_64/lib/libc.a(preadv.o)
 .debug_line    0x00000000000219f7       0x69 0x1 /home/ashwin/pop-compiler-lkvm/x86_64/lib/libc.a(pwrite.o)
 .debug_line    0x0000000000021a60       0x6a 0x1 /home/ashwin/pop-compiler-lkvm/x86_64/lib/libc.a(pwritev.o)
 .debug_line    0x0000000000021aca       0x67 0x1 /home/ashwin/pop-compiler-lkvm/x86_64/lib/libc.a(read.o)
 .debug_line    0x0000000000021b31       0x96 0x1 /home/ashwin/pop-compiler-lkvm/x86_64/lib/libc.a(readlink.o)
 .debug_line    0x0000000000021bc7       0x68 0x1 /home/ashwin/pop-compiler-lkvm/x86_64/lib/libc.a(readv.o)
 .debug_line    0x0000000000021c2f       0x7b 0x1 /home/ashwin/pop-compiler-lkvm/x86_64/lib/libc.a(sleep.o)
 .debug_line    0x0000000000021caa       0x76 0x1 /home/ashwin/pop-compiler-lkvm/x86_64/lib/libc.a(symlink.o)
 .debug_line    0x0000000000021d20       0x96 0x1 /home/ashwin/pop-compiler-lkvm/x86_64/lib/libc.a(truncate.o)
 .debug_line    0x0000000000021db6       0x73 0x1 /home/ashwin/pop-compiler-lkvm/x86_64/lib/libc.a(unlink.o)
 .debug_line    0x0000000000021e29       0x7b 0x1 /home/ashwin/pop-compiler-lkvm/x86_64/lib/libc.a(usleep.o)
 .debug_line    0x0000000000021ea4       0x68 0x1 /home/ashwin/pop-compiler-lkvm/x86_64/lib/libc.a(write.o)
 .debug_line    0x0000000000021f0c       0x69 0x1 /home/ashwin/pop-compiler-lkvm/x86_64/lib/libc.a(writev.o)
 .debug_line    0x0000000000021f75       0xa9 0x1 /home/ashwin/pop-compiler-lkvm/x86_64/lib/libc.a(tolower.o)
 .debug_line    0x000000000002201e       0x35 0x1 /home/ashwin/pop-compiler-lkvm/x86_64/lib/libc.a(__environ.o)
 .debug_line    0x0000000000022053      0x293 0x1 /home/ashwin/pop-compiler-lkvm/x86_64/lib/libc.a(__init_tls.o)
 .debug_line    0x00000000000222e6      0x11c 0x1 /home/ashwin/pop-compiler-lkvm/x86_64/lib/libc.a(platform.o)
 .debug_line    0x0000000000022402       0x72 0x1 /home/ashwin/pop-compiler-lkvm/x86_64/lib/libc.a(_Exit.o)
 .debug_line    0x0000000000022474      0xf6d 0x1 /home/ashwin/pop-compiler-lkvm/x86_64/lib/libc.a(floatscan.o)
 .debug_line    0x00000000000233e1      0x48c 0x1 /home/ashwin/pop-compiler-lkvm/x86_64/lib/libc.a(intscan.o)
 .debug_line    0x000000000002386d       0x97 0x1 /home/ashwin/pop-compiler-lkvm/x86_64/lib/libc.a(procfdname.o)
 .debug_line    0x0000000000023904      0x177 0x1 /home/ashwin/pop-compiler-lkvm/x86_64/lib/libc.a(shgetc.o)
 .debug_line    0x0000000000023a7b       0x59 0x1 /home/ashwin/pop-compiler-lkvm/x86_64/lib/libc.a(syscall.o)
 .debug_line    0x0000000000023ad4      0x3c0 0x1 /home/ashwin/pop-compiler-lkvm/x86_64/lib/libc.a(expand_heap.o)
 .debug_line    0x0000000000023e94       0xbb 0x1 /home/ashwin/pop-compiler-lkvm/x86_64/lib/libc.a(__fpclassifyl.o)
 .debug_line    0x0000000000023f4f       0x88 0x1 /home/ashwin/pop-compiler-lkvm/x86_64/lib/libc.a(__signbitl.o)
 .debug_line    0x0000000000023fd7       0x91 0x1 /home/ashwin/pop-compiler-lkvm/x86_64/lib/libc.a(copysignl.o)
 .debug_line    0x0000000000024068       0xbe 0x1 /home/ashwin/pop-compiler-lkvm/x86_64/lib/libc.a(frexpl.o)
 .debug_line    0x0000000000024126       0xb6 0x1 /home/ashwin/pop-compiler-lkvm/x86_64/lib/libc.a(scalbn.o)
 .debug_line    0x00000000000241dc       0xe5 0x1 /home/ashwin/pop-compiler-lkvm/x86_64/lib/libc.a(scalbnl.o)
 .debug_line    0x00000000000242c1       0x4f 0x1 /home/ashwin/pop-compiler-lkvm/x86_64/lib/libc.a(fabs.o)
 .debug_line    0x0000000000024310       0x52 0x1 /home/ashwin/pop-compiler-lkvm/x86_64/lib/libc.a(fmodl.o)
 .debug_line    0x0000000000024362      0x1c0 0x1 /home/ashwin/pop-compiler-lkvm/x86_64/lib/libc.a(mbrtowc.o)
 .debug_line    0x0000000000024522       0x79 0x1 /home/ashwin/pop-compiler-lkvm/x86_64/lib/libc.a(mbsinit.o)
 .debug_line    0x000000000002459b       0x81 0x1 /home/ashwin/pop-compiler-lkvm/x86_64/lib/libc.a(wctomb.o)
 .debug_line    0x000000000002461c      0x1d2 0x1 /home/ashwin/pop-compiler-lkvm/x86_64/lib/libc.a(sigaction.o)
 .debug_line    0x00000000000247ee       0x50 0x1 /home/ashwin/pop-compiler-lkvm/x86_64/lib/libc.a(restore.o)
 .debug_line    0x000000000002483e      0x1a9 0x1 /home/ashwin/pop-compiler-lkvm/x86_64/lib/libc.a(__fdopen.o)
 .debug_line    0x00000000000249e7       0x8b 0x1 /home/ashwin/pop-compiler-lkvm/x86_64/lib/libc.a(__fmodeflags.o)
 .debug_line    0x0000000000024a72      0x18f 0x1 /home/ashwin/pop-compiler-lkvm/x86_64/lib/libc.a(__lockfile.o)
 .debug_line    0x0000000000024c01       0xed 0x1 /home/ashwin/pop-compiler-lkvm/x86_64/lib/libc.a(__overflow.o)
 .debug_line    0x0000000000024cee       0xd9 0x1 /home/ashwin/pop-compiler-lkvm/x86_64/lib/libc.a(__stdio_close.o)
 .debug_line    0x0000000000024dc7      0x131 0x1 /home/ashwin/pop-compiler-lkvm/x86_64/lib/libc.a(__stdio_read.o)
 .debug_line    0x0000000000024ef8       0xc5 0x1 /home/ashwin/pop-compiler-lkvm/x86_64/lib/libc.a(__stdio_seek.o)
 .debug_line    0x0000000000024fbd      0x16c 0x1 /home/ashwin/pop-compiler-lkvm/x86_64/lib/libc.a(__stdio_write.o)
 .debug_line    0x0000000000025129      0x100 0x1 /home/ashwin/pop-compiler-lkvm/x86_64/lib/libc.a(__stdout_write.o)
 .debug_line    0x0000000000025229       0xc7 0x1 /home/ashwin/pop-compiler-lkvm/x86_64/lib/libc.a(__string_read.o)
 .debug_line    0x00000000000252f0       0xe1 0x1 /home/ashwin/pop-compiler-lkvm/x86_64/lib/libc.a(__towrite.o)
 .debug_line    0x00000000000253d1       0xac 0x1 /home/ashwin/pop-compiler-lkvm/x86_64/lib/libc.a(__uflow.o)
 .debug_line    0x000000000002547d       0x9e 0x1 /home/ashwin/pop-compiler-lkvm/x86_64/lib/libc.a(fputs.o)
 .debug_line    0x000000000002551b      0x1fa 0x1 /home/ashwin/pop-compiler-lkvm/x86_64/lib/libc.a(getdelim.o)
 .debug_line    0x0000000000025715       0xaa 0x1 /home/ashwin/pop-compiler-lkvm/x86_64/lib/libc.a(ofl_add.o)
 .debug_line    0x00000000000257bf       0x99 0x1 /home/ashwin/pop-compiler-lkvm/x86_64/lib/libc.a(memcmp.o)
 .debug_line    0x0000000000025858       0xc9 0x1 /home/ashwin/pop-compiler-lkvm/x86_64/lib/libc.a(stpcpy.o)
 .debug_line    0x0000000000025921      0x101 0x1 /home/ashwin/pop-compiler-lkvm/x86_64/lib/libc.a(stpncpy.o)
 .debug_line    0x0000000000025a22       0xd3 0x1 /home/ashwin/pop-compiler-lkvm/x86_64/lib/libc.a(strcspn.o)
 .debug_line    0x0000000000025af5       0xd6 0x1 /home/ashwin/pop-compiler-lkvm/x86_64/lib/libc.a(mkostemps.o)
 .debug_line    0x0000000000025bcb       0xfc 0x1 /home/ashwin/pop-compiler-lkvm/x86_64/lib/libc.a(__timedwait.o)
 .debug_line    0x0000000000025cc7      0x122 0x1 /home/ashwin/pop-compiler-lkvm/x86_64/lib/libc.a(pthread_rwlock_timedwrlock.o)
 .debug_line    0x0000000000025de9       0xa6 0x1 /home/ashwin/pop-compiler-lkvm/x86_64/lib/libc.a(pthread_rwlock_trywrlock.o)
 .debug_line    0x0000000000025e8f       0x6c 0x1 /home/ashwin/pop-compiler-lkvm/x86_64/lib/libc.a(__set_thread_area.o)
 .debug_line    0x0000000000025efb      0x1a9 0x1 /home/ashwin/pop-compiler-lkvm/x86_64/lib/libc.a(__secs_to_tm.o)
 .debug_line    0x00000000000260a4      0xb29 0x1 /home/ashwin/pop-compiler-lkvm/x86_64/lib/libc.a(__tz.o)
 .debug_line    0x0000000000026bcd      0x12a 0x1 /home/ashwin/pop-compiler-lkvm/x86_64/lib/libc.a(__year_to_secs.o)
 .debug_line    0x0000000000026cf7       0xd8 0x1 /home/ashwin/pop-compiler-lkvm/x86_64/lib/libc.a(clock_gettime.o)
 .debug_line    0x0000000000026dcf       0x6a 0x1 /home/ashwin/pop-compiler-lkvm/x86_64/lib/libc.a(nanosleep.o)
 .debug_line    0x0000000000026e39       0x59 0x1 /home/ashwin/pop-compiler-lkvm/x86_64/lib/libc.a(internal.o)
 .debug_line    0x0000000000026e92      0x192 0x1 /home/ashwin/pop-compiler-lkvm/x86_64/lib/libc.a(wcrtomb.o)
 .debug_line    0x0000000000027024      0x10a 0x1 /home/ashwin/pop-compiler-lkvm/x86_64/lib/libc.a(__stdio_exit.o)
 .debug_line    0x000000000002712e       0xed 0x1 /home/ashwin/pop-compiler-lkvm/x86_64/lib/libc.a(__toread.o)
 .debug_line    0x000000000002721b       0x9d 0x1 /home/ashwin/pop-compiler-lkvm/x86_64/lib/libc.a(__randname.o)
 .debug_line    0x00000000000272b8      0x107 0x1 /home/ashwin/pop-compiler-lkvm/x86_64/lib/libc.a(__map_file.o)
 .debug_line    0x00000000000273bf       0x65 0x1 /home/ashwin/pop-compiler-lkvm/x86_64/lib/libc.a(__month_to_secs.o)

.debug_ranges   0x0000000000000000     0x69c0
 .debug_ranges  0x0000000000000000      0x270 0x1 builtin-run.o
 .debug_ranges  0x0000000000000270       0x30 0x1 builtin-setup.o
 .debug_ranges  0x00000000000002a0       0xa0 0x1 devices.o
 .debug_ranges  0x0000000000000340       0x60 0x1 kvm-cpu_common.o
 .debug_ranges  0x00000000000003a0       0xa0 0x1 disk/core.o
 .debug_ranges  0x0000000000000440       0x30 0x1 framebuffer.o
 .debug_ranges  0x0000000000000470      0x150 0x1 guest_compat.o
 .debug_ranges  0x00000000000005c0      0x230 0x1 hw/serial.o
 .debug_ranges  0x00000000000007f0       0x90 0x1 ioport_common.o
 .debug_ranges  0x0000000000000880       0xf0 0x1 x86/kvm-cpu.o
 .debug_ranges  0x0000000000000970      0x1c0 0x1 kvm_common.o
 .debug_ranges  0x0000000000000b30      0x280 0x1 pci_common.o
 .debug_ranges  0x0000000000000db0      0x1e0 0x1 virtio/blk.o
 .debug_ranges  0x0000000000000f90      0x230 0x1 virtio/scsi.o
 .debug_ranges  0x00000000000011c0       0xf0 0x1 virtio/console.o
 .debug_ranges  0x00000000000012b0       0x60 0x1 virtio/core.o
 .debug_ranges  0x0000000000001310      0x4c0 0x1 virtio/net.o
 .debug_ranges  0x00000000000017d0       0x60 0x1 virtio/rng.o
 .debug_ranges  0x0000000000001830       0xf0 0x1 virtio/balloon.o
 .debug_ranges  0x0000000000001920      0x110 0x1 virtio/pci.o
 .debug_ranges  0x0000000000001a30       0x30 0x1 disk/blk.o
 .debug_ranges  0x0000000000001a60      0x840 0x1 disk/qcow.o
 .debug_ranges  0x00000000000022a0       0x30 0x1 disk/raw.o
 .debug_ranges  0x00000000000022d0       0x60 0x1 ioeventfd.o
 .debug_ranges  0x0000000000002330      0x180 0x1 net/uip/tcp.o
 .debug_ranges  0x00000000000024b0       0x80 0x1 net/uip/udp.o
 .debug_ranges  0x0000000000002530      0x180 0x1 net/uip/buf.o
 .debug_ranges  0x00000000000026b0      0x160 0x1 net/uip/csum.o
 .debug_ranges  0x0000000000002810       0x90 0x1 net/uip/dhcp.o
 .debug_ranges  0x00000000000028a0       0x60 0x1 util/iovec.o
 .debug_ranges  0x0000000000002900      0x400 0x1 util/rbtree.o
 .debug_ranges  0x0000000000002d00      0x210 0x1 kvm-ipc.o
 .debug_ranges  0x0000000000002f10       0xc0 0x1 util/read-write.o
 .debug_ranges  0x0000000000002fd0      0x3a0 0x1 util/parse-options.o
 .debug_ranges  0x0000000000003370      0x1f0 0x1 util/threadpool.o
 .debug_ranges  0x0000000000003560       0xc0 0x1 util/rbtree-interval.o
 .debug_ranges  0x0000000000003620       0x60 0x1 hw/pci-shmem.o
 .debug_ranges  0x0000000000003680      0x510 0x1 hw/i8042.o
 .debug_ranges  0x0000000000003b90      0x280 0x1 virtio/9p.o
 .debug_ranges  0x0000000000003e10       0xa0 0x1 virtio/mmio.o
 .debug_ranges  0x0000000000003eb0      0x480 0x1 virtio/9p-pdu.o
 .debug_ranges  0x0000000000004330       0x30 0x1 x86/kvm.o
 .debug_ranges  0x0000000000004360       0x30 0x1 x86/mptable.o
 .debug_ranges  0x0000000000004390       0x40 0x1 /home/ashwin/pop-compiler-lkvm/x86_64/lib/libc.a(readdir.o)
 .debug_ranges  0x00000000000043d0       0x90 0x1 /home/ashwin/pop-compiler-lkvm/x86_64/lib/libc.a(__libc_start_main.o)
 .debug_ranges  0x0000000000004460       0x30 0x1 /home/ashwin/pop-compiler-lkvm/x86_64/lib/libc.a(getenv.o)
 .debug_ranges  0x0000000000004490       0x30 0x1 /home/ashwin/pop-compiler-lkvm/x86_64/lib/libc.a(strerror.o)
 .debug_ranges  0x00000000000044c0       0x60 0x1 /home/ashwin/pop-compiler-lkvm/x86_64/lib/libc.a(atexit.o)
 .debug_ranges  0x0000000000004520       0x40 0x1 /home/ashwin/pop-compiler-lkvm/x86_64/lib/libc.a(exit.o)
 .debug_ranges  0x0000000000004560       0x70 0x1 /home/ashwin/pop-compiler-lkvm/x86_64/lib/libc.a(fcntl.o)
 .debug_ranges  0x00000000000045d0       0x60 0x1 /home/ashwin/pop-compiler-lkvm/x86_64/lib/libc.a(epoll.o)
 .debug_ranges  0x0000000000004630       0x40 0x1 /home/ashwin/pop-compiler-lkvm/x86_64/lib/libc.a(eventfd.o)
 .debug_ranges  0x0000000000004670       0x40 0x1 /home/ashwin/pop-compiler-lkvm/x86_64/lib/libc.a(__lctrans.o)
 .debug_ranges  0x00000000000046b0       0x70 0x1 /home/ashwin/pop-compiler-lkvm/x86_64/lib/libc.a(calloc.o)
 .debug_ranges  0x0000000000004720       0x40 0x1 /home/ashwin/pop-compiler-lkvm/x86_64/lib/libc.a(lite_malloc.o)
 .debug_ranges  0x0000000000004760      0x520 0x1 /home/ashwin/pop-compiler-lkvm/x86_64/lib/libc.a(malloc.o)
 .debug_ranges  0x0000000000004c80      0x530 0x1 /home/ashwin/pop-compiler-lkvm/x86_64/lib/libc.a(popcorn_malloc.o)
 .debug_ranges  0x00000000000051b0       0x70 0x1 /home/ashwin/pop-compiler-lkvm/x86_64/lib/libc.a(mntent.o)
 .debug_ranges  0x0000000000005220       0x30 0x1 /home/ashwin/pop-compiler-lkvm/x86_64/lib/libc.a(mmap.o)
 .debug_ranges  0x0000000000005250       0x30 0x1 /home/ashwin/pop-compiler-lkvm/x86_64/lib/libc.a(mremap.o)
 .debug_ranges  0x0000000000005280       0x30 0x1 /home/ashwin/pop-compiler-lkvm/x86_64/lib/libc.a(munmap.o)
 .debug_ranges  0x00000000000052b0       0x40 0x1 /home/ashwin/pop-compiler-lkvm/x86_64/lib/libc.a(shm_open.o)
 .debug_ranges  0x00000000000052f0       0x30 0x1 /home/ashwin/pop-compiler-lkvm/x86_64/lib/libc.a(execl.o)
 .debug_ranges  0x0000000000005320       0x30 0x1 /home/ashwin/pop-compiler-lkvm/x86_64/lib/libc.a(fork.o)
 .debug_ranges  0x0000000000005350       0x40 0x1 /home/ashwin/pop-compiler-lkvm/x86_64/lib/libc.a(block.o)
 .debug_ranges  0x0000000000005390       0x30 0x1 /home/ashwin/pop-compiler-lkvm/x86_64/lib/libc.a(fstat.o)
 .debug_ranges  0x00000000000053c0       0x50 0x1 /home/ashwin/pop-compiler-lkvm/x86_64/lib/libc.a(statvfs.o)
 .debug_ranges  0x0000000000005410       0x30 0x1 /home/ashwin/pop-compiler-lkvm/x86_64/lib/libc.a(utimensat.o)
 .debug_ranges  0x0000000000005440       0x30 0x1 /home/ashwin/pop-compiler-lkvm/x86_64/lib/libc.a(fclose.o)
 .debug_ranges  0x0000000000005470       0x30 0x1 /home/ashwin/pop-compiler-lkvm/x86_64/lib/libc.a(fflush.o)
 .debug_ranges  0x00000000000054a0       0x40 0x1 /home/ashwin/pop-compiler-lkvm/x86_64/lib/libc.a(fseek.o)
 .debug_ranges  0x00000000000054e0       0x30 0x1 /home/ashwin/pop-compiler-lkvm/x86_64/lib/libc.a(fwrite.o)
 .debug_ranges  0x0000000000005510       0x30 0x1 /home/ashwin/pop-compiler-lkvm/x86_64/lib/libc.a(ofl.o)
 .debug_ranges  0x0000000000005540       0x30 0x1 /home/ashwin/pop-compiler-lkvm/x86_64/lib/libc.a(vdprintf.o)
 .debug_ranges  0x0000000000005570      0x520 0x1 /home/ashwin/pop-compiler-lkvm/x86_64/lib/libc.a(vfprintf.o)
 .debug_ranges  0x0000000000005a90       0xd0 0x1 /home/ashwin/pop-compiler-lkvm/x86_64/lib/libc.a(vfscanf.o)
 .debug_ranges  0x0000000000005b60       0x30 0x1 /home/ashwin/pop-compiler-lkvm/x86_64/lib/libc.a(vsnprintf.o)
 .debug_ranges  0x0000000000005b90       0x30 0x1 /home/ashwin/pop-compiler-lkvm/x86_64/lib/libc.a(vsscanf.o)
 .debug_ranges  0x0000000000005bc0       0x30 0x1 /home/ashwin/pop-compiler-lkvm/x86_64/lib/libc.a(atoi.o)
 .debug_ranges  0x0000000000005bf0       0x80 0x1 /home/ashwin/pop-compiler-lkvm/x86_64/lib/libc.a(strtol.o)
 .debug_ranges  0x0000000000005c70       0x30 0x1 /home/ashwin/pop-compiler-lkvm/x86_64/lib/libc.a(strncasecmp.o)
 .debug_ranges  0x0000000000005ca0       0xd0 0x1 /home/ashwin/pop-compiler-lkvm/x86_64/lib/libc.a(strstr.o)
 .debug_ranges  0x0000000000005d70       0x60 0x1 /home/ashwin/pop-compiler-lkvm/x86_64/lib/libc.a(__lock.o)
 .debug_ranges  0x0000000000005dd0       0x30 0x1 /home/ashwin/pop-compiler-lkvm/x86_64/lib/libc.a(__syscall_cp.o)
 .debug_ranges  0x0000000000005e00       0x40 0x1 /home/ashwin/pop-compiler-lkvm/x86_64/lib/libc.a(pthread_cleanup_push.o)
 .debug_ranges  0x0000000000005e40      0x110 0x1 /home/ashwin/pop-compiler-lkvm/x86_64/lib/libc.a(pthread_cond_timedwait.o)
 .debug_ranges  0x0000000000005f50       0xb0 0x1 /home/ashwin/pop-compiler-lkvm/x86_64/lib/libc.a(pthread_create.o)
 .debug_ranges  0x0000000000006000       0x40 0x1 /home/ashwin/pop-compiler-lkvm/x86_64/lib/libc.a(pthread_join.o)
 .debug_ranges  0x0000000000006040       0x30 0x1 /home/ashwin/pop-compiler-lkvm/x86_64/lib/libc.a(pthread_mutex_trylock.o)
 .debug_ranges  0x0000000000006070       0x30 0x1 /home/ashwin/pop-compiler-lkvm/x86_64/lib/libc.a(pthread_testcancel.o)
 .debug_ranges  0x00000000000060a0       0x40 0x1 /home/ashwin/pop-compiler-lkvm/x86_64/lib/libc.a(vmlock.o)
 .debug_ranges  0x00000000000060e0       0x30 0x1 /home/ashwin/pop-compiler-lkvm/x86_64/lib/libc.a(close.o)
 .debug_ranges  0x0000000000006110       0x30 0x1 /home/ashwin/pop-compiler-lkvm/x86_64/lib/libc.a(tolower.o)
 .debug_ranges  0x0000000000006140       0x40 0x1 /home/ashwin/pop-compiler-lkvm/x86_64/lib/libc.a(__init_tls.o)
 .debug_ranges  0x0000000000006180       0x40 0x1 /home/ashwin/pop-compiler-lkvm/x86_64/lib/libc.a(platform.o)
 .debug_ranges  0x00000000000061c0      0x320 0x1 /home/ashwin/pop-compiler-lkvm/x86_64/lib/libc.a(floatscan.o)
 .debug_ranges  0x00000000000064e0       0x70 0x1 /home/ashwin/pop-compiler-lkvm/x86_64/lib/libc.a(intscan.o)
 .debug_ranges  0x0000000000006550       0x30 0x1 /home/ashwin/pop-compiler-lkvm/x86_64/lib/libc.a(shgetc.o)
 .debug_ranges  0x0000000000006580       0xa0 0x1 /home/ashwin/pop-compiler-lkvm/x86_64/lib/libc.a(expand_heap.o)
 .debug_ranges  0x0000000000006620       0x40 0x1 /home/ashwin/pop-compiler-lkvm/x86_64/lib/libc.a(sigaction.o)
 .debug_ranges  0x0000000000006660       0x60 0x1 /home/ashwin/pop-compiler-lkvm/x86_64/lib/libc.a(__lockfile.o)
 .debug_ranges  0x00000000000066c0       0x30 0x1 /home/ashwin/pop-compiler-lkvm/x86_64/lib/libc.a(__stdio_close.o)
 .debug_ranges  0x00000000000066f0       0x30 0x1 /home/ashwin/pop-compiler-lkvm/x86_64/lib/libc.a(__stdio_write.o)
 .debug_ranges  0x0000000000006720       0x30 0x1 /home/ashwin/pop-compiler-lkvm/x86_64/lib/libc.a(__towrite.o)
 .debug_ranges  0x0000000000006750       0x30 0x1 /home/ashwin/pop-compiler-lkvm/x86_64/lib/libc.a(__timedwait.o)
 .debug_ranges  0x0000000000006780      0x1b0 0x1 /home/ashwin/pop-compiler-lkvm/x86_64/lib/libc.a(__tz.o)
 .debug_ranges  0x0000000000006930       0x30 0x1 /home/ashwin/pop-compiler-lkvm/x86_64/lib/libc.a(__year_to_secs.o)
 .debug_ranges  0x0000000000006960       0x30 0x1 /home/ashwin/pop-compiler-lkvm/x86_64/lib/libc.a(__stdio_exit.o)
 .debug_ranges  0x0000000000006990       0x30 0x1 /home/ashwin/pop-compiler-lkvm/x86_64/lib/libc.a(__toread.o)

.debug_frame    0x0000000000000000     0x4f38
 .debug_frame   0x0000000000000000       0x38 0x8 /home/ashwin/pop-compiler-lkvm/x86_64/lib/crt1.o
 .debug_frame   0x0000000000000038       0x50 0x8 /home/ashwin/pop-compiler-lkvm/x86_64/lib/libc.a(sysconf.o)
 .debug_frame   0x0000000000000088       0x48 0x8 /home/ashwin/pop-compiler-lkvm/x86_64/lib/libc.a(closedir.o)
 .debug_frame   0x00000000000000d0       0x30 0x8 /home/ashwin/pop-compiler-lkvm/x86_64/lib/libc.a(dirfd.o)
 .debug_frame   0x0000000000000100       0x48 0x8 /home/ashwin/pop-compiler-lkvm/x86_64/lib/libc.a(opendir.o)
 .debug_frame   0x0000000000000148       0x40 0x8 /home/ashwin/pop-compiler-lkvm/x86_64/lib/libc.a(readdir.o)
 .debug_frame   0x0000000000000188       0x68 0x8 /home/ashwin/pop-compiler-lkvm/x86_64/lib/libc.a(readdir_r.o)
 .debug_frame   0x00000000000001f0       0x48 0x8 /home/ashwin/pop-compiler-lkvm/x86_64/lib/libc.a(seekdir.o)
 .debug_frame   0x0000000000000238       0xe8 0x8 /home/ashwin/pop-compiler-lkvm/x86_64/lib/libc.a(__libc_start_main.o)
 .debug_frame   0x0000000000000320       0x60 0x8 /home/ashwin/pop-compiler-lkvm/x86_64/lib/libc.a(getenv.o)
 .debug_frame   0x0000000000000380       0x30 0x8 /home/ashwin/pop-compiler-lkvm/x86_64/lib/libc.a(__errno_location.o)
 .debug_frame   0x00000000000003b0       0x48 0x8 /home/ashwin/pop-compiler-lkvm/x86_64/lib/libc.a(strerror.o)
 .debug_frame   0x00000000000003f8       0xc0 0x8 /home/ashwin/pop-compiler-lkvm/x86_64/lib/libc.a(atexit.o)
 .debug_frame   0x00000000000004b8       0x80 0x8 /home/ashwin/pop-compiler-lkvm/x86_64/lib/libc.a(exit.o)
 .debug_frame   0x0000000000000538       0x40 0x8 /home/ashwin/pop-compiler-lkvm/x86_64/lib/libc.a(fcntl.o)
 .debug_frame   0x0000000000000578       0x48 0x8 /home/ashwin/pop-compiler-lkvm/x86_64/lib/libc.a(open.o)
 .debug_frame   0x00000000000005c0       0x38 0x8 /home/ashwin/pop-compiler-lkvm/x86_64/lib/libc.a(syscall_ret.o)
 .debug_frame   0x00000000000005f8       0x30 0x8 /home/ashwin/pop-compiler-lkvm/x86_64/lib/libc.a(getpagesize.o)
 .debug_frame   0x0000000000000628       0x90 0x8 /home/ashwin/pop-compiler-lkvm/x86_64/lib/libc.a(epoll.o)
 .debug_frame   0x00000000000006b8       0x70 0x8 /home/ashwin/pop-compiler-lkvm/x86_64/lib/libc.a(eventfd.o)
 .debug_frame   0x0000000000000728       0x38 0x8 /home/ashwin/pop-compiler-lkvm/x86_64/lib/libc.a(prctl.o)
 .debug_frame   0x0000000000000760       0x30 0x8 /home/ashwin/pop-compiler-lkvm/x86_64/lib/libc.a(sysinfo.o)
 .debug_frame   0x0000000000000790       0x60 0x8 /home/ashwin/pop-compiler-lkvm/x86_64/lib/libc.a(__lctrans.o)
 .debug_frame   0x00000000000007f0       0xa8 0x8 /home/ashwin/pop-compiler-lkvm/x86_64/lib/libc.a(calloc.o)
 .debug_frame   0x0000000000000898       0x50 0x8 /home/ashwin/pop-compiler-lkvm/x86_64/lib/libc.a(lite_malloc.o)
 .debug_frame   0x00000000000008e8      0x200 0x8 /home/ashwin/pop-compiler-lkvm/x86_64/lib/libc.a(malloc.o)
 .debug_frame   0x0000000000000ae8      0x298 0x8 /home/ashwin/pop-compiler-lkvm/x86_64/lib/libc.a(popcorn_malloc.o)
 .debug_frame   0x0000000000000d80       0x50 0x8 /home/ashwin/pop-compiler-lkvm/x86_64/lib/libc.a(getrlimit.o)
 .debug_frame   0x0000000000000dd0       0x38 0x8 /home/ashwin/pop-compiler-lkvm/x86_64/lib/libc.a(ioctl.o)
 .debug_frame   0x0000000000000e08      0x128 0x8 /home/ashwin/pop-compiler-lkvm/x86_64/lib/libc.a(mntent.o)
 .debug_frame   0x0000000000000f30       0x70 0x8 /home/ashwin/pop-compiler-lkvm/x86_64/lib/libc.a(openpty.o)
 .debug_frame   0x0000000000000fa0       0x60 0x8 /home/ashwin/pop-compiler-lkvm/x86_64/lib/libc.a(realpath.o)
 .debug_frame   0x0000000000001000       0x30 0x8 /home/ashwin/pop-compiler-lkvm/x86_64/lib/libc.a(uname.o)
 .debug_frame   0x0000000000001030       0x30 0x8 /home/ashwin/pop-compiler-lkvm/x86_64/lib/libc.a(madvise.o)
 .debug_frame   0x0000000000001060       0x88 0x8 /home/ashwin/pop-compiler-lkvm/x86_64/lib/libc.a(mmap.o)
 .debug_frame   0x00000000000010e8       0x30 0x8 /home/ashwin/pop-compiler-lkvm/x86_64/lib/libc.a(mprotect.o)
 .debug_frame   0x0000000000001118       0x78 0x8 /home/ashwin/pop-compiler-lkvm/x86_64/lib/libc.a(mremap.o)
 .debug_frame   0x0000000000001190       0x60 0x8 /home/ashwin/pop-compiler-lkvm/x86_64/lib/libc.a(munmap.o)
 .debug_frame   0x00000000000011f0       0xb0 0x8 /home/ashwin/pop-compiler-lkvm/x86_64/lib/libc.a(shm_open.o)
 .debug_frame   0x00000000000012a0       0x38 0x8 /home/ashwin/pop-compiler-lkvm/x86_64/lib/libc.a(accept.o)
 .debug_frame   0x00000000000012d8       0x30 0x8 /home/ashwin/pop-compiler-lkvm/x86_64/lib/libc.a(bind.o)
 .debug_frame   0x0000000000001308       0x38 0x8 /home/ashwin/pop-compiler-lkvm/x86_64/lib/libc.a(connect.o)
 .debug_frame   0x0000000000001340       0x30 0x8 /home/ashwin/pop-compiler-lkvm/x86_64/lib/libc.a(htonl.o)
 .debug_frame   0x0000000000001370       0x30 0x8 /home/ashwin/pop-compiler-lkvm/x86_64/lib/libc.a(htons.o)
 .debug_frame   0x00000000000013a0       0x40 0x8 /home/ashwin/pop-compiler-lkvm/x86_64/lib/libc.a(inet_addr.o)
 .debug_frame   0x00000000000013e0       0x68 0x8 /home/ashwin/pop-compiler-lkvm/x86_64/lib/libc.a(inet_aton.o)
 .debug_frame   0x0000000000001448       0x30 0x8 /home/ashwin/pop-compiler-lkvm/x86_64/lib/libc.a(listen.o)
 .debug_frame   0x0000000000001478       0x30 0x8 /home/ashwin/pop-compiler-lkvm/x86_64/lib/libc.a(ntohl.o)
 .debug_frame   0x00000000000014a8       0x30 0x8 /home/ashwin/pop-compiler-lkvm/x86_64/lib/libc.a(ntohs.o)
 .debug_frame   0x00000000000014d8       0x38 0x8 /home/ashwin/pop-compiler-lkvm/x86_64/lib/libc.a(recvfrom.o)
 .debug_frame   0x0000000000001510       0x38 0x8 /home/ashwin/pop-compiler-lkvm/x86_64/lib/libc.a(sendto.o)
 .debug_frame   0x0000000000001548       0x30 0x8 /home/ashwin/pop-compiler-lkvm/x86_64/lib/libc.a(shutdown.o)
 .debug_frame   0x0000000000001578       0x60 0x8 /home/ashwin/pop-compiler-lkvm/x86_64/lib/libc.a(socket.o)
 .debug_frame   0x00000000000015d8       0x48 0x8 /home/ashwin/pop-compiler-lkvm/x86_64/lib/libc.a(execl.o)
 .debug_frame   0x0000000000001620       0x30 0x8 /home/ashwin/pop-compiler-lkvm/x86_64/lib/libc.a(execv.o)
 .debug_frame   0x0000000000001650       0x30 0x8 /home/ashwin/pop-compiler-lkvm/x86_64/lib/libc.a(execve.o)
 .debug_frame   0x0000000000001680       0x68 0x8 /home/ashwin/pop-compiler-lkvm/x86_64/lib/libc.a(fork.o)
 .debug_frame   0x00000000000016e8       0x38 0x8 /home/ashwin/pop-compiler-lkvm/x86_64/lib/libc.a(waitpid.o)
 .debug_frame   0x0000000000001720       0x38 0x8 /home/ashwin/pop-compiler-lkvm/x86_64/lib/libc.a(poll.o)
 .debug_frame   0x0000000000001758       0x38 0x8 /home/ashwin/pop-compiler-lkvm/x86_64/lib/libc.a(select.o)
 .debug_frame   0x0000000000001790       0x60 0x8 /home/ashwin/pop-compiler-lkvm/x86_64/lib/libc.a(block.o)
 .debug_frame   0x00000000000017f0       0x48 0x8 /home/ashwin/pop-compiler-lkvm/x86_64/lib/libc.a(raise.o)
 .debug_frame   0x0000000000001838       0x38 0x8 /home/ashwin/pop-compiler-lkvm/x86_64/lib/libc.a(sigaddset.o)
 .debug_frame   0x0000000000001870       0x30 0x8 /home/ashwin/pop-compiler-lkvm/x86_64/lib/libc.a(sigemptyset.o)
 .debug_frame   0x00000000000018a0       0x50 0x8 /home/ashwin/pop-compiler-lkvm/x86_64/lib/libc.a(signal.o)
 .debug_frame   0x00000000000018f0       0x30 0x8 /home/ashwin/pop-compiler-lkvm/x86_64/lib/libc.a(sigrtmin.o)
 .debug_frame   0x0000000000001920       0x30 0x8 /home/ashwin/pop-compiler-lkvm/x86_64/lib/libc.a(chmod.o)
 .debug_frame   0x0000000000001950       0x88 0x8 /home/ashwin/pop-compiler-lkvm/x86_64/lib/libc.a(fstat.o)
 .debug_frame   0x00000000000019d8       0x50 0x8 /home/ashwin/pop-compiler-lkvm/x86_64/lib/libc.a(lstat.o)
 .debug_frame   0x0000000000001a28       0x30 0x8 /home/ashwin/pop-compiler-lkvm/x86_64/lib/libc.a(mkdir.o)
 .debug_frame   0x0000000000001a58       0x30 0x8 /home/ashwin/pop-compiler-lkvm/x86_64/lib/libc.a(mknod.o)
 .debug_frame   0x0000000000001a88       0x48 0x8 /home/ashwin/pop-compiler-lkvm/x86_64/lib/libc.a(stat.o)
 .debug_frame   0x0000000000001ad0       0xa8 0x8 /home/ashwin/pop-compiler-lkvm/x86_64/lib/libc.a(statvfs.o)
 .debug_frame   0x0000000000001b78       0x40 0x8 /home/ashwin/pop-compiler-lkvm/x86_64/lib/libc.a(utimensat.o)
 .debug_frame   0x0000000000001bb8       0x38 0x8 /home/ashwin/pop-compiler-lkvm/x86_64/lib/libc.a(dprintf.o)
 .debug_frame   0x0000000000001bf0       0x78 0x8 /home/ashwin/pop-compiler-lkvm/x86_64/lib/libc.a(fclose.o)
 .debug_frame   0x0000000000001c68       0x48 0x8 /home/ashwin/pop-compiler-lkvm/x86_64/lib/libc.a(feof.o)
 .debug_frame   0x0000000000001cb0       0x48 0x8 /home/ashwin/pop-compiler-lkvm/x86_64/lib/libc.a(ferror.o)
 .debug_frame   0x0000000000001cf8       0x58 0x8 /home/ashwin/pop-compiler-lkvm/x86_64/lib/libc.a(fflush.o)
 .debug_frame   0x0000000000001d50       0x68 0x8 /home/ashwin/pop-compiler-lkvm/x86_64/lib/libc.a(fgets.o)
 .debug_frame   0x0000000000001db8       0x50 0x8 /home/ashwin/pop-compiler-lkvm/x86_64/lib/libc.a(fopen.o)
 .debug_frame   0x0000000000001e08       0x38 0x8 /home/ashwin/pop-compiler-lkvm/x86_64/lib/libc.a(fprintf.o)
 .debug_frame   0x0000000000001e40       0x50 0x8 /home/ashwin/pop-compiler-lkvm/x86_64/lib/libc.a(fputc.o)
 .debug_frame   0x0000000000001e90       0x38 0x8 /home/ashwin/pop-compiler-lkvm/x86_64/lib/libc.a(fscanf.o)
 .debug_frame   0x0000000000001ec8       0xb0 0x8 /home/ashwin/pop-compiler-lkvm/x86_64/lib/libc.a(fseek.o)
 .debug_frame   0x0000000000001f78       0xb0 0x8 /home/ashwin/pop-compiler-lkvm/x86_64/lib/libc.a(fwrite.o)
 .debug_frame   0x0000000000002028       0x30 0x8 /home/ashwin/pop-compiler-lkvm/x86_64/lib/libc.a(getline.o)
 .debug_frame   0x0000000000002058       0x50 0x8 /home/ashwin/pop-compiler-lkvm/x86_64/lib/libc.a(ofl.o)
 .debug_frame   0x00000000000020a8       0x58 0x8 /home/ashwin/pop-compiler-lkvm/x86_64/lib/libc.a(perror.o)
 .debug_frame   0x0000000000002100       0x38 0x8 /home/ashwin/pop-compiler-lkvm/x86_64/lib/libc.a(printf.o)
 .debug_frame   0x0000000000002138       0x30 0x8 /home/ashwin/pop-compiler-lkvm/x86_64/lib/libc.a(putchar.o)
 .debug_frame   0x0000000000002168       0x50 0x8 /home/ashwin/pop-compiler-lkvm/x86_64/lib/libc.a(puts.o)
 .debug_frame   0x00000000000021b8       0x30 0x8 /home/ashwin/pop-compiler-lkvm/x86_64/lib/libc.a(remove.o)
 .debug_frame   0x00000000000021e8       0x30 0x8 /home/ashwin/pop-compiler-lkvm/x86_64/lib/libc.a(rename.o)
 .debug_frame   0x0000000000002218       0x38 0x8 /home/ashwin/pop-compiler-lkvm/x86_64/lib/libc.a(snprintf.o)
 .debug_frame   0x0000000000002250       0x38 0x8 /home/ashwin/pop-compiler-lkvm/x86_64/lib/libc.a(sprintf.o)
 .debug_frame   0x0000000000002288       0x38 0x8 /home/ashwin/pop-compiler-lkvm/x86_64/lib/libc.a(sscanf.o)
 .debug_frame   0x00000000000022c0       0x70 0x8 /home/ashwin/pop-compiler-lkvm/x86_64/lib/libc.a(vdprintf.o)
 .debug_frame   0x0000000000002330      0x130 0x8 /home/ashwin/pop-compiler-lkvm/x86_64/lib/libc.a(vfprintf.o)
 .debug_frame   0x0000000000002460       0x70 0x8 /home/ashwin/pop-compiler-lkvm/x86_64/lib/libc.a(vfscanf.o)
 .debug_frame   0x00000000000024d0       0xb8 0x8 /home/ashwin/pop-compiler-lkvm/x86_64/lib/libc.a(vsnprintf.o)
 .debug_frame   0x0000000000002588       0x30 0x8 /home/ashwin/pop-compiler-lkvm/x86_64/lib/libc.a(vsprintf.o)
 .debug_frame   0x00000000000025b8       0x70 0x8 /home/ashwin/pop-compiler-lkvm/x86_64/lib/libc.a(vsscanf.o)
 .debug_frame   0x0000000000002628       0x30 0x8 /home/ashwin/pop-compiler-lkvm/x86_64/lib/libc.a(atoi.o)
 .debug_frame   0x0000000000002658       0xf0 0x8 /home/ashwin/pop-compiler-lkvm/x86_64/lib/libc.a(strtol.o)
 .debug_frame   0x0000000000002748       0x30 0x8 /home/ashwin/pop-compiler-lkvm/x86_64/lib/libc.a(memchr.o)
 .debug_frame   0x0000000000002778       0x48 0x8 /home/ashwin/pop-compiler-lkvm/x86_64/lib/libc.a(strcasestr.o)
 .debug_frame   0x00000000000027c0       0x38 0x8 /home/ashwin/pop-compiler-lkvm/x86_64/lib/libc.a(strchr.o)
 .debug_frame   0x00000000000027f8       0x40 0x8 /home/ashwin/pop-compiler-lkvm/x86_64/lib/libc.a(strchrnul.o)
 .debug_frame   0x0000000000002838       0x30 0x8 /home/ashwin/pop-compiler-lkvm/x86_64/lib/libc.a(strcmp.o)
 .debug_frame   0x0000000000002868       0x38 0x8 /home/ashwin/pop-compiler-lkvm/x86_64/lib/libc.a(strcpy.o)
 .debug_frame   0x00000000000028a0       0x58 0x8 /home/ashwin/pop-compiler-lkvm/x86_64/lib/libc.a(strdup.o)
 .debug_frame   0x00000000000028f8       0x30 0x8 /home/ashwin/pop-compiler-lkvm/x86_64/lib/libc.a(strlen.o)
 .debug_frame   0x0000000000002928       0x98 0x8 /home/ashwin/pop-compiler-lkvm/x86_64/lib/libc.a(strncasecmp.o)
 .debug_frame   0x00000000000029c0       0x30 0x8 /home/ashwin/pop-compiler-lkvm/x86_64/lib/libc.a(strncmp.o)
 .debug_frame   0x00000000000029f0       0x38 0x8 /home/ashwin/pop-compiler-lkvm/x86_64/lib/libc.a(strncpy.o)
 .debug_frame   0x0000000000002a28       0x48 0x8 /home/ashwin/pop-compiler-lkvm/x86_64/lib/libc.a(strndup.o)
 .debug_frame   0x0000000000002a70       0x48 0x8 /home/ashwin/pop-compiler-lkvm/x86_64/lib/libc.a(strnlen.o)
 .debug_frame   0x0000000000002ab8       0x30 0x8 /home/ashwin/pop-compiler-lkvm/x86_64/lib/libc.a(strspn.o)
 .debug_frame   0x0000000000002ae8       0x70 0x8 /home/ashwin/pop-compiler-lkvm/x86_64/lib/libc.a(strstr.o)
 .debug_frame   0x0000000000002b58       0x48 0x8 /home/ashwin/pop-compiler-lkvm/x86_64/lib/libc.a(strtok.o)
 .debug_frame   0x0000000000002ba0       0x40 0x8 /home/ashwin/pop-compiler-lkvm/x86_64/lib/libc.a(memcpy.o)
 .debug_frame   0x0000000000002be0       0x40 0x8 /home/ashwin/pop-compiler-lkvm/x86_64/lib/libc.a(memmove.o)
 .debug_frame   0x0000000000002c20       0x40 0x8 /home/ashwin/pop-compiler-lkvm/x86_64/lib/libc.a(memset.o)
 .debug_frame   0x0000000000002c60       0x30 0x8 /home/ashwin/pop-compiler-lkvm/x86_64/lib/libc.a(mkstemp.o)
 .debug_frame   0x0000000000002c90       0x38 0x8 /home/ashwin/pop-compiler-lkvm/x86_64/lib/libc.a(tcgetattr.o)
 .debug_frame   0x0000000000002cc8       0x38 0x8 /home/ashwin/pop-compiler-lkvm/x86_64/lib/libc.a(tcsetattr.o)
 .debug_frame   0x0000000000002d00       0x60 0x8 /home/ashwin/pop-compiler-lkvm/x86_64/lib/libc.a(__lock.o)
 .debug_frame   0x0000000000002d60       0x50 0x8 /home/ashwin/pop-compiler-lkvm/x86_64/lib/libc.a(__syscall_cp.o)
 .debug_frame   0x0000000000002db0       0x40 0x8 /home/ashwin/pop-compiler-lkvm/x86_64/lib/libc.a(__wait.o)
 .debug_frame   0x0000000000002df0       0x78 0x8 /home/ashwin/pop-compiler-lkvm/x86_64/lib/libc.a(pthread_cleanup_push.o)
 .debug_frame   0x0000000000002e68       0x30 0x8 /home/ashwin/pop-compiler-lkvm/x86_64/lib/libc.a(pthread_cond_init.o)
 .debug_frame   0x0000000000002e98       0x38 0x8 /home/ashwin/pop-compiler-lkvm/x86_64/lib/libc.a(pthread_cond_signal.o)
 .debug_frame   0x0000000000002ed0       0xb0 0x8 /home/ashwin/pop-compiler-lkvm/x86_64/lib/libc.a(pthread_cond_timedwait.o)
 .debug_frame   0x0000000000002f80       0x30 0x8 /home/ashwin/pop-compiler-lkvm/x86_64/lib/libc.a(pthread_cond_wait.o)
 .debug_frame   0x0000000000002fb0      0x130 0x8 /home/ashwin/pop-compiler-lkvm/x86_64/lib/libc.a(pthread_create.o)
 .debug_frame   0x00000000000030e0       0x98 0x8 /home/ashwin/pop-compiler-lkvm/x86_64/lib/libc.a(pthread_join.o)
 .debug_frame   0x0000000000003178       0x58 0x8 /home/ashwin/pop-compiler-lkvm/x86_64/lib/libc.a(pthread_kill.o)
 .debug_frame   0x00000000000031d0       0x30 0x8 /home/ashwin/pop-compiler-lkvm/x86_64/lib/libc.a(pthread_mutex_init.o)
 .debug_frame   0x0000000000003200       0x38 0x8 /home/ashwin/pop-compiler-lkvm/x86_64/lib/libc.a(pthread_mutex_lock.o)
 .debug_frame   0x0000000000003238       0x60 0x8 /home/ashwin/pop-compiler-lkvm/x86_64/lib/libc.a(pthread_mutex_timedlock.o)
 .debug_frame   0x0000000000003298       0x68 0x8 /home/ashwin/pop-compiler-lkvm/x86_64/lib/libc.a(pthread_mutex_trylock.o)
 .debug_frame   0x0000000000003300       0x68 0x8 /home/ashwin/pop-compiler-lkvm/x86_64/lib/libc.a(pthread_mutex_unlock.o)
 .debug_frame   0x0000000000003368       0x30 0x8 /home/ashwin/pop-compiler-lkvm/x86_64/lib/libc.a(pthread_rwlock_rdlock.o)
 .debug_frame   0x0000000000003398       0x68 0x8 /home/ashwin/pop-compiler-lkvm/x86_64/lib/libc.a(pthread_rwlock_timedrdlock.o)
 .debug_frame   0x0000000000003400       0x30 0x8 /home/ashwin/pop-compiler-lkvm/x86_64/lib/libc.a(pthread_rwlock_tryrdlock.o)
 .debug_frame   0x0000000000003430       0x30 0x8 /home/ashwin/pop-compiler-lkvm/x86_64/lib/libc.a(pthread_rwlock_unlock.o)
 .debug_frame   0x0000000000003460       0x30 0x8 /home/ashwin/pop-compiler-lkvm/x86_64/lib/libc.a(pthread_rwlock_wrlock.o)
 .debug_frame   0x0000000000003490       0x30 0x8 /home/ashwin/pop-compiler-lkvm/x86_64/lib/libc.a(pthread_setcancelstate.o)
 .debug_frame   0x00000000000034c0       0x30 0x8 /home/ashwin/pop-compiler-lkvm/x86_64/lib/libc.a(pthread_sigmask.o)
 .debug_frame   0x00000000000034f0       0x48 0x8 /home/ashwin/pop-compiler-lkvm/x86_64/lib/libc.a(pthread_testcancel.o)
 .debug_frame   0x0000000000003538       0x68 0x8 /home/ashwin/pop-compiler-lkvm/x86_64/lib/libc.a(vmlock.o)
 .debug_frame   0x00000000000035a0       0x30 0x8 /home/ashwin/pop-compiler-lkvm/x86_64/lib/libc.a(__unmapself.o)
 .debug_frame   0x00000000000035d0       0x50 0x8 /home/ashwin/pop-compiler-lkvm/x86_64/lib/libc.a(clone.o)
 .debug_frame   0x0000000000003620       0x30 0x8 /home/ashwin/pop-compiler-lkvm/x86_64/lib/libc.a(gmtime.o)
 .debug_frame   0x0000000000003650       0x38 0x8 /home/ashwin/pop-compiler-lkvm/x86_64/lib/libc.a(gmtime_r.o)
 .debug_frame   0x0000000000003688       0x48 0x8 /home/ashwin/pop-compiler-lkvm/x86_64/lib/libc.a(time.o)
 .debug_frame   0x00000000000036d0       0x38 0x8 /home/ashwin/pop-compiler-lkvm/x86_64/lib/libc.a(_exit.o)
 .debug_frame   0x0000000000003708       0x30 0x8 /home/ashwin/pop-compiler-lkvm/x86_64/lib/libc.a(access.o)
 .debug_frame   0x0000000000003738       0x58 0x8 /home/ashwin/pop-compiler-lkvm/x86_64/lib/libc.a(close.o)
 .debug_frame   0x0000000000003790       0x38 0x8 /home/ashwin/pop-compiler-lkvm/x86_64/lib/libc.a(fdatasync.o)
 .debug_frame   0x00000000000037c8       0x38 0x8 /home/ashwin/pop-compiler-lkvm/x86_64/lib/libc.a(fsync.o)
 .debug_frame   0x0000000000003800       0x30 0x8 /home/ashwin/pop-compiler-lkvm/x86_64/lib/libc.a(ftruncate.o)
 .debug_frame   0x0000000000003830       0x30 0x8 /home/ashwin/pop-compiler-lkvm/x86_64/lib/libc.a(getpid.o)
 .debug_frame   0x0000000000003860       0x30 0x8 /home/ashwin/pop-compiler-lkvm/x86_64/lib/libc.a(isatty.o)
 .debug_frame   0x0000000000003890       0x30 0x8 /home/ashwin/pop-compiler-lkvm/x86_64/lib/libc.a(lchown.o)
 .debug_frame   0x00000000000038c0       0x30 0x8 /home/ashwin/pop-compiler-lkvm/x86_64/lib/libc.a(link.o)
 .debug_frame   0x00000000000038f0       0x30 0x8 /home/ashwin/pop-compiler-lkvm/x86_64/lib/libc.a(lseek.o)
 .debug_frame   0x0000000000003920       0x38 0x8 /home/ashwin/pop-compiler-lkvm/x86_64/lib/libc.a(pread.o)
 .debug_frame   0x0000000000003958       0x38 0x8 /home/ashwin/pop-compiler-lkvm/x86_64/lib/libc.a(preadv.o)
 .debug_frame   0x0000000000003990       0x38 0x8 /home/ashwin/pop-compiler-lkvm/x86_64/lib/libc.a(pwrite.o)
 .debug_frame   0x00000000000039c8       0x38 0x8 /home/ashwin/pop-compiler-lkvm/x86_64/lib/libc.a(pwritev.o)
 .debug_frame   0x0000000000003a00       0x38 0x8 /home/ashwin/pop-compiler-lkvm/x86_64/lib/libc.a(read.o)
 .debug_frame   0x0000000000003a38       0x30 0x8 /home/ashwin/pop-compiler-lkvm/x86_64/lib/libc.a(readlink.o)
 .debug_frame   0x0000000000003a68       0x38 0x8 /home/ashwin/pop-compiler-lkvm/x86_64/lib/libc.a(readv.o)
 .debug_frame   0x0000000000003aa0       0x38 0x8 /home/ashwin/pop-compiler-lkvm/x86_64/lib/libc.a(sleep.o)
 .debug_frame   0x0000000000003ad8       0x30 0x8 /home/ashwin/pop-compiler-lkvm/x86_64/lib/libc.a(symlink.o)
 .debug_frame   0x0000000000003b08       0x30 0x8 /home/ashwin/pop-compiler-lkvm/x86_64/lib/libc.a(truncate.o)
 .debug_frame   0x0000000000003b38       0x30 0x8 /home/ashwin/pop-compiler-lkvm/x86_64/lib/libc.a(unlink.o)
 .debug_frame   0x0000000000003b68       0x38 0x8 /home/ashwin/pop-compiler-lkvm/x86_64/lib/libc.a(usleep.o)
 .debug_frame   0x0000000000003ba0       0x38 0x8 /home/ashwin/pop-compiler-lkvm/x86_64/lib/libc.a(write.o)
 .debug_frame   0x0000000000003bd8       0x38 0x8 /home/ashwin/pop-compiler-lkvm/x86_64/lib/libc.a(writev.o)
 .debug_frame   0x0000000000003c10       0x48 0x8 /home/ashwin/pop-compiler-lkvm/x86_64/lib/libc.a(tolower.o)
 .debug_frame   0x0000000000003c58       0xa8 0x8 /home/ashwin/pop-compiler-lkvm/x86_64/lib/libc.a(__init_tls.o)
 .debug_frame   0x0000000000003d00       0x88 0x8 /home/ashwin/pop-compiler-lkvm/x86_64/lib/libc.a(platform.o)
 .debug_frame   0x0000000000003d88       0x30 0x8 /home/ashwin/pop-compiler-lkvm/x86_64/lib/libc.a(_Exit.o)
 .debug_frame   0x0000000000003db8       0xc0 0x8 /home/ashwin/pop-compiler-lkvm/x86_64/lib/libc.a(floatscan.o)
 .debug_frame   0x0000000000003e78       0x70 0x8 /home/ashwin/pop-compiler-lkvm/x86_64/lib/libc.a(intscan.o)
 .debug_frame   0x0000000000003ee8       0x30 0x8 /home/ashwin/pop-compiler-lkvm/x86_64/lib/libc.a(procfdname.o)
 .debug_frame   0x0000000000003f18       0x58 0x8 /home/ashwin/pop-compiler-lkvm/x86_64/lib/libc.a(shgetc.o)
 .debug_frame   0x0000000000003f70       0x48 0x8 /home/ashwin/pop-compiler-lkvm/x86_64/lib/libc.a(syscall.o)
 .debug_frame   0x0000000000003fb8       0xc0 0x8 /home/ashwin/pop-compiler-lkvm/x86_64/lib/libc.a(expand_heap.o)
 .debug_frame   0x0000000000004078       0x30 0x8 /home/ashwin/pop-compiler-lkvm/x86_64/lib/libc.a(__fpclassifyl.o)
 .debug_frame   0x00000000000040a8       0x30 0x8 /home/ashwin/pop-compiler-lkvm/x86_64/lib/libc.a(__signbitl.o)
 .debug_frame   0x00000000000040d8       0x30 0x8 /home/ashwin/pop-compiler-lkvm/x86_64/lib/libc.a(copysignl.o)
 .debug_frame   0x0000000000004108       0x40 0x8 /home/ashwin/pop-compiler-lkvm/x86_64/lib/libc.a(frexpl.o)
 .debug_frame   0x0000000000004148       0x30 0x8 /home/ashwin/pop-compiler-lkvm/x86_64/lib/libc.a(scalbn.o)
 .debug_frame   0x0000000000004178       0x30 0x8 /home/ashwin/pop-compiler-lkvm/x86_64/lib/libc.a(scalbnl.o)
 .debug_frame   0x00000000000041a8       0x38 0x8 /home/ashwin/pop-compiler-lkvm/x86_64/lib/libc.a(fabs.o)
 .debug_frame   0x00000000000041e0       0x30 0x8 /home/ashwin/pop-compiler-lkvm/x86_64/lib/libc.a(fmodl.o)
 .debug_frame   0x0000000000004210       0x40 0x8 /home/ashwin/pop-compiler-lkvm/x86_64/lib/libc.a(mbrtowc.o)
 .debug_frame   0x0000000000004250       0x30 0x8 /home/ashwin/pop-compiler-lkvm/x86_64/lib/libc.a(mbsinit.o)
 .debug_frame   0x0000000000004280       0x38 0x8 /home/ashwin/pop-compiler-lkvm/x86_64/lib/libc.a(wctomb.o)
 .debug_frame   0x00000000000042b8       0x90 0x8 /home/ashwin/pop-compiler-lkvm/x86_64/lib/libc.a(sigaction.o)
 .debug_frame   0x0000000000004348       0x38 0x8 /home/ashwin/pop-compiler-lkvm/x86_64/lib/libc.a(restore.o)
 .debug_frame   0x0000000000004380       0x50 0x8 /home/ashwin/pop-compiler-lkvm/x86_64/lib/libc.a(__fdopen.o)
 .debug_frame   0x00000000000043d0       0x50 0x8 /home/ashwin/pop-compiler-lkvm/x86_64/lib/libc.a(__fmodeflags.o)
 .debug_frame   0x0000000000004420       0x70 0x8 /home/ashwin/pop-compiler-lkvm/x86_64/lib/libc.a(__lockfile.o)
 .debug_frame   0x0000000000004490       0x48 0x8 /home/ashwin/pop-compiler-lkvm/x86_64/lib/libc.a(__overflow.o)
 .debug_frame   0x00000000000044d8       0x50 0x8 /home/ashwin/pop-compiler-lkvm/x86_64/lib/libc.a(__stdio_close.o)
 .debug_frame   0x0000000000004528       0x50 0x8 /home/ashwin/pop-compiler-lkvm/x86_64/lib/libc.a(__stdio_read.o)
 .debug_frame   0x0000000000004578       0x30 0x8 /home/ashwin/pop-compiler-lkvm/x86_64/lib/libc.a(__stdio_seek.o)
 .debug_frame   0x00000000000045a8       0x70 0x8 /home/ashwin/pop-compiler-lkvm/x86_64/lib/libc.a(__stdio_write.o)
 .debug_frame   0x0000000000004618       0x38 0x8 /home/ashwin/pop-compiler-lkvm/x86_64/lib/libc.a(__stdout_write.o)
 .debug_frame   0x0000000000004650       0x68 0x8 /home/ashwin/pop-compiler-lkvm/x86_64/lib/libc.a(__string_read.o)
 .debug_frame   0x00000000000046b8       0x48 0x8 /home/ashwin/pop-compiler-lkvm/x86_64/lib/libc.a(__towrite.o)
 .debug_frame   0x0000000000004700       0x40 0x8 /home/ashwin/pop-compiler-lkvm/x86_64/lib/libc.a(__uflow.o)
 .debug_frame   0x0000000000004740       0x48 0x8 /home/ashwin/pop-compiler-lkvm/x86_64/lib/libc.a(fputs.o)
 .debug_frame   0x0000000000004788       0x70 0x8 /home/ashwin/pop-compiler-lkvm/x86_64/lib/libc.a(getdelim.o)
 .debug_frame   0x00000000000047f8       0x38 0x8 /home/ashwin/pop-compiler-lkvm/x86_64/lib/libc.a(ofl_add.o)
 .debug_frame   0x0000000000004830       0x30 0x8 /home/ashwin/pop-compiler-lkvm/x86_64/lib/libc.a(memcmp.o)
 .debug_frame   0x0000000000004860       0x30 0x8 /home/ashwin/pop-compiler-lkvm/x86_64/lib/libc.a(stpcpy.o)
 .debug_frame   0x0000000000004890       0x40 0x8 /home/ashwin/pop-compiler-lkvm/x86_64/lib/libc.a(stpncpy.o)
 .debug_frame   0x00000000000048d0       0x48 0x8 /home/ashwin/pop-compiler-lkvm/x86_64/lib/libc.a(strcspn.o)
 .debug_frame   0x0000000000004918       0x60 0x8 /home/ashwin/pop-compiler-lkvm/x86_64/lib/libc.a(mkostemps.o)
 .debug_frame   0x0000000000004978       0x98 0x8 /home/ashwin/pop-compiler-lkvm/x86_64/lib/libc.a(__timedwait.o)
 .debug_frame   0x0000000000004a10       0x60 0x8 /home/ashwin/pop-compiler-lkvm/x86_64/lib/libc.a(pthread_rwlock_timedwrlock.o)
 .debug_frame   0x0000000000004a70       0x30 0x8 /home/ashwin/pop-compiler-lkvm/x86_64/lib/libc.a(pthread_rwlock_trywrlock.o)
 .debug_frame   0x0000000000004aa0       0x30 0x8 /home/ashwin/pop-compiler-lkvm/x86_64/lib/libc.a(__set_thread_area.o)
 .debug_frame   0x0000000000004ad0       0x50 0x8 /home/ashwin/pop-compiler-lkvm/x86_64/lib/libc.a(__secs_to_tm.o)
 .debug_frame   0x0000000000004b20      0x1b0 0x8 /home/ashwin/pop-compiler-lkvm/x86_64/lib/libc.a(__tz.o)
 .debug_frame   0x0000000000004cd0       0x30 0x8 /home/ashwin/pop-compiler-lkvm/x86_64/lib/libc.a(__year_to_secs.o)
 .debug_frame   0x0000000000004d00       0x38 0x8 /home/ashwin/pop-compiler-lkvm/x86_64/lib/libc.a(clock_gettime.o)
 .debug_frame   0x0000000000004d38       0x38 0x8 /home/ashwin/pop-compiler-lkvm/x86_64/lib/libc.a(nanosleep.o)
 .debug_frame   0x0000000000004d70       0x40 0x8 /home/ashwin/pop-compiler-lkvm/x86_64/lib/libc.a(wcrtomb.o)
 .debug_frame   0x0000000000004db0       0x60 0x8 /home/ashwin/pop-compiler-lkvm/x86_64/lib/libc.a(__stdio_exit.o)
 .debug_frame   0x0000000000004e10       0x60 0x8 /home/ashwin/pop-compiler-lkvm/x86_64/lib/libc.a(__toread.o)
 .debug_frame   0x0000000000004e70       0x50 0x8 /home/ashwin/pop-compiler-lkvm/x86_64/lib/libc.a(__randname.o)
 .debug_frame   0x0000000000004ec0       0x48 0x8 /home/ashwin/pop-compiler-lkvm/x86_64/lib/libc.a(__map_file.o)
 .debug_frame   0x0000000000004f08       0x30 0x8 /home/ashwin/pop-compiler-lkvm/x86_64/lib/libc.a(__month_to_secs.o)

.stack_transform.unwind
                0x0000000000000000       0x30
 .stack_transform.unwind
                0x0000000000000000       0x18 0x4 /home/ashwin/pop-compiler-lkvm/x86_64/lib/libc.a(__libc_start_main.o)
 .stack_transform.unwind
                0x0000000000000018       0x18 0x4 /home/ashwin/pop-compiler-lkvm/x86_64/lib/libc.a(pthread_create.o)

.stack_transform.unwind_arange
                0x0000000000000000       0x30
 .stack_transform.unwind_arange
                0x0000000000000000       0x10 0x8 /home/ashwin/pop-compiler-lkvm/x86_64/lib/libc.a(__libc_start_main.o)
 .stack_transform.unwind_arange
                0x0000000000000010       0x20 0x8 /home/ashwin/pop-compiler-lkvm/x86_64/lib/libc.a(pthread_create.o)

.note.gnu.gold-version
                0x0000000000000000       0x1c
 ** note header
                0x0000000000000000       0x10
 ** fill        0x0000000000000010        0x9
 ** zero fill   0x0000000000000019        0x3

.symtab         0x0000000000000000     0x9cd8
 ** symtab      0x0000000000000000     0x9cd8

.strtab         0x0000000000000000     0x596f
 ** string table
                0x0000000000000000     0x596f

.shstrtab       0x0000000000000000      0x134
 ** string table
                0x0000000000000000      0x134
